EXPORTS 
	??_R0?AV<lambda_07c71a731cdd852924c8b03369e08e45>@@@8 	 DATA
	??_R0?AV<lambda_1182dc3d17cc3d42d0fa121687ca398f>@@@8 	 DATA
	??_R0?AV<lambda_1afa04f1fbcac3f0220197bc7dc56e5c>@@@8 	 DATA
	??_R0?AV<lambda_1fa42df75aa3f091931d838c6b29bf14>@@@8 	 DATA
	??_R0?AV<lambda_22809532bb019f0daf6e1a3d5953fdfe>@@@8 	 DATA
	??_R0?AV<lambda_2bdf57fc14ce3d1ee3d482d37e265481>@@@8 	 DATA
	??_R0?AV<lambda_2fd5011b05d897d5926948a12d966e62>@@@8 	 DATA
	??_R0?AV<lambda_30061e8242f4cac9beafded9d6029eb3>@@@8 	 DATA
	??_R0?AV<lambda_33ae79e5c291bdedd0f51cabd2dfcd81>@@@8 	 DATA
	??_R0?AV<lambda_35fdaef33dcdabfd718789213dcbe077>@@@8 	 DATA
	??_R0?AV<lambda_3625be2549de29136342b6a0f47e0f94>@@@8 	 DATA
	??_R0?AV<lambda_37ee8f263b4b300875f9c1a27d8bc1b7>@@@8 	 DATA
	??_R0?AV<lambda_3846f1b54e820bbe9d9c8e168f510c30>@@@8 	 DATA
	??_R0?AV<lambda_3ed9ecede0e2bd13072bb2eaa493856c>@@@8 	 DATA
	??_R0?AV<lambda_46065660533fdd3e1d22f26ab5e7717a>@@@8 	 DATA
	??_R0?AV<lambda_4668feae5e111d3fb1dac64215a23b38>@@@8 	 DATA
	??_R0?AV<lambda_48cab4f9c41cfbb86e6ac601d995a377>@@@8 	 DATA
	??_R0?AV<lambda_5115edcd92ffe93e8c764d8bd07fe511>@@@8 	 DATA
	??_R0?AV<lambda_5aad107e1021c5cb0dab2355ffad4f11>@@@8 	 DATA
	??_R0?AV<lambda_759ea76bbcc6dab599e99f646e253eec>@@@8 	 DATA
	??_R0?AV<lambda_77b724ce3ffa2576d983c349b41d8769>@@@8 	 DATA
	??_R0?AV<lambda_80812d815ceca467341606308b248d82>@@@8 	 DATA
	??_R0?AV<lambda_86b608a84de436eb259f5506c600e5a7>@@@8 	 DATA
	??_R0?AV<lambda_a2748b89a44b5f04cf00c20c2b12ef9f>@@@8 	 DATA
	??_R0?AV<lambda_a41f49bf9c3387872c379e715d9fa2a7>@@@8 	 DATA
	??_R0?AV<lambda_ad1ad2033536d5afe7481e140343dd0e>@@@8 	 DATA
	??_R0?AV<lambda_b25d6381cf6527ae37a914fecce16155>@@@8 	 DATA
	??_R0?AV<lambda_c9a6258327fe4c27aef484a179309302>@@@8 	 DATA
	??_R0?AV<lambda_cc918ab4bf9f883e7aa788f0840d79eb>@@@8 	 DATA
	??_R0?AV<lambda_d6b799d58678271dfd01570f177cbfef>@@@8 	 DATA
	??_R0?AV<lambda_dd2dd9b3d707913969cb4c37b4af3c84>@@@8 	 DATA
	??_R0?AV<lambda_e18d89c2faad06f10447820cd6771af8>@@@8 	 DATA
	??_R0?AV<lambda_e24b4efda77a160baf50d70af9d2ff0d>@@@8 	 DATA
	??_R0?AV<lambda_f17412dd2526a2a667a103262ec446e7>@@@8 	 DATA
	??_R0?AV<lambda_f900a08328ddbf3bb2ed4ffc647ad76b>@@@8 	 DATA
	??_R0?AV<lambda_f961c1a86b69bc1700502596fbde0b9e>@@@8 	 DATA
	??_R0?AV<lambda_fbd46683e75ea7f41ee138a020a867bb>@@@8 	 DATA
	??_R0?AV<lambda_fdb58fdca8c0f635ac95f3788f364eb9>@@@8 	 DATA
	??_R0?AV<lambda_fde3d6b9ca0523f6d49e8eb5e1c4ba53>@@@8 	 DATA
	??_R0?AV<lambda_ffff1cfe3e31e0319bc66d6bdc76e93b>@@@8 	 DATA
	??_R0?AV?$DepthFirstTraverser@VCornerTable@draco@@V?$MeshAttributeIndicesEncodingObserver@VCornerTable@draco@@@2@@draco@@@8 	 DATA
	??_R0?AV?$DepthFirstTraverser@VMeshAttributeCornerTable@draco@@V?$MeshAttributeIndicesEncodingObserver@VMeshAttributeCornerTable@draco@@@2@@draco@@@8 	 DATA
	??_R0?AV?$EncoderBase@V?$EncoderOptionsBase@H@draco@@@draco@@@8 	 DATA
	??_R0?AV?$EncoderBase@V?$EncoderOptionsBase@W4Type@GeometryAttribute@draco@@@draco@@@draco@@@8 	 DATA
	??_R0?AV?$MaxPredictionDegreeTraverser@VCornerTable@draco@@V?$MeshAttributeIndicesEncodingObserver@VCornerTable@draco@@@2@@draco@@@8 	 DATA
	??_R0?AV?$MeshEdgebreakerDecoderImpl@VMeshEdgebreakerTraversalDecoder@draco@@@draco@@@8 	 DATA
	??_R0?AV?$MeshEdgebreakerDecoderImpl@VMeshEdgebreakerTraversalPredictiveDecoder@draco@@@draco@@@8 	 DATA
	??_R0?AV?$MeshEdgebreakerDecoderImpl@VMeshEdgebreakerTraversalValenceDecoder@draco@@@draco@@@8 	 DATA
	??_R0?AV?$MeshEdgebreakerEncoderImpl@VMeshEdgebreakerTraversalEncoder@draco@@@draco@@@8 	 DATA
	??_R0?AV?$MeshEdgebreakerEncoderImpl@VMeshEdgebreakerTraversalPredictiveEncoder@draco@@@draco@@@8 	 DATA
	??_R0?AV?$MeshEdgebreakerEncoderImpl@VMeshEdgebreakerTraversalValenceEncoder@draco@@@draco@@@8 	 DATA
	??_R0?AV?$MeshPredictionSchemeConstrainedMultiParallelogramDecoder@HV?$PredictionSchemeWrapDecodingTransform@HH@draco@@V?$MeshPredictionSchemeData@VCornerTable@draco@@@2@@draco@@@8 	 DATA
	??_R0?AV?$MeshPredictionSchemeConstrainedMultiParallelogramDecoder@HV?$PredictionSchemeWrapDecodingTransform@HH@draco@@V?$MeshPredictionSchemeData@VMeshAttributeCornerTable@draco@@@2@@draco@@@8 	 DATA
	??_R0?AV?$MeshPredictionSchemeConstrainedMultiParallelogramEncoder@HV?$PredictionSchemeNormalOctahedronCanonicalizedEncodingTransform@H@draco@@V?$MeshPredictionSchemeData@VCornerTable@draco@@@2@@draco@@@8 	 DATA
	??_R0?AV?$MeshPredictionSchemeConstrainedMultiParallelogramEncoder@HV?$PredictionSchemeNormalOctahedronCanonicalizedEncodingTransform@H@draco@@V?$MeshPredictionSchemeData@VMeshAttributeCornerTable@draco@@@2@@draco@@@8 	 DATA
	??_R0?AV?$MeshPredictionSchemeConstrainedMultiParallelogramEncoder@HV?$PredictionSchemeWrapEncodingTransform@HH@draco@@V?$MeshPredictionSchemeData@VCornerTable@draco@@@2@@draco@@@8 	 DATA
	??_R0?AV?$MeshPredictionSchemeConstrainedMultiParallelogramEncoder@HV?$PredictionSchemeWrapEncodingTransform@HH@draco@@V?$MeshPredictionSchemeData@VMeshAttributeCornerTable@draco@@@2@@draco@@@8 	 DATA
	??_R0?AV?$MeshPredictionSchemeDecoder@HV?$PredictionSchemeNormalOctahedronCanonicalizedDecodingTransform@H@draco@@V?$MeshPredictionSchemeData@VCornerTable@draco@@@2@@draco@@@8 	 DATA
	??_R0?AV?$MeshPredictionSchemeDecoder@HV?$PredictionSchemeNormalOctahedronCanonicalizedDecodingTransform@H@draco@@V?$MeshPredictionSchemeData@VMeshAttributeCornerTable@draco@@@2@@draco@@@8 	 DATA
	??_R0?AV?$MeshPredictionSchemeDecoder@HV?$PredictionSchemeNormalOctahedronDecodingTransform@H@draco@@V?$MeshPredictionSchemeData@VCornerTable@draco@@@2@@draco@@@8 	 DATA
	??_R0?AV?$MeshPredictionSchemeDecoder@HV?$PredictionSchemeNormalOctahedronDecodingTransform@H@draco@@V?$MeshPredictionSchemeData@VMeshAttributeCornerTable@draco@@@2@@draco@@@8 	 DATA
	??_R0?AV?$MeshPredictionSchemeDecoder@HV?$PredictionSchemeWrapDecodingTransform@HH@draco@@V?$MeshPredictionSchemeData@VCornerTable@draco@@@2@@draco@@@8 	 DATA
	??_R0?AV?$MeshPredictionSchemeDecoder@HV?$PredictionSchemeWrapDecodingTransform@HH@draco@@V?$MeshPredictionSchemeData@VMeshAttributeCornerTable@draco@@@2@@draco@@@8 	 DATA
	??_R0?AV?$MeshPredictionSchemeEncoder@HV?$PredictionSchemeNormalOctahedronCanonicalizedEncodingTransform@H@draco@@V?$MeshPredictionSchemeData@VCornerTable@draco@@@2@@draco@@@8 	 DATA
	??_R0?AV?$MeshPredictionSchemeEncoder@HV?$PredictionSchemeNormalOctahedronCanonicalizedEncodingTransform@H@draco@@V?$MeshPredictionSchemeData@VMeshAttributeCornerTable@draco@@@2@@draco@@@8 	 DATA
	??_R0?AV?$MeshPredictionSchemeEncoder@HV?$PredictionSchemeWrapEncodingTransform@HH@draco@@V?$MeshPredictionSchemeData@VCornerTable@draco@@@2@@draco@@@8 	 DATA
	??_R0?AV?$MeshPredictionSchemeEncoder@HV?$PredictionSchemeWrapEncodingTransform@HH@draco@@V?$MeshPredictionSchemeData@VMeshAttributeCornerTable@draco@@@2@@draco@@@8 	 DATA
	??_R0?AV?$MeshPredictionSchemeGeometricNormalDecoder@HV?$PredictionSchemeNormalOctahedronCanonicalizedDecodingTransform@H@draco@@V?$MeshPredictionSchemeData@VCornerTable@draco@@@2@@draco@@@8 	 DATA
	??_R0?AV?$MeshPredictionSchemeGeometricNormalDecoder@HV?$PredictionSchemeNormalOctahedronCanonicalizedDecodingTransform@H@draco@@V?$MeshPredictionSchemeData@VMeshAttributeCornerTable@draco@@@2@@draco@@@8 	 DATA
	??_R0?AV?$MeshPredictionSchemeGeometricNormalDecoder@HV?$PredictionSchemeNormalOctahedronDecodingTransform@H@draco@@V?$MeshPredictionSchemeData@VCornerTable@draco@@@2@@draco@@@8 	 DATA
	??_R0?AV?$MeshPredictionSchemeGeometricNormalDecoder@HV?$PredictionSchemeNormalOctahedronDecodingTransform@H@draco@@V?$MeshPredictionSchemeData@VMeshAttributeCornerTable@draco@@@2@@draco@@@8 	 DATA
	??_R0?AV?$MeshPredictionSchemeGeometricNormalDecoder@HV?$PredictionSchemeWrapDecodingTransform@HH@draco@@V?$MeshPredictionSchemeData@VCornerTable@draco@@@2@@draco@@@8 	 DATA
	??_R0?AV?$MeshPredictionSchemeGeometricNormalDecoder@HV?$PredictionSchemeWrapDecodingTransform@HH@draco@@V?$MeshPredictionSchemeData@VMeshAttributeCornerTable@draco@@@2@@draco@@@8 	 DATA
	??_R0?AV?$MeshPredictionSchemeGeometricNormalEncoder@HV?$PredictionSchemeNormalOctahedronCanonicalizedEncodingTransform@H@draco@@V?$MeshPredictionSchemeData@VCornerTable@draco@@@2@@draco@@@8 	 DATA
	??_R0?AV?$MeshPredictionSchemeGeometricNormalEncoder@HV?$PredictionSchemeNormalOctahedronCanonicalizedEncodingTransform@H@draco@@V?$MeshPredictionSchemeData@VMeshAttributeCornerTable@draco@@@2@@draco@@@8 	 DATA
	??_R0?AV?$MeshPredictionSchemeGeometricNormalEncoder@HV?$PredictionSchemeWrapEncodingTransform@HH@draco@@V?$MeshPredictionSchemeData@VCornerTable@draco@@@2@@draco@@@8 	 DATA
	??_R0?AV?$MeshPredictionSchemeGeometricNormalEncoder@HV?$PredictionSchemeWrapEncodingTransform@HH@draco@@V?$MeshPredictionSchemeData@VMeshAttributeCornerTable@draco@@@2@@draco@@@8 	 DATA
	??_R0?AV?$MeshPredictionSchemeGeometricNormalPredictorArea@HV?$PredictionSchemeNormalOctahedronCanonicalizedDecodingTransform@H@draco@@V?$MeshPredictionSchemeData@VCornerTable@draco@@@2@@draco@@@8 	 DATA
	??_R0?AV?$MeshPredictionSchemeGeometricNormalPredictorArea@HV?$PredictionSchemeNormalOctahedronCanonicalizedDecodingTransform@H@draco@@V?$MeshPredictionSchemeData@VMeshAttributeCornerTable@draco@@@2@@draco@@@8 	 DATA
	??_R0?AV?$MeshPredictionSchemeGeometricNormalPredictorArea@HV?$PredictionSchemeNormalOctahedronCanonicalizedEncodingTransform@H@draco@@V?$MeshPredictionSchemeData@VCornerTable@draco@@@2@@draco@@@8 	 DATA
	??_R0?AV?$MeshPredictionSchemeGeometricNormalPredictorArea@HV?$PredictionSchemeNormalOctahedronCanonicalizedEncodingTransform@H@draco@@V?$MeshPredictionSchemeData@VMeshAttributeCornerTable@draco@@@2@@draco@@@8 	 DATA
	??_R0?AV?$MeshPredictionSchemeGeometricNormalPredictorArea@HV?$PredictionSchemeNormalOctahedronDecodingTransform@H@draco@@V?$MeshPredictionSchemeData@VCornerTable@draco@@@2@@draco@@@8 	 DATA
	??_R0?AV?$MeshPredictionSchemeGeometricNormalPredictorArea@HV?$PredictionSchemeNormalOctahedronDecodingTransform@H@draco@@V?$MeshPredictionSchemeData@VMeshAttributeCornerTable@draco@@@2@@draco@@@8 	 DATA
	??_R0?AV?$MeshPredictionSchemeGeometricNormalPredictorArea@HV?$PredictionSchemeWrapDecodingTransform@HH@draco@@V?$MeshPredictionSchemeData@VCornerTable@draco@@@2@@draco@@@8 	 DATA
	??_R0?AV?$MeshPredictionSchemeGeometricNormalPredictorArea@HV?$PredictionSchemeWrapDecodingTransform@HH@draco@@V?$MeshPredictionSchemeData@VMeshAttributeCornerTable@draco@@@2@@draco@@@8 	 DATA
	??_R0?AV?$MeshPredictionSchemeGeometricNormalPredictorArea@HV?$PredictionSchemeWrapEncodingTransform@HH@draco@@V?$MeshPredictionSchemeData@VCornerTable@draco@@@2@@draco@@@8 	 DATA
	??_R0?AV?$MeshPredictionSchemeGeometricNormalPredictorArea@HV?$PredictionSchemeWrapEncodingTransform@HH@draco@@V?$MeshPredictionSchemeData@VMeshAttributeCornerTable@draco@@@2@@draco@@@8 	 DATA
	??_R0?AV?$MeshPredictionSchemeGeometricNormalPredictorBase@HV?$PredictionSchemeNormalOctahedronCanonicalizedDecodingTransform@H@draco@@V?$MeshPredictionSchemeData@VCornerTable@draco@@@2@@draco@@@8 	 DATA
	??_R0?AV?$MeshPredictionSchemeGeometricNormalPredictorBase@HV?$PredictionSchemeNormalOctahedronCanonicalizedDecodingTransform@H@draco@@V?$MeshPredictionSchemeData@VMeshAttributeCornerTable@draco@@@2@@draco@@@8 	 DATA
	??_R0?AV?$MeshPredictionSchemeGeometricNormalPredictorBase@HV?$PredictionSchemeNormalOctahedronCanonicalizedEncodingTransform@H@draco@@V?$MeshPredictionSchemeData@VCornerTable@draco@@@2@@draco@@@8 	 DATA
	??_R0?AV?$MeshPredictionSchemeGeometricNormalPredictorBase@HV?$PredictionSchemeNormalOctahedronCanonicalizedEncodingTransform@H@draco@@V?$MeshPredictionSchemeData@VMeshAttributeCornerTable@draco@@@2@@draco@@@8 	 DATA
	??_R0?AV?$MeshPredictionSchemeGeometricNormalPredictorBase@HV?$PredictionSchemeNormalOctahedronDecodingTransform@H@draco@@V?$MeshPredictionSchemeData@VCornerTable@draco@@@2@@draco@@@8 	 DATA
	??_R0?AV?$MeshPredictionSchemeGeometricNormalPredictorBase@HV?$PredictionSchemeNormalOctahedronDecodingTransform@H@draco@@V?$MeshPredictionSchemeData@VMeshAttributeCornerTable@draco@@@2@@draco@@@8 	 DATA
	??_R0?AV?$MeshPredictionSchemeGeometricNormalPredictorBase@HV?$PredictionSchemeWrapDecodingTransform@HH@draco@@V?$MeshPredictionSchemeData@VCornerTable@draco@@@2@@draco@@@8 	 DATA
	??_R0?AV?$MeshPredictionSchemeGeometricNormalPredictorBase@HV?$PredictionSchemeWrapDecodingTransform@HH@draco@@V?$MeshPredictionSchemeData@VMeshAttributeCornerTable@draco@@@2@@draco@@@8 	 DATA
	??_R0?AV?$MeshPredictionSchemeGeometricNormalPredictorBase@HV?$PredictionSchemeWrapEncodingTransform@HH@draco@@V?$MeshPredictionSchemeData@VCornerTable@draco@@@2@@draco@@@8 	 DATA
	??_R0?AV?$MeshPredictionSchemeGeometricNormalPredictorBase@HV?$PredictionSchemeWrapEncodingTransform@HH@draco@@V?$MeshPredictionSchemeData@VMeshAttributeCornerTable@draco@@@2@@draco@@@8 	 DATA
	??_R0?AV?$MeshPredictionSchemeMultiParallelogramDecoder@HV?$PredictionSchemeWrapDecodingTransform@HH@draco@@V?$MeshPredictionSchemeData@VCornerTable@draco@@@2@@draco@@@8 	 DATA
	??_R0?AV?$MeshPredictionSchemeMultiParallelogramDecoder@HV?$PredictionSchemeWrapDecodingTransform@HH@draco@@V?$MeshPredictionSchemeData@VMeshAttributeCornerTable@draco@@@2@@draco@@@8 	 DATA
	??_R0?AV?$MeshPredictionSchemeParallelogramDecoder@HV?$PredictionSchemeWrapDecodingTransform@HH@draco@@V?$MeshPredictionSchemeData@VCornerTable@draco@@@2@@draco@@@8 	 DATA
	??_R0?AV?$MeshPredictionSchemeParallelogramDecoder@HV?$PredictionSchemeWrapDecodingTransform@HH@draco@@V?$MeshPredictionSchemeData@VMeshAttributeCornerTable@draco@@@2@@draco@@@8 	 DATA
	??_R0?AV?$MeshPredictionSchemeParallelogramEncoder@HV?$PredictionSchemeNormalOctahedronCanonicalizedEncodingTransform@H@draco@@V?$MeshPredictionSchemeData@VCornerTable@draco@@@2@@draco@@@8 	 DATA
	??_R0?AV?$MeshPredictionSchemeParallelogramEncoder@HV?$PredictionSchemeNormalOctahedronCanonicalizedEncodingTransform@H@draco@@V?$MeshPredictionSchemeData@VMeshAttributeCornerTable@draco@@@2@@draco@@@8 	 DATA
	??_R0?AV?$MeshPredictionSchemeParallelogramEncoder@HV?$PredictionSchemeWrapEncodingTransform@HH@draco@@V?$MeshPredictionSchemeData@VCornerTable@draco@@@2@@draco@@@8 	 DATA
	??_R0?AV?$MeshPredictionSchemeParallelogramEncoder@HV?$PredictionSchemeWrapEncodingTransform@HH@draco@@V?$MeshPredictionSchemeData@VMeshAttributeCornerTable@draco@@@2@@draco@@@8 	 DATA
	??_R0?AV?$MeshPredictionSchemeTexCoordsDecoder@HV?$PredictionSchemeWrapDecodingTransform@HH@draco@@V?$MeshPredictionSchemeData@VCornerTable@draco@@@2@@draco@@@8 	 DATA
	??_R0?AV?$MeshPredictionSchemeTexCoordsDecoder@HV?$PredictionSchemeWrapDecodingTransform@HH@draco@@V?$MeshPredictionSchemeData@VMeshAttributeCornerTable@draco@@@2@@draco@@@8 	 DATA
	??_R0?AV?$MeshPredictionSchemeTexCoordsPortableDecoder@HV?$PredictionSchemeWrapDecodingTransform@HH@draco@@V?$MeshPredictionSchemeData@VCornerTable@draco@@@2@@draco@@@8 	 DATA
	??_R0?AV?$MeshPredictionSchemeTexCoordsPortableDecoder@HV?$PredictionSchemeWrapDecodingTransform@HH@draco@@V?$MeshPredictionSchemeData@VMeshAttributeCornerTable@draco@@@2@@draco@@@8 	 DATA
	??_R0?AV?$MeshPredictionSchemeTexCoordsPortableEncoder@HV?$PredictionSchemeNormalOctahedronCanonicalizedEncodingTransform@H@draco@@V?$MeshPredictionSchemeData@VCornerTable@draco@@@2@@draco@@@8 	 DATA
	??_R0?AV?$MeshPredictionSchemeTexCoordsPortableEncoder@HV?$PredictionSchemeNormalOctahedronCanonicalizedEncodingTransform@H@draco@@V?$MeshPredictionSchemeData@VMeshAttributeCornerTable@draco@@@2@@draco@@@8 	 DATA
	??_R0?AV?$MeshPredictionSchemeTexCoordsPortableEncoder@HV?$PredictionSchemeWrapEncodingTransform@HH@draco@@V?$MeshPredictionSchemeData@VCornerTable@draco@@@2@@draco@@@8 	 DATA
	??_R0?AV?$MeshPredictionSchemeTexCoordsPortableEncoder@HV?$PredictionSchemeWrapEncodingTransform@HH@draco@@V?$MeshPredictionSchemeData@VMeshAttributeCornerTable@draco@@@2@@draco@@@8 	 DATA
	??_R0?AV?$MeshTraversalSequencer@V?$DepthFirstTraverser@VCornerTable@draco@@V?$MeshAttributeIndicesEncodingObserver@VCornerTable@draco@@@2@@draco@@@draco@@@8 	 DATA
	??_R0?AV?$MeshTraversalSequencer@V?$DepthFirstTraverser@VMeshAttributeCornerTable@draco@@V?$MeshAttributeIndicesEncodingObserver@VMeshAttributeCornerTable@draco@@@2@@draco@@@draco@@@8 	 DATA
	??_R0?AV?$MeshTraversalSequencer@V?$MaxPredictionDegreeTraverser@VCornerTable@draco@@V?$MeshAttributeIndicesEncodingObserver@VCornerTable@draco@@@2@@draco@@@draco@@@8 	 DATA
	??_R0?AV?$PredictionSchemeDecoder@HV?$PredictionSchemeNormalOctahedronCanonicalizedDecodingTransform@H@draco@@@draco@@@8 	 DATA
	??_R0?AV?$PredictionSchemeDecoder@HV?$PredictionSchemeNormalOctahedronDecodingTransform@H@draco@@@draco@@@8 	 DATA
	??_R0?AV?$PredictionSchemeDecoder@HV?$PredictionSchemeWrapDecodingTransform@HH@draco@@@draco@@@8 	 DATA
	??_R0?AV?$PredictionSchemeDeltaDecoder@HV?$PredictionSchemeNormalOctahedronCanonicalizedDecodingTransform@H@draco@@@draco@@@8 	 DATA
	??_R0?AV?$PredictionSchemeDeltaDecoder@HV?$PredictionSchemeNormalOctahedronDecodingTransform@H@draco@@@draco@@@8 	 DATA
	??_R0?AV?$PredictionSchemeDeltaDecoder@HV?$PredictionSchemeWrapDecodingTransform@HH@draco@@@draco@@@8 	 DATA
	??_R0?AV?$PredictionSchemeDeltaEncoder@HV?$PredictionSchemeNormalOctahedronCanonicalizedEncodingTransform@H@draco@@@draco@@@8 	 DATA
	??_R0?AV?$PredictionSchemeDeltaEncoder@HV?$PredictionSchemeWrapEncodingTransform@HH@draco@@@draco@@@8 	 DATA
	??_R0?AV?$PredictionSchemeEncoder@HV?$PredictionSchemeNormalOctahedronCanonicalizedEncodingTransform@H@draco@@@draco@@@8 	 DATA
	??_R0?AV?$PredictionSchemeEncoder@HV?$PredictionSchemeWrapEncodingTransform@HH@draco@@@draco@@@8 	 DATA
	??_R0?AV?$PredictionSchemeTypedDecoderInterface@HH@draco@@@8 	 DATA
	??_R0?AV?$PredictionSchemeTypedEncoderInterface@HH@draco@@@8 	 DATA
	??_R0?AV?$TraverserBase@VCornerTable@draco@@V?$MeshAttributeIndicesEncodingObserver@VCornerTable@draco@@@2@@draco@@@8 	 DATA
	??_R0?AV?$TraverserBase@VMeshAttributeCornerTable@draco@@V?$MeshAttributeIndicesEncodingObserver@VMeshAttributeCornerTable@draco@@@2@@draco@@@8 	 DATA
	??_R0?AV?$_Func_base@EH@std@@@8 	 DATA
	??_R0?AV?$_Func_base@HH@std@@@8 	 DATA
	??_R0?AV?$_Func_base@IH@std@@@8 	 DATA
	??_R0?AV?$_Func_base@MH@std@@@8 	 DATA
	??_R0?AV?$_Func_base@XN@std@@@8 	 DATA
	??_R0?AV?$_Func_impl_no_alloc@V<lambda_07c71a731cdd852924c8b03369e08e45>@@EH@std@@@8 	 DATA
	??_R0?AV?$_Func_impl_no_alloc@V<lambda_1182dc3d17cc3d42d0fa121687ca398f>@@HH@std@@@8 	 DATA
	??_R0?AV?$_Func_impl_no_alloc@V<lambda_1afa04f1fbcac3f0220197bc7dc56e5c>@@HH@std@@@8 	 DATA
	??_R0?AV?$_Func_impl_no_alloc@V<lambda_1fa42df75aa3f091931d838c6b29bf14>@@XN@std@@@8 	 DATA
	??_R0?AV?$_Func_impl_no_alloc@V<lambda_22809532bb019f0daf6e1a3d5953fdfe>@@HH@std@@@8 	 DATA
	??_R0?AV?$_Func_impl_no_alloc@V<lambda_2bdf57fc14ce3d1ee3d482d37e265481>@@HH@std@@@8 	 DATA
	??_R0?AV?$_Func_impl_no_alloc@V<lambda_2fd5011b05d897d5926948a12d966e62>@@IH@std@@@8 	 DATA
	??_R0?AV?$_Func_impl_no_alloc@V<lambda_30061e8242f4cac9beafded9d6029eb3>@@EH@std@@@8 	 DATA
	??_R0?AV?$_Func_impl_no_alloc@V<lambda_33ae79e5c291bdedd0f51cabd2dfcd81>@@EH@std@@@8 	 DATA
	??_R0?AV?$_Func_impl_no_alloc@V<lambda_35fdaef33dcdabfd718789213dcbe077>@@EH@std@@@8 	 DATA
	??_R0?AV?$_Func_impl_no_alloc@V<lambda_3625be2549de29136342b6a0f47e0f94>@@IH@std@@@8 	 DATA
	??_R0?AV?$_Func_impl_no_alloc@V<lambda_37ee8f263b4b300875f9c1a27d8bc1b7>@@EH@std@@@8 	 DATA
	??_R0?AV?$_Func_impl_no_alloc@V<lambda_3846f1b54e820bbe9d9c8e168f510c30>@@MH@std@@@8 	 DATA
	??_R0?AV?$_Func_impl_no_alloc@V<lambda_3ed9ecede0e2bd13072bb2eaa493856c>@@IH@std@@@8 	 DATA
	??_R0?AV?$_Func_impl_no_alloc@V<lambda_46065660533fdd3e1d22f26ab5e7717a>@@MH@std@@@8 	 DATA
	??_R0?AV?$_Func_impl_no_alloc@V<lambda_4668feae5e111d3fb1dac64215a23b38>@@MH@std@@@8 	 DATA
	??_R0?AV?$_Func_impl_no_alloc@V<lambda_48cab4f9c41cfbb86e6ac601d995a377>@@IH@std@@@8 	 DATA
	??_R0?AV?$_Func_impl_no_alloc@V<lambda_5115edcd92ffe93e8c764d8bd07fe511>@@XN@std@@@8 	 DATA
	??_R0?AV?$_Func_impl_no_alloc@V<lambda_5aad107e1021c5cb0dab2355ffad4f11>@@XN@std@@@8 	 DATA
	??_R0?AV?$_Func_impl_no_alloc@V<lambda_759ea76bbcc6dab599e99f646e253eec>@@EH@std@@@8 	 DATA
	??_R0?AV?$_Func_impl_no_alloc@V<lambda_77b724ce3ffa2576d983c349b41d8769>@@EH@std@@@8 	 DATA
	??_R0?AV?$_Func_impl_no_alloc@V<lambda_80812d815ceca467341606308b248d82>@@IH@std@@@8 	 DATA
	??_R0?AV?$_Func_impl_no_alloc@V<lambda_86b608a84de436eb259f5506c600e5a7>@@XN@std@@@8 	 DATA
	??_R0?AV?$_Func_impl_no_alloc@V<lambda_a2748b89a44b5f04cf00c20c2b12ef9f>@@HH@std@@@8 	 DATA
	??_R0?AV?$_Func_impl_no_alloc@V<lambda_a41f49bf9c3387872c379e715d9fa2a7>@@XN@std@@@8 	 DATA
	??_R0?AV?$_Func_impl_no_alloc@V<lambda_ad1ad2033536d5afe7481e140343dd0e>@@IH@std@@@8 	 DATA
	??_R0?AV?$_Func_impl_no_alloc@V<lambda_b25d6381cf6527ae37a914fecce16155>@@IH@std@@@8 	 DATA
	??_R0?AV?$_Func_impl_no_alloc@V<lambda_c9a6258327fe4c27aef484a179309302>@@XN@std@@@8 	 DATA
	??_R0?AV?$_Func_impl_no_alloc@V<lambda_cc918ab4bf9f883e7aa788f0840d79eb>@@IH@std@@@8 	 DATA
	??_R0?AV?$_Func_impl_no_alloc@V<lambda_d6b799d58678271dfd01570f177cbfef>@@EH@std@@@8 	 DATA
	??_R0?AV?$_Func_impl_no_alloc@V<lambda_dd2dd9b3d707913969cb4c37b4af3c84>@@MH@std@@@8 	 DATA
	??_R0?AV?$_Func_impl_no_alloc@V<lambda_e18d89c2faad06f10447820cd6771af8>@@HH@std@@@8 	 DATA
	??_R0?AV?$_Func_impl_no_alloc@V<lambda_e24b4efda77a160baf50d70af9d2ff0d>@@MH@std@@@8 	 DATA
	??_R0?AV?$_Func_impl_no_alloc@V<lambda_f17412dd2526a2a667a103262ec446e7>@@MH@std@@@8 	 DATA
	??_R0?AV?$_Func_impl_no_alloc@V<lambda_f900a08328ddbf3bb2ed4ffc647ad76b>@@XN@std@@@8 	 DATA
	??_R0?AV?$_Func_impl_no_alloc@V<lambda_f961c1a86b69bc1700502596fbde0b9e>@@MH@std@@@8 	 DATA
	??_R0?AV?$_Func_impl_no_alloc@V<lambda_fbd46683e75ea7f41ee138a020a867bb>@@MH@std@@@8 	 DATA
	??_R0?AV?$_Func_impl_no_alloc@V<lambda_fdb58fdca8c0f635ac95f3788f364eb9>@@XN@std@@@8 	 DATA
	??_R0?AV?$_Func_impl_no_alloc@V<lambda_fde3d6b9ca0523f6d49e8eb5e1c4ba53>@@HH@std@@@8 	 DATA
	??_R0?AV?$_Func_impl_no_alloc@V<lambda_ffff1cfe3e31e0319bc66d6bdc76e93b>@@HH@std@@@8 	 DATA
	??_R0?AV?$_Iosb@H@std@@@8 	 DATA
	??_R0?AV?$basic_ios@DU?$char_traits@D@std@@@std@@@8 	 DATA
	??_R0?AV?$basic_iostream@DU?$char_traits@D@std@@@std@@@8 	 DATA
	??_R0?AV?$basic_istream@DU?$char_traits@D@std@@@std@@@8 	 DATA
	??_R0?AV?$basic_ostream@DU?$char_traits@D@std@@@std@@@8 	 DATA
	??_R0?AV?$basic_streambuf@DU?$char_traits@D@std@@@std@@@8 	 DATA
	??_R0?AV?$basic_stringbuf@DU?$char_traits@D@std@@V?$allocator@D@2@@std@@@8 	 DATA
	??_R0?AV?$basic_stringstream@DU?$char_traits@D@std@@V?$allocator@D@2@@std@@@8 	 DATA
	??_R0?AVAttributeOctahedronTransform@draco@@@8 	 DATA
	??_R0?AVAttributeQuantizationTransform@draco@@@8 	 DATA
	??_R0?AVAttributeTransform@draco@@@8 	 DATA
	??_R0?AVAttributesDecoder@draco@@@8 	 DATA
	??_R0?AVAttributesDecoderInterface@draco@@@8 	 DATA
	??_R0?AVAttributesEncoder@draco@@@8 	 DATA
	??_R0?AVEncoder@draco@@@8 	 DATA
	??_R0?AVExpertEncoder@draco@@@8 	 DATA
	??_R0?AVFileReaderInterface@draco@@@8 	 DATA
	??_R0?AVFileWriterInterface@draco@@@8 	 DATA
	??_R0?AVKdTreeAttributesDecoder@draco@@@8 	 DATA
	??_R0?AVKdTreeAttributesEncoder@draco@@@8 	 DATA
	??_R0?AVKeyframeAnimation@draco@@@8 	 DATA
	??_R0?AVKeyframeAnimationEncoder@draco@@@8 	 DATA
	??_R0?AVLinearSequencer@draco@@@8 	 DATA
	??_R0?AVMesh@draco@@@8 	 DATA
	??_R0?AVMeshDecoder@draco@@@8 	 DATA
	??_R0?AVMeshEdgebreakerDecoder@draco@@@8 	 DATA
	??_R0?AVMeshEdgebreakerDecoderImplInterface@draco@@@8 	 DATA
	??_R0?AVMeshEdgebreakerEncoder@draco@@@8 	 DATA
	??_R0?AVMeshEdgebreakerEncoderImplInterface@draco@@@8 	 DATA
	??_R0?AVMeshEncoder@draco@@@8 	 DATA
	??_R0?AVMeshSequentialDecoder@draco@@@8 	 DATA
	??_R0?AVMeshSequentialEncoder@draco@@@8 	 DATA
	??_R0?AVPointCloud@draco@@@8 	 DATA
	??_R0?AVPointCloudDecoder@draco@@@8 	 DATA
	??_R0?AVPointCloudEncoder@draco@@@8 	 DATA
	??_R0?AVPointCloudKdTreeDecoder@draco@@@8 	 DATA
	??_R0?AVPointCloudKdTreeEncoder@draco@@@8 	 DATA
	??_R0?AVPointCloudSequentialDecoder@draco@@@8 	 DATA
	??_R0?AVPointCloudSequentialEncoder@draco@@@8 	 DATA
	??_R0?AVPointsSequencer@draco@@@8 	 DATA
	??_R0?AVPredictionSchemeDecoderInterface@draco@@@8 	 DATA
	??_R0?AVPredictionSchemeEncoderInterface@draco@@@8 	 DATA
	??_R0?AVPredictionSchemeInterface@draco@@@8 	 DATA
	??_R0?AVSequentialAttributeDecoder@draco@@@8 	 DATA
	??_R0?AVSequentialAttributeDecodersController@draco@@@8 	 DATA
	??_R0?AVSequentialAttributeEncoder@draco@@@8 	 DATA
	??_R0?AVSequentialAttributeEncodersController@draco@@@8 	 DATA
	??_R0?AVSequentialIntegerAttributeDecoder@draco@@@8 	 DATA
	??_R0?AVSequentialIntegerAttributeEncoder@draco@@@8 	 DATA
	??_R0?AVSequentialNormalAttributeDecoder@draco@@@8 	 DATA
	??_R0?AVSequentialNormalAttributeEncoder@draco@@@8 	 DATA
	??_R0?AVSequentialQuantizationAttributeDecoder@draco@@@8 	 DATA
	??_R0?AVSequentialQuantizationAttributeEncoder@draco@@@8 	 DATA
	??_R0?AVStdioFileReader@draco@@@8 	 DATA
	??_R0?AVStdioFileWriter@draco@@@8 	 DATA
	??_R0?AVbad_alloc@std@@@8 	 DATA
	??_R0?AVbad_array_new_length@std@@@8 	 DATA
	??_R0?AVexception@std@@@8 	 DATA
	??_R0?AVios_base@std@@@8 	 DATA
	?_OptionsStorage@?1??__local_stdio_printf_options@@9@4_KA 	 DATA
	?registered_in_factory_@StdioFileReader@draco@@0_NA 	 DATA
	?registered_in_factory_@StdioFileWriter@draco@@0_NA 	 DATA
	??$?0$$QEAH$$Z$$V@?$pair@$$CBHH@std@@QEAA@Upiecewise_construct_t@1@V?$tuple@$$QEAH@1@V?$tuple@$$V@1@@Z
	??$?0$$TH$0A@@?$pair@PEAH_J@std@@QEAA@$$QEA$$T$$QEAH@Z
	??$?0$$V@?$_Compressed_pair@U?$default_delete@$$BY0A@H@std@@PEAH$00@std@@QEAA@U_Zero_then_variadic_args_t@1@@Z
	??$?0$$V@?$_Compressed_pair@U?$default_delete@$$BY0A@VRAnsBitDecoder@draco@@@std@@PEAVRAnsBitDecoder@draco@@$00@std@@QEAA@U_Zero_then_variadic_args_t@1@@Z
	??$?0$$V@?$_Compressed_pair@U?$default_delete@$$BY0A@VRAnsBitEncoder@draco@@@std@@PEAVRAnsBitEncoder@draco@@$00@std@@QEAA@U_Zero_then_variadic_args_t@1@@Z
	??$?0$$V@?$_Compressed_pair@U?$default_delete@V?$PredictionSchemeDecoder@HV?$PredictionSchemeNormalOctahedronCanonicalizedDecodingTransform@H@draco@@@draco@@@std@@PEAV?$PredictionSchemeDecoder@HV?$PredictionSchemeNormalOctahedronCanonicalizedDecodingTransform@H@draco@@@draco@@$00@std@@QEAA@U_Zero_then_variadic_args_t@1@@Z
	??$?0$$V@?$_Compressed_pair@U?$default_delete@V?$PredictionSchemeDecoder@HV?$PredictionSchemeNormalOctahedronDecodingTransform@H@draco@@@draco@@@std@@PEAV?$PredictionSchemeDecoder@HV?$PredictionSchemeNormalOctahedronDecodingTransform@H@draco@@@draco@@$00@std@@QEAA@U_Zero_then_variadic_args_t@1@@Z
	??$?0$$V@?$_Compressed_pair@U?$default_delete@V?$PredictionSchemeDecoder@HV?$PredictionSchemeWrapDecodingTransform@HH@draco@@@draco@@@std@@PEAV?$PredictionSchemeDecoder@HV?$PredictionSchemeWrapDecodingTransform@HH@draco@@@draco@@$00@std@@QEAA@U_Zero_then_variadic_args_t@1@@Z
	??$?0$$V@?$_Compressed_pair@U?$default_delete@V?$PredictionSchemeEncoder@HV?$PredictionSchemeNormalOctahedronCanonicalizedEncodingTransform@H@draco@@@draco@@@std@@PEAV?$PredictionSchemeEncoder@HV?$PredictionSchemeNormalOctahedronCanonicalizedEncodingTransform@H@draco@@@draco@@$00@std@@QEAA@U_Zero_then_variadic_args_t@1@@Z
	??$?0$$V@?$_Compressed_pair@U?$default_delete@V?$PredictionSchemeEncoder@HV?$PredictionSchemeWrapEncodingTransform@HH@draco@@@draco@@@std@@PEAV?$PredictionSchemeEncoder@HV?$PredictionSchemeWrapEncodingTransform@HH@draco@@@draco@@$00@std@@QEAA@U_Zero_then_variadic_args_t@1@@Z
	??$?0$$V@?$_Compressed_pair@U?$default_delete@V?$PredictionSchemeTypedDecoderInterface@HH@draco@@@std@@PEAV?$PredictionSchemeTypedDecoderInterface@HH@draco@@$00@std@@QEAA@U_Zero_then_variadic_args_t@1@@Z
	??$?0$$V@?$_Compressed_pair@U?$default_delete@V?$PredictionSchemeTypedEncoderInterface@HH@draco@@@std@@PEAV?$PredictionSchemeTypedEncoderInterface@HH@draco@@$00@std@@QEAA@U_Zero_then_variadic_args_t@1@@Z
	??$?0$$V@?$_Compressed_pair@U?$default_delete@VAttributeTransformData@draco@@@std@@PEAVAttributeTransformData@draco@@$00@std@@QEAA@U_Zero_then_variadic_args_t@1@@Z
	??$?0$$V@?$_Compressed_pair@U?$default_delete@VAttributesDecoderInterface@draco@@@std@@PEAVAttributesDecoderInterface@draco@@$00@std@@QEAA@U_Zero_then_variadic_args_t@1@@Z
	??$?0$$V@?$_Compressed_pair@U?$default_delete@VBitEncoder@EncoderBuffer@draco@@@std@@PEAVBitEncoder@EncoderBuffer@draco@@$00@std@@QEAA@U_Zero_then_variadic_args_t@1@@Z
	??$?0$$V@?$_Compressed_pair@U?$default_delete@VCornerTable@draco@@@std@@PEAVCornerTable@draco@@$00@std@@QEAA@U_Zero_then_variadic_args_t@1@@Z
	??$?0$$V@?$_Compressed_pair@U?$default_delete@VDataBuffer@draco@@@std@@PEAVDataBuffer@draco@@$00@std@@QEAA@U_Zero_then_variadic_args_t@1@@Z
	??$?0$$V@?$_Compressed_pair@U?$default_delete@VFileReaderInterface@draco@@@std@@PEAVFileReaderInterface@draco@@$00@std@@QEAA@U_Zero_then_variadic_args_t@1@@Z
	??$?0$$V@?$_Compressed_pair@U?$default_delete@VFileWriterInterface@draco@@@std@@PEAVFileWriterInterface@draco@@$00@std@@QEAA@U_Zero_then_variadic_args_t@1@@Z
	??$?0$$V@?$_Compressed_pair@U?$default_delete@VGeometryMetadata@draco@@@std@@PEAVGeometryMetadata@draco@@$00@std@@QEAA@U_Zero_then_variadic_args_t@1@@Z
	??$?0$$V@?$_Compressed_pair@U?$default_delete@VMesh@draco@@@std@@PEAVMesh@draco@@$00@std@@QEAA@U_Zero_then_variadic_args_t@1@@Z
	??$?0$$V@?$_Compressed_pair@U?$default_delete@VMeshDecoder@draco@@@std@@PEAVMeshDecoder@draco@@$00@std@@QEAA@U_Zero_then_variadic_args_t@1@@Z
	??$?0$$V@?$_Compressed_pair@U?$default_delete@VMeshEdgebreakerDecoderImplInterface@draco@@@std@@PEAVMeshEdgebreakerDecoderImplInterface@draco@@$00@std@@QEAA@U_Zero_then_variadic_args_t@1@@Z
	??$?0$$V@?$_Compressed_pair@U?$default_delete@VMeshEdgebreakerEncoderImplInterface@draco@@@std@@PEAVMeshEdgebreakerEncoderImplInterface@draco@@$00@std@@QEAA@U_Zero_then_variadic_args_t@1@@Z
	??$?0$$V@?$_Compressed_pair@U?$default_delete@VMeshEncoder@draco@@@std@@PEAVMeshEncoder@draco@@$00@std@@QEAA@U_Zero_then_variadic_args_t@1@@Z
	??$?0$$V@?$_Compressed_pair@U?$default_delete@VMetadata@draco@@@std@@PEAVMetadata@draco@@$00@std@@QEAA@U_Zero_then_variadic_args_t@1@@Z
	??$?0$$V@?$_Compressed_pair@U?$default_delete@VPointAttribute@draco@@@std@@PEAVPointAttribute@draco@@$00@std@@QEAA@U_Zero_then_variadic_args_t@1@@Z
	??$?0$$V@?$_Compressed_pair@U?$default_delete@VPointCloud@draco@@@std@@PEAVPointCloud@draco@@$00@std@@QEAA@U_Zero_then_variadic_args_t@1@@Z
	??$?0$$V@?$_Compressed_pair@U?$default_delete@VPointCloudDecoder@draco@@@std@@PEAVPointCloudDecoder@draco@@$00@std@@QEAA@U_Zero_then_variadic_args_t@1@@Z
	??$?0$$V@?$_Compressed_pair@U?$default_delete@VPointCloudEncoder@draco@@@std@@PEAVPointCloudEncoder@draco@@$00@std@@QEAA@U_Zero_then_variadic_args_t@1@@Z
	??$?0$$V@?$_Compressed_pair@U?$default_delete@VPointsSequencer@draco@@@std@@PEAVPointsSequencer@draco@@$00@std@@QEAA@U_Zero_then_variadic_args_t@1@@Z
	??$?0$$V@?$_Compressed_pair@U?$default_delete@VSequentialAttributeDecoder@draco@@@std@@PEAVSequentialAttributeDecoder@draco@@$00@std@@QEAA@U_Zero_then_variadic_args_t@1@@Z
	??$?0$$V@?$_Compressed_pair@U?$default_delete@VSequentialAttributeEncoder@draco@@@std@@PEAVSequentialAttributeEncoder@draco@@$00@std@@QEAA@U_Zero_then_variadic_args_t@1@@Z
	??$?0$$V@?$_Compressed_pair@V?$allocator@C@std@@V?$_Vector_val@U?$_Simple_types@C@std@@@2@$00@std@@QEAA@U_Zero_then_variadic_args_t@1@@Z
	??$?0$$V@?$_Compressed_pair@V?$allocator@D@std@@V?$_String_val@U?$_Simple_types@D@std@@@2@$00@std@@QEAA@U_Zero_then_variadic_args_t@1@@Z
	??$?0$$V@?$_Compressed_pair@V?$allocator@D@std@@V?$_Vector_val@U?$_Simple_types@D@std@@@2@$00@std@@QEAA@U_Zero_then_variadic_args_t@1@@Z
	??$?0$$V@?$_Compressed_pair@V?$allocator@E@std@@V?$_Vector_val@U?$_Simple_types@E@std@@@2@$00@std@@QEAA@U_Zero_then_variadic_args_t@1@@Z
	??$?0$$V@?$_Compressed_pair@V?$allocator@H@std@@V?$_Vector_val@U?$_Simple_types@H@std@@@2@$00@std@@QEAA@U_Zero_then_variadic_args_t@1@@Z
	??$?0$$V@?$_Compressed_pair@V?$allocator@I@std@@V?$_Vector_val@U?$_Simple_types@I@std@@@2@$00@std@@QEAA@U_Zero_then_variadic_args_t@1@@Z
	??$?0$$V@?$_Compressed_pair@V?$allocator@M@std@@V?$_Vector_val@U?$_Simple_types@M@std@@@2@$00@std@@QEAA@U_Zero_then_variadic_args_t@1@@Z
	??$?0$$V@?$_Compressed_pair@V?$allocator@P6A?AV?$unique_ptr@VFileReaderInterface@draco@@U?$default_delete@VFileReaderInterface@draco@@@std@@@std@@AEBV?$basic_string@DU?$char_traits@D@std@@V?$allocator@D@2@@2@@Z@std@@V?$_Vector_val@U?$_Simple_types@P6A?AV?$unique_ptr@VFileReaderInterface@draco@@U?$default_delete@VFileReaderInterface@draco@@@std@@@std@@AEBV?$basic_string@DU?$char_traits@D@std@@V?$allocator@D@2@@2@@Z@std@@@2@$00@std@@QEAA@U_Zero_then_variadic_args_t@1@@Z
	??$?0$$V@?$_Compressed_pair@V?$allocator@P6A?AV?$unique_ptr@VFileWriterInterface@draco@@U?$default_delete@VFileWriterInterface@draco@@@std@@@std@@AEBV?$basic_string@DU?$char_traits@D@std@@V?$allocator@D@2@@2@@Z@std@@V?$_Vector_val@U?$_Simple_types@P6A?AV?$unique_ptr@VFileWriterInterface@draco@@U?$default_delete@VFileWriterInterface@draco@@@std@@@std@@AEBV?$basic_string@DU?$char_traits@D@std@@V?$allocator@D@2@@2@@Z@std@@@2@$00@std@@QEAA@U_Zero_then_variadic_args_t@1@@Z
	??$?0$$V@?$_Compressed_pair@V?$allocator@PEBVMeshAttributeCornerTable@draco@@@std@@V?$_Vector_val@U?$_Simple_types@PEBVMeshAttributeCornerTable@draco@@@std@@@2@$00@std@@QEAA@U_Zero_then_variadic_args_t@1@@Z
	??$?0$$V@?$_Compressed_pair@V?$allocator@PEBVPlyProperty@draco@@@std@@V?$_Vector_val@U?$_Simple_types@PEBVPlyProperty@draco@@@std@@@2@$00@std@@QEAA@U_Zero_then_variadic_args_t@1@@Z
	??$?0$$V@?$_Compressed_pair@V?$allocator@U?$EncodingStatus@V?$_Vector_iterator@V?$_Vector_val@U?$_Simple_types@V?$VectorD@I$02@draco@@@std@@@std@@@std@@@?$DynamicIntegerPointsKdTreeEncoder@$00@draco@@@std@@V?$_Deque_val@U?$_Deque_simple_types@U?$EncodingStatus@V?$_Vector_iterator@V?$_Vector_val@U?$_Simple_types@V?$VectorD@I$02@draco@@@std@@@std@@@std@@@?$DynamicIntegerPointsKdTreeEncoder@$00@draco@@@std@@@2@$00@std@@QEAA@U_Zero_then_variadic_args_t@1@@Z
	??$?0$$V@?$_Compressed_pair@V?$allocator@U?$EncodingStatus@V?$_Vector_iterator@V?$_Vector_val@U?$_Simple_types@V?$VectorD@I$02@draco@@@std@@@std@@@std@@@?$DynamicIntegerPointsKdTreeEncoder@$01@draco@@@std@@V?$_Deque_val@U?$_Deque_simple_types@U?$EncodingStatus@V?$_Vector_iterator@V?$_Vector_val@U?$_Simple_types@V?$VectorD@I$02@draco@@@std@@@std@@@std@@@?$DynamicIntegerPointsKdTreeEncoder@$01@draco@@@std@@@2@$00@std@@QEAA@U_Zero_then_variadic_args_t@1@@Z
	??$?0$$V@?$_Compressed_pair@V?$allocator@U?$EncodingStatus@V?$_Vector_iterator@V?$_Vector_val@U?$_Simple_types@V?$VectorD@I$02@draco@@@std@@@std@@@std@@@?$DynamicIntegerPointsKdTreeEncoder@$02@draco@@@std@@V?$_Deque_val@U?$_Deque_simple_types@U?$EncodingStatus@V?$_Vector_iterator@V?$_Vector_val@U?$_Simple_types@V?$VectorD@I$02@draco@@@std@@@std@@@std@@@?$DynamicIntegerPointsKdTreeEncoder@$02@draco@@@std@@@2@$00@std@@QEAA@U_Zero_then_variadic_args_t@1@@Z
	??$?0$$V@?$_Compressed_pair@V?$allocator@U?$EncodingStatus@V?$_Vector_iterator@V?$_Vector_val@U?$_Simple_types@V?$VectorD@I$02@draco@@@std@@@std@@@std@@@?$DynamicIntegerPointsKdTreeEncoder@$03@draco@@@std@@V?$_Deque_val@U?$_Deque_simple_types@U?$EncodingStatus@V?$_Vector_iterator@V?$_Vector_val@U?$_Simple_types@V?$VectorD@I$02@draco@@@std@@@std@@@std@@@?$DynamicIntegerPointsKdTreeEncoder@$03@draco@@@std@@@2@$00@std@@QEAA@U_Zero_then_variadic_args_t@1@@Z
	??$?0$$V@?$_Compressed_pair@V?$allocator@U?$EncodingStatus@V?$_Vector_iterator@V?$_Vector_val@U?$_Simple_types@V?$VectorD@I$02@draco@@@std@@@std@@@std@@@?$DynamicIntegerPointsKdTreeEncoder@$04@draco@@@std@@V?$_Deque_val@U?$_Deque_simple_types@U?$EncodingStatus@V?$_Vector_iterator@V?$_Vector_val@U?$_Simple_types@V?$VectorD@I$02@draco@@@std@@@std@@@std@@@?$DynamicIntegerPointsKdTreeEncoder@$04@draco@@@std@@@2@$00@std@@QEAA@U_Zero_then_variadic_args_t@1@@Z
	??$?0$$V@?$_Compressed_pair@V?$allocator@U?$EncodingStatus@V?$_Vector_iterator@V?$_Vector_val@U?$_Simple_types@V?$VectorD@I$02@draco@@@std@@@std@@@std@@@?$DynamicIntegerPointsKdTreeEncoder@$05@draco@@@std@@V?$_Deque_val@U?$_Deque_simple_types@U?$EncodingStatus@V?$_Vector_iterator@V?$_Vector_val@U?$_Simple_types@V?$VectorD@I$02@draco@@@std@@@std@@@std@@@?$DynamicIntegerPointsKdTreeEncoder@$05@draco@@@std@@@2@$00@std@@QEAA@U_Zero_then_variadic_args_t@1@@Z
	??$?0$$V@?$_Compressed_pair@V?$allocator@U?$EncodingStatus@V?$_Vector_iterator@V?$_Vector_val@U?$_Simple_types@V?$VectorD@I$02@draco@@@std@@@std@@@std@@@?$DynamicIntegerPointsKdTreeEncoder@$0A@@draco@@@std@@V?$_Deque_val@U?$_Deque_simple_types@U?$EncodingStatus@V?$_Vector_iterator@V?$_Vector_val@U?$_Simple_types@V?$VectorD@I$02@draco@@@std@@@std@@@std@@@?$DynamicIntegerPointsKdTreeEncoder@$0A@@draco@@@std@@@2@$00@std@@QEAA@U_Zero_then_variadic_args_t@1@@Z
	??$?0$$V@?$_Compressed_pair@V?$allocator@U?$EncodingStatus@VPointDVectorIterator@?$PointDVector@I@draco@@@?$DynamicIntegerPointsKdTreeEncoder@$00@draco@@@std@@V?$_Deque_val@U?$_Deque_simple_types@U?$EncodingStatus@VPointDVectorIterator@?$PointDVector@I@draco@@@?$DynamicIntegerPointsKdTreeEncoder@$00@draco@@@std@@@2@$00@std@@QEAA@U_Zero_then_variadic_args_t@1@@Z
	??$?0$$V@?$_Compressed_pair@V?$allocator@U?$EncodingStatus@VPointDVectorIterator@?$PointDVector@I@draco@@@?$DynamicIntegerPointsKdTreeEncoder@$01@draco@@@std@@V?$_Deque_val@U?$_Deque_simple_types@U?$EncodingStatus@VPointDVectorIterator@?$PointDVector@I@draco@@@?$DynamicIntegerPointsKdTreeEncoder@$01@draco@@@std@@@2@$00@std@@QEAA@U_Zero_then_variadic_args_t@1@@Z
	??$?0$$V@?$_Compressed_pair@V?$allocator@U?$EncodingStatus@VPointDVectorIterator@?$PointDVector@I@draco@@@?$DynamicIntegerPointsKdTreeEncoder@$02@draco@@@std@@V?$_Deque_val@U?$_Deque_simple_types@U?$EncodingStatus@VPointDVectorIterator@?$PointDVector@I@draco@@@?$DynamicIntegerPointsKdTreeEncoder@$02@draco@@@std@@@2@$00@std@@QEAA@U_Zero_then_variadic_args_t@1@@Z
	??$?0$$V@?$_Compressed_pair@V?$allocator@U?$EncodingStatus@VPointDVectorIterator@?$PointDVector@I@draco@@@?$DynamicIntegerPointsKdTreeEncoder@$03@draco@@@std@@V?$_Deque_val@U?$_Deque_simple_types@U?$EncodingStatus@VPointDVectorIterator@?$PointDVector@I@draco@@@?$DynamicIntegerPointsKdTreeEncoder@$03@draco@@@std@@@2@$00@std@@QEAA@U_Zero_then_variadic_args_t@1@@Z
	??$?0$$V@?$_Compressed_pair@V?$allocator@U?$EncodingStatus@VPointDVectorIterator@?$PointDVector@I@draco@@@?$DynamicIntegerPointsKdTreeEncoder@$04@draco@@@std@@V?$_Deque_val@U?$_Deque_simple_types@U?$EncodingStatus@VPointDVectorIterator@?$PointDVector@I@draco@@@?$DynamicIntegerPointsKdTreeEncoder@$04@draco@@@std@@@2@$00@std@@QEAA@U_Zero_then_variadic_args_t@1@@Z
	??$?0$$V@?$_Compressed_pair@V?$allocator@U?$EncodingStatus@VPointDVectorIterator@?$PointDVector@I@draco@@@?$DynamicIntegerPointsKdTreeEncoder@$05@draco@@@std@@V?$_Deque_val@U?$_Deque_simple_types@U?$EncodingStatus@VPointDVectorIterator@?$PointDVector@I@draco@@@?$DynamicIntegerPointsKdTreeEncoder@$05@draco@@@std@@@2@$00@std@@QEAA@U_Zero_then_variadic_args_t@1@@Z
	??$?0$$V@?$_Compressed_pair@V?$allocator@U?$EncodingStatus@VPointDVectorIterator@?$PointDVector@I@draco@@@?$DynamicIntegerPointsKdTreeEncoder@$0A@@draco@@@std@@V?$_Deque_val@U?$_Deque_simple_types@U?$EncodingStatus@VPointDVectorIterator@?$PointDVector@I@draco@@@?$DynamicIntegerPointsKdTreeEncoder@$0A@@draco@@@std@@@2@$00@std@@QEAA@U_Zero_then_variadic_args_t@1@@Z
	??$?0$$V@?$_Compressed_pair@V?$allocator@U?$_Tree_node@U?$pair@$$CBHVOptions@draco@@@std@@PEAX@std@@@std@@V?$_Tree_val@U?$_Tree_simple_types@U?$pair@$$CBHVOptions@draco@@@std@@@std@@@2@$00@std@@QEAA@U_Zero_then_variadic_args_t@1@@Z
	??$?0$$V@?$_Compressed_pair@V?$allocator@U?$_Tree_node@U?$pair@$$CBV?$IndexType@IUAttributeValueIndex_tag_type_@draco@@@draco@@V?$IndexType@IUPointIndex_tag_type_@draco@@@2@@std@@PEAX@std@@@std@@V?$_Tree_val@U?$_Tree_simple_types@U?$pair@$$CBV?$IndexType@IUAttributeValueIndex_tag_type_@draco@@@draco@@V?$IndexType@IUPointIndex_tag_type_@draco@@@2@@std@@@std@@@2@$00@std@@QEAA@U_Zero_then_variadic_args_t@1@@Z
	??$?0$$V@?$_Compressed_pair@V?$allocator@U?$_Tree_node@U?$pair@$$CBV?$basic_string@DU?$char_traits@D@std@@V?$allocator@D@2@@std@@H@std@@PEAX@std@@@std@@V?$_Tree_val@U?$_Tree_simple_types@U?$pair@$$CBV?$basic_string@DU?$char_traits@D@std@@V?$allocator@D@2@@std@@H@std@@@std@@@2@$00@std@@QEAA@U_Zero_then_variadic_args_t@1@@Z
	??$?0$$V@?$_Compressed_pair@V?$allocator@U?$_Tree_node@U?$pair@$$CBV?$basic_string@DU?$char_traits@D@std@@V?$allocator@D@2@@std@@V12@@std@@PEAX@std@@@std@@V?$_Tree_val@U?$_Tree_simple_types@U?$pair@$$CBV?$basic_string@DU?$char_traits@D@std@@V?$allocator@D@2@@std@@V12@@std@@@std@@@2@$00@std@@QEAA@U_Zero_then_variadic_args_t@1@@Z
	??$?0$$V@?$_Compressed_pair@V?$allocator@U?$_Tree_node@U?$pair@$$CBV?$basic_string@DU?$char_traits@D@std@@V?$allocator@D@2@@std@@V?$unique_ptr@VMetadata@draco@@U?$default_delete@VMetadata@draco@@@std@@@2@@std@@PEAX@std@@@std@@V?$_Tree_val@U?$_Tree_simple_types@U?$pair@$$CBV?$basic_string@DU?$char_traits@D@std@@V?$allocator@D@2@@std@@V?$unique_ptr@VMetadata@draco@@U?$default_delete@VMetadata@draco@@@std@@@2@@std@@@std@@@2@$00@std@@QEAA@U_Zero_then_variadic_args_t@1@@Z
	??$?0$$V@?$_Compressed_pair@V?$allocator@U?$_Tree_node@U?$pair@$$CBV?$basic_string@DU?$char_traits@D@std@@V?$allocator@D@2@@std@@VEntryValue@draco@@@std@@PEAX@std@@@std@@V?$_Tree_val@U?$_Tree_simple_types@U?$pair@$$CBV?$basic_string@DU?$char_traits@D@std@@V?$allocator@D@2@@std@@VEntryValue@draco@@@std@@@std@@@2@$00@std@@QEAA@U_Zero_then_variadic_args_t@1@@Z
	??$?0$$V@?$_Compressed_pair@V?$allocator@U?$_Tree_node@U?$pair@$$CBW4Type@GeometryAttribute@draco@@VOptions@3@@std@@PEAX@std@@@std@@V?$_Tree_val@U?$_Tree_simple_types@U?$pair@$$CBW4Type@GeometryAttribute@draco@@VOptions@3@@std@@@std@@@2@$00@std@@QEAA@U_Zero_then_variadic_args_t@1@@Z
	??$?0$$V@?$_Compressed_pair@V?$allocator@U?$pair@V?$IndexType@IUVertexIndex_tag_type_@draco@@@draco@@V?$IndexType@IUCornerIndex_tag_type_@draco@@@2@@std@@@std@@V?$_Vector_val@U?$_Simple_types@U?$pair@V?$IndexType@IUVertexIndex_tag_type_@draco@@@draco@@V?$IndexType@IUCornerIndex_tag_type_@draco@@@2@@std@@@std@@@2@$00@std@@QEAA@U_Zero_then_variadic_args_t@1@@Z
	??$?0$$V@?$_Compressed_pair@V?$allocator@UAttributeData@?$MeshEdgebreakerDecoderImpl@VMeshEdgebreakerTraversalDecoder@draco@@@draco@@@std@@V?$_Vector_val@U?$_Simple_types@UAttributeData@?$MeshEdgebreakerDecoderImpl@VMeshEdgebreakerTraversalDecoder@draco@@@draco@@@std@@@2@$00@std@@QEAA@U_Zero_then_variadic_args_t@1@@Z
	??$?0$$V@?$_Compressed_pair@V?$allocator@UAttributeData@?$MeshEdgebreakerDecoderImpl@VMeshEdgebreakerTraversalPredictiveDecoder@draco@@@draco@@@std@@V?$_Vector_val@U?$_Simple_types@UAttributeData@?$MeshEdgebreakerDecoderImpl@VMeshEdgebreakerTraversalPredictiveDecoder@draco@@@draco@@@std@@@2@$00@std@@QEAA@U_Zero_then_variadic_args_t@1@@Z
	??$?0$$V@?$_Compressed_pair@V?$allocator@UAttributeData@?$MeshEdgebreakerDecoderImpl@VMeshEdgebreakerTraversalValenceDecoder@draco@@@draco@@@std@@V?$_Vector_val@U?$_Simple_types@UAttributeData@?$MeshEdgebreakerDecoderImpl@VMeshEdgebreakerTraversalValenceDecoder@draco@@@draco@@@std@@@2@$00@std@@QEAA@U_Zero_then_variadic_args_t@1@@Z
	??$?0$$V@?$_Compressed_pair@V?$allocator@UAttributeData@?$MeshEdgebreakerEncoderImpl@VMeshEdgebreakerTraversalEncoder@draco@@@draco@@@std@@V?$_Vector_val@U?$_Simple_types@UAttributeData@?$MeshEdgebreakerEncoderImpl@VMeshEdgebreakerTraversalEncoder@draco@@@draco@@@std@@@2@$00@std@@QEAA@U_Zero_then_variadic_args_t@1@@Z
	??$?0$$V@?$_Compressed_pair@V?$allocator@UAttributeData@?$MeshEdgebreakerEncoderImpl@VMeshEdgebreakerTraversalPredictiveEncoder@draco@@@draco@@@std@@V?$_Vector_val@U?$_Simple_types@UAttributeData@?$MeshEdgebreakerEncoderImpl@VMeshEdgebreakerTraversalPredictiveEncoder@draco@@@draco@@@std@@@2@$00@std@@QEAA@U_Zero_then_variadic_args_t@1@@Z
	??$?0$$V@?$_Compressed_pair@V?$allocator@UAttributeData@?$MeshEdgebreakerEncoderImpl@VMeshEdgebreakerTraversalValenceEncoder@draco@@@draco@@@std@@V?$_Vector_val@U?$_Simple_types@UAttributeData@?$MeshEdgebreakerEncoderImpl@VMeshEdgebreakerTraversalValenceEncoder@draco@@@draco@@@std@@@2@$00@std@@QEAA@U_Zero_then_variadic_args_t@1@@Z
	??$?0$$V@?$_Compressed_pair@V?$allocator@UAttributeData@Mesh@draco@@@std@@V?$_Vector_val@U?$_Simple_types@UAttributeData@Mesh@draco@@@std@@@2@$00@std@@QEAA@U_Zero_then_variadic_args_t@1@@Z
	??$?0$$V@?$_Compressed_pair@V?$allocator@UDecodingStatus@?$DynamicIntegerPointsKdTreeDecoder@$00@draco@@@std@@V?$_Deque_val@U?$_Deque_simple_types@UDecodingStatus@?$DynamicIntegerPointsKdTreeDecoder@$00@draco@@@std@@@2@$00@std@@QEAA@U_Zero_then_variadic_args_t@1@@Z
	??$?0$$V@?$_Compressed_pair@V?$allocator@UDecodingStatus@?$DynamicIntegerPointsKdTreeDecoder@$01@draco@@@std@@V?$_Deque_val@U?$_Deque_simple_types@UDecodingStatus@?$DynamicIntegerPointsKdTreeDecoder@$01@draco@@@std@@@2@$00@std@@QEAA@U_Zero_then_variadic_args_t@1@@Z
	??$?0$$V@?$_Compressed_pair@V?$allocator@UDecodingStatus@?$DynamicIntegerPointsKdTreeDecoder@$02@draco@@@std@@V?$_Deque_val@U?$_Deque_simple_types@UDecodingStatus@?$DynamicIntegerPointsKdTreeDecoder@$02@draco@@@std@@@2@$00@std@@QEAA@U_Zero_then_variadic_args_t@1@@Z
	??$?0$$V@?$_Compressed_pair@V?$allocator@UDecodingStatus@?$DynamicIntegerPointsKdTreeDecoder@$03@draco@@@std@@V?$_Deque_val@U?$_Deque_simple_types@UDecodingStatus@?$DynamicIntegerPointsKdTreeDecoder@$03@draco@@@std@@@2@$00@std@@QEAA@U_Zero_then_variadic_args_t@1@@Z
	??$?0$$V@?$_Compressed_pair@V?$allocator@UDecodingStatus@?$DynamicIntegerPointsKdTreeDecoder@$04@draco@@@std@@V?$_Deque_val@U?$_Deque_simple_types@UDecodingStatus@?$DynamicIntegerPointsKdTreeDecoder@$04@draco@@@std@@@2@$00@std@@QEAA@U_Zero_then_variadic_args_t@1@@Z
	??$?0$$V@?$_Compressed_pair@V?$allocator@UDecodingStatus@?$DynamicIntegerPointsKdTreeDecoder@$05@draco@@@std@@V?$_Deque_val@U?$_Deque_simple_types@UDecodingStatus@?$DynamicIntegerPointsKdTreeDecoder@$05@draco@@@std@@@2@$00@std@@QEAA@U_Zero_then_variadic_args_t@1@@Z
	??$?0$$V@?$_Compressed_pair@V?$allocator@UDecodingStatus@?$DynamicIntegerPointsKdTreeDecoder@$0A@@draco@@@std@@V?$_Deque_val@U?$_Deque_simple_types@UDecodingStatus@?$DynamicIntegerPointsKdTreeDecoder@$0A@@draco@@@std@@@2@$00@std@@QEAA@U_Zero_then_variadic_args_t@1@@Z
	??$?0$$V@?$_Compressed_pair@V?$allocator@UHoleEventData@draco@@@std@@V?$_Vector_val@U?$_Simple_types@UHoleEventData@draco@@@std@@@2@$00@std@@QEAA@U_Zero_then_variadic_args_t@1@@Z
	??$?0$$V@?$_Compressed_pair@V?$allocator@UTopologySplitEventData@draco@@@std@@V?$_Vector_val@U?$_Simple_types@UTopologySplitEventData@draco@@@std@@@2@$00@std@@QEAA@U_Zero_then_variadic_args_t@1@@Z
	??$?0$$V@?$_Compressed_pair@V?$allocator@Urans_sym@draco@@@std@@V?$_Vector_val@U?$_Simple_types@Urans_sym@draco@@@std@@@2@$00@std@@QEAA@U_Zero_then_variadic_args_t@1@@Z
	??$?0$$V@?$_Compressed_pair@V?$allocator@V?$IndexType@IUAttributeValueIndex_tag_type_@draco@@@draco@@@std@@V?$_Vector_val@U?$_Simple_types@V?$IndexType@IUAttributeValueIndex_tag_type_@draco@@@draco@@@std@@@2@$00@std@@QEAA@U_Zero_then_variadic_args_t@1@@Z
	??$?0$$V@?$_Compressed_pair@V?$allocator@V?$IndexType@IUCornerIndex_tag_type_@draco@@@draco@@@std@@V?$_Vector_val@U?$_Simple_types@V?$IndexType@IUCornerIndex_tag_type_@draco@@@draco@@@std@@@2@$00@std@@QEAA@U_Zero_then_variadic_args_t@1@@Z
	??$?0$$V@?$_Compressed_pair@V?$allocator@V?$IndexType@IUFaceIndex_tag_type_@draco@@@draco@@@std@@V?$_Vector_val@U?$_Simple_types@V?$IndexType@IUFaceIndex_tag_type_@draco@@@draco@@@std@@@2@$00@std@@QEAA@U_Zero_then_variadic_args_t@1@@Z
	??$?0$$V@?$_Compressed_pair@V?$allocator@V?$IndexType@IUPointIndex_tag_type_@draco@@@draco@@@std@@V?$_Vector_val@U?$_Simple_types@V?$IndexType@IUPointIndex_tag_type_@draco@@@draco@@@std@@@2@$00@std@@QEAA@U_Zero_then_variadic_args_t@1@@Z
	??$?0$$V@?$_Compressed_pair@V?$allocator@V?$IndexType@IUVertexIndex_tag_type_@draco@@@draco@@@std@@V?$_Vector_val@U?$_Simple_types@V?$IndexType@IUVertexIndex_tag_type_@draco@@@draco@@@std@@@2@$00@std@@QEAA@U_Zero_then_variadic_args_t@1@@Z
	??$?0$$V@?$_Compressed_pair@V?$allocator@V?$VectorD@I$02@draco@@@std@@V?$_Vector_val@U?$_Simple_types@V?$VectorD@I$02@draco@@@std@@@2@$00@std@@QEAA@U_Zero_then_variadic_args_t@1@@Z
	??$?0$$V@?$_Compressed_pair@V?$allocator@V?$array@V?$IndexType@IUPointIndex_tag_type_@draco@@@draco@@$02@std@@@std@@V?$_Vector_val@U?$_Simple_types@V?$array@V?$IndexType@IUPointIndex_tag_type_@draco@@@draco@@$02@std@@@std@@@2@$00@std@@QEAA@U_Zero_then_variadic_args_t@1@@Z
	??$?0$$V@?$_Compressed_pair@V?$allocator@V?$basic_string@DU?$char_traits@D@std@@V?$allocator@D@2@@std@@@std@@V?$_Vector_val@U?$_Simple_types@V?$basic_string@DU?$char_traits@D@std@@V?$allocator@D@2@@std@@@std@@@2@$00@std@@QEAA@U_Zero_then_variadic_args_t@1@@Z
	??$?0$$V@?$_Compressed_pair@V?$allocator@V?$unique_ptr@V?$PlyPropertyReader@E@draco@@U?$default_delete@V?$PlyPropertyReader@E@draco@@@std@@@std@@@std@@V?$_Vector_val@U?$_Simple_types@V?$unique_ptr@V?$PlyPropertyReader@E@draco@@U?$default_delete@V?$PlyPropertyReader@E@draco@@@std@@@std@@@std@@@2@$00@std@@QEAA@U_Zero_then_variadic_args_t@1@@Z
	??$?0$$V@?$_Compressed_pair@V?$allocator@V?$unique_ptr@V?$PlyPropertyReader@H@draco@@U?$default_delete@V?$PlyPropertyReader@H@draco@@@std@@@std@@@std@@V?$_Vector_val@U?$_Simple_types@V?$unique_ptr@V?$PlyPropertyReader@H@draco@@U?$default_delete@V?$PlyPropertyReader@H@draco@@@std@@@std@@@std@@@2@$00@std@@QEAA@U_Zero_then_variadic_args_t@1@@Z
	??$?0$$V@?$_Compressed_pair@V?$allocator@V?$unique_ptr@V?$PlyPropertyReader@M@draco@@U?$default_delete@V?$PlyPropertyReader@M@draco@@@std@@@std@@@std@@V?$_Vector_val@U?$_Simple_types@V?$unique_ptr@V?$PlyPropertyReader@M@draco@@U?$default_delete@V?$PlyPropertyReader@M@draco@@@std@@@std@@@std@@@2@$00@std@@QEAA@U_Zero_then_variadic_args_t@1@@Z
	??$?0$$V@?$_Compressed_pair@V?$allocator@V?$unique_ptr@VAttributeMetadata@draco@@U?$default_delete@VAttributeMetadata@draco@@@std@@@std@@@std@@V?$_Vector_val@U?$_Simple_types@V?$unique_ptr@VAttributeMetadata@draco@@U?$default_delete@VAttributeMetadata@draco@@@std@@@std@@@std@@@2@$00@std@@QEAA@U_Zero_then_variadic_args_t@1@@Z
	??$?0$$V@?$_Compressed_pair@V?$allocator@V?$unique_ptr@VAttributesDecoderInterface@draco@@U?$default_delete@VAttributesDecoderInterface@draco@@@std@@@std@@@std@@V?$_Vector_val@U?$_Simple_types@V?$unique_ptr@VAttributesDecoderInterface@draco@@U?$default_delete@VAttributesDecoderInterface@draco@@@std@@@std@@@std@@@2@$00@std@@QEAA@U_Zero_then_variadic_args_t@1@@Z
	??$?0$$V@?$_Compressed_pair@V?$allocator@V?$unique_ptr@VAttributesEncoder@draco@@U?$default_delete@VAttributesEncoder@draco@@@std@@@std@@@std@@V?$_Vector_val@U?$_Simple_types@V?$unique_ptr@VAttributesEncoder@draco@@U?$default_delete@VAttributesEncoder@draco@@@std@@@std@@@std@@@2@$00@std@@QEAA@U_Zero_then_variadic_args_t@1@@Z
	??$?0$$V@?$_Compressed_pair@V?$allocator@V?$unique_ptr@VPointAttribute@draco@@U?$default_delete@VPointAttribute@draco@@@std@@@std@@@std@@V?$_Vector_val@U?$_Simple_types@V?$unique_ptr@VPointAttribute@draco@@U?$default_delete@VPointAttribute@draco@@@std@@@std@@@std@@@2@$00@std@@QEAA@U_Zero_then_variadic_args_t@1@@Z
	??$?0$$V@?$_Compressed_pair@V?$allocator@V?$unique_ptr@VSequentialAttributeDecoder@draco@@U?$default_delete@VSequentialAttributeDecoder@draco@@@std@@@std@@@std@@V?$_Vector_val@U?$_Simple_types@V?$unique_ptr@VSequentialAttributeDecoder@draco@@U?$default_delete@VSequentialAttributeDecoder@draco@@@std@@@std@@@std@@@2@$00@std@@QEAA@U_Zero_then_variadic_args_t@1@@Z
	??$?0$$V@?$_Compressed_pair@V?$allocator@V?$unique_ptr@VSequentialAttributeEncoder@draco@@U?$default_delete@VSequentialAttributeEncoder@draco@@@std@@@std@@@std@@V?$_Vector_val@U?$_Simple_types@V?$unique_ptr@VSequentialAttributeEncoder@draco@@U?$default_delete@VSequentialAttributeEncoder@draco@@@std@@@std@@@std@@@2@$00@std@@QEAA@U_Zero_then_variadic_args_t@1@@Z
	??$?0$$V@?$_Compressed_pair@V?$allocator@V?$vector@IV?$allocator@I@std@@@std@@@std@@V?$_Vector_val@U?$_Simple_types@V?$vector@IV?$allocator@I@std@@@std@@@std@@@2@$00@std@@QEAA@U_Zero_then_variadic_args_t@1@@Z
	??$?0$$V@?$_Compressed_pair@V?$allocator@VAttributeQuantizationTransform@draco@@@std@@V?$_Vector_val@U?$_Simple_types@VAttributeQuantizationTransform@draco@@@std@@@2@$00@std@@QEAA@U_Zero_then_variadic_args_t@1@@Z
	??$?0$$V@?$_Compressed_pair@V?$allocator@VPlyElement@draco@@@std@@V?$_Vector_val@U?$_Simple_types@VPlyElement@draco@@@std@@@2@$00@std@@QEAA@U_Zero_then_variadic_args_t@1@@Z
	??$?0$$V@?$_Compressed_pair@V?$allocator@VPlyProperty@draco@@@std@@V?$_Vector_val@U?$_Simple_types@VPlyProperty@draco@@@std@@@2@$00@std@@QEAA@U_Zero_then_variadic_args_t@1@@Z
	??$?0$$V@?$_Compressed_pair@V?$allocator@W4EdgebreakerTopologyBitPattern@draco@@@std@@V?$_Vector_val@U?$_Simple_types@W4EdgebreakerTopologyBitPattern@draco@@@std@@@2@$00@std@@QEAA@U_Zero_then_variadic_args_t@1@@Z
	??$?0$$V@?$_Compressed_pair@V?$allocator@_J@std@@V?$_Vector_val@U?$_Simple_types@_J@std@@@2@$00@std@@QEAA@U_Zero_then_variadic_args_t@1@@Z
	??$?0$$V@?$_Compressed_pair@V?$allocator@_K@std@@V?$_Vector_val@U?$_Simple_types@_K@std@@@2@$00@std@@QEAA@U_Zero_then_variadic_args_t@1@@Z
	??$?0AEAI@?$_Tuple_val@I@std@@QEAA@AEAI@Z
	??$?0AEAPEAC@?$_Compressed_pair@U?$default_delete@$$BY0A@C@std@@PEAC$00@std@@QEAA@U_Zero_then_variadic_args_t@1@AEAPEAC@Z
	??$?0AEAPEAE@?$_Compressed_pair@U?$default_delete@$$BY0A@E@std@@PEAE$00@std@@QEAA@U_Zero_then_variadic_args_t@1@AEAPEAE@Z
	??$?0AEAPEAF@?$_Compressed_pair@U?$default_delete@$$BY0A@F@std@@PEAF$00@std@@QEAA@U_Zero_then_variadic_args_t@1@AEAPEAF@Z
	??$?0AEAPEAG@?$_Compressed_pair@U?$default_delete@$$BY0A@G@std@@PEAG$00@std@@QEAA@U_Zero_then_variadic_args_t@1@AEAPEAG@Z
	??$?0AEAPEAH@?$_Compressed_pair@U?$default_delete@$$BY0A@H@std@@PEAH$00@std@@QEAA@U_Zero_then_variadic_args_t@1@AEAPEAH@Z
	??$?0AEAPEAI@?$_Compressed_pair@U?$default_delete@$$BY0A@I@std@@PEAI$00@std@@QEAA@U_Zero_then_variadic_args_t@1@AEAPEAI@Z
	??$?0AEAPEAM@?$_Compressed_pair@U?$default_delete@$$BY0A@M@std@@PEAM$00@std@@QEAA@U_Zero_then_variadic_args_t@1@AEAPEAM@Z
	??$?0AEAPEAU?$_List_node@U?$pair@$$CBHH@std@@PEAX@std@@_N$0A@@?$pair@PEAU?$_List_node@U?$pair@$$CBHH@std@@PEAX@std@@_N@std@@QEAA@AEAPEAU?$_List_node@U?$pair@$$CBHH@std@@PEAX@1@$$QEA_N@Z
	??$?0AEAPEAU?$_List_node@U?$pair@$$CBHV?$IndexType@IUCornerIndex_tag_type_@draco@@@draco@@@std@@PEAX@std@@_N$0A@@?$pair@PEAU?$_List_node@U?$pair@$$CBHV?$IndexType@IUCornerIndex_tag_type_@draco@@@draco@@@std@@PEAX@std@@_N@std@@QEAA@AEAPEAU?$_List_node@U?$pair@$$CBHV?$IndexType@IUCornerIndex_tag_type_@draco@@@draco@@@std@@PEAX@1@$$QEA_N@Z
	??$?0AEAPEAU?$_List_node@U?$pair@$$CBHV?$basic_string@DU?$char_traits@D@std@@V?$allocator@D@2@@std@@@std@@PEAX@std@@_N$0A@@?$pair@PEAU?$_List_node@U?$pair@$$CBHV?$basic_string@DU?$char_traits@D@std@@V?$allocator@D@2@@std@@@std@@PEAX@std@@_N@std@@QEAA@AEAPEAU?$_List_node@U?$pair@$$CBHV?$basic_string@DU?$char_traits@D@std@@V?$allocator@D@2@@std@@@std@@PEAX@1@$$QEA_N@Z
	??$?0AEAPEAU?$_List_node@U?$pair@$$CBV?$basic_string@DU?$char_traits@D@std@@V?$allocator@D@2@@std@@H@std@@PEAX@std@@_N$0A@@?$pair@PEAU?$_List_node@U?$pair@$$CBV?$basic_string@DU?$char_traits@D@std@@V?$allocator@D@2@@std@@H@std@@PEAX@std@@_N@std@@QEAA@AEAPEAU?$_List_node@U?$pair@$$CBV?$basic_string@DU?$char_traits@D@std@@V?$allocator@D@2@@std@@H@std@@PEAX@1@$$QEA_N@Z
	??$?0AEAPEAU?$_Tree_node@U?$pair@$$CBHVOptions@draco@@@std@@PEAX@std@@_N$0A@@?$pair@PEAU?$_Tree_node@U?$pair@$$CBHVOptions@draco@@@std@@PEAX@std@@_N@std@@QEAA@AEAPEAU?$_Tree_node@U?$pair@$$CBHVOptions@draco@@@std@@PEAX@1@$$QEA_N@Z
	??$?0AEAPEAU?$_Tree_node@U?$pair@$$CBV?$IndexType@IUAttributeValueIndex_tag_type_@draco@@@draco@@V?$IndexType@IUPointIndex_tag_type_@draco@@@2@@std@@PEAX@std@@_N$0A@@?$pair@PEAU?$_Tree_node@U?$pair@$$CBV?$IndexType@IUAttributeValueIndex_tag_type_@draco@@@draco@@V?$IndexType@IUPointIndex_tag_type_@draco@@@2@@std@@PEAX@std@@_N@std@@QEAA@AEAPEAU?$_Tree_node@U?$pair@$$CBV?$IndexType@IUAttributeValueIndex_tag_type_@draco@@@draco@@V?$IndexType@IUPointIndex_tag_type_@draco@@@2@@std@@PEAX@1@$$QEA_N@Z
	??$?0AEAPEAU?$_Tree_node@U?$pair@$$CBV?$basic_string@DU?$char_traits@D@std@@V?$allocator@D@2@@std@@VEntryValue@draco@@@std@@PEAX@std@@_N$0A@@?$pair@PEAU?$_Tree_node@U?$pair@$$CBV?$basic_string@DU?$char_traits@D@std@@V?$allocator@D@2@@std@@VEntryValue@draco@@@std@@PEAX@std@@_N@std@@QEAA@AEAPEAU?$_Tree_node@U?$pair@$$CBV?$basic_string@DU?$char_traits@D@std@@V?$allocator@D@2@@std@@VEntryValue@draco@@@std@@PEAX@1@$$QEA_N@Z
	??$?0AEAPEAU?$_Tree_node@U?$pair@$$CBW4Type@GeometryAttribute@draco@@VOptions@3@@std@@PEAX@std@@_N$0A@@?$pair@PEAU?$_Tree_node@U?$pair@$$CBW4Type@GeometryAttribute@draco@@VOptions@3@@std@@PEAX@std@@_N@std@@QEAA@AEAPEAU?$_Tree_node@U?$pair@$$CBW4Type@GeometryAttribute@draco@@VOptions@3@@std@@PEAX@1@$$QEA_N@Z
	??$?0AEAPEAV?$IndexType@IUFaceIndex_tag_type_@draco@@@draco@@AEAPEAV01@$0A@@?$pair@PEAV?$IndexType@IUFaceIndex_tag_type_@draco@@@draco@@PEAV12@@std@@QEAA@AEAPEAV?$IndexType@IUFaceIndex_tag_type_@draco@@@draco@@0@Z
	??$?0AEAPEAV?$MeshTraversalSequencer@V?$DepthFirstTraverser@VCornerTable@draco@@V?$MeshAttributeIndicesEncodingObserver@VCornerTable@draco@@@2@@draco@@@draco@@@?$_Compressed_pair@U?$default_delete@V?$MeshTraversalSequencer@V?$DepthFirstTraverser@VCornerTable@draco@@V?$MeshAttributeIndicesEncodingObserver@VCornerTable@draco@@@2@@draco@@@draco@@@std@@PEAV?$MeshTraversalSequencer@V?$DepthFirstTraverser@VCornerTable@draco@@V?$MeshAttributeIndicesEncodingObserver@VCornerTable@draco@@@2@@draco@@@draco@@$00@std@@QEAA@U_Zero_then_variadic_args_t@1@AEAPEAV?$MeshTraversalSequencer@V?$DepthFirstTraverser@VCornerTable@draco@@V?$MeshAttributeIndicesEncodingObserver@VCornerTable@draco@@@2@@draco@@@draco@@@Z
	??$?0AEAPEAV?$MeshTraversalSequencer@V?$DepthFirstTraverser@VMeshAttributeCornerTable@draco@@V?$MeshAttributeIndicesEncodingObserver@VMeshAttributeCornerTable@draco@@@2@@draco@@@draco@@@?$_Compressed_pair@U?$default_delete@V?$MeshTraversalSequencer@V?$DepthFirstTraverser@VMeshAttributeCornerTable@draco@@V?$MeshAttributeIndicesEncodingObserver@VMeshAttributeCornerTable@draco@@@2@@draco@@@draco@@@std@@PEAV?$MeshTraversalSequencer@V?$DepthFirstTraverser@VMeshAttributeCornerTable@draco@@V?$MeshAttributeIndicesEncodingObserver@VMeshAttributeCornerTable@draco@@@2@@draco@@@draco@@$00@std@@QEAA@U_Zero_then_variadic_args_t@1@AEAPEAV?$MeshTraversalSequencer@V?$DepthFirstTraverser@VMeshAttributeCornerTable@draco@@V?$MeshAttributeIndicesEncodingObserver@VMeshAttributeCornerTable@draco@@@2@@draco@@@draco@@@Z
	??$?0AEAPEAV?$MeshTraversalSequencer@V?$MaxPredictionDegreeTraverser@VCornerTable@draco@@V?$MeshAttributeIndicesEncodingObserver@VCornerTable@draco@@@2@@draco@@@draco@@@?$_Compressed_pair@U?$default_delete@V?$MeshTraversalSequencer@V?$MaxPredictionDegreeTraverser@VCornerTable@draco@@V?$MeshAttributeIndicesEncodingObserver@VCornerTable@draco@@@2@@draco@@@draco@@@std@@PEAV?$MeshTraversalSequencer@V?$MaxPredictionDegreeTraverser@VCornerTable@draco@@V?$MeshAttributeIndicesEncodingObserver@VCornerTable@draco@@@2@@draco@@@draco@@$00@std@@QEAA@U_Zero_then_variadic_args_t@1@AEAPEAV?$MeshTraversalSequencer@V?$MaxPredictionDegreeTraverser@VCornerTable@draco@@V?$MeshAttributeIndicesEncodingObserver@VCornerTable@draco@@@2@@draco@@@draco@@@Z
	??$?0AEAPEAV?$PlyPropertyReader@E@draco@@@?$_Compressed_pair@U?$default_delete@V?$PlyPropertyReader@E@draco@@@std@@PEAV?$PlyPropertyReader@E@draco@@$00@std@@QEAA@U_Zero_then_variadic_args_t@1@AEAPEAV?$PlyPropertyReader@E@draco@@@Z
	??$?0AEAPEAV?$PlyPropertyReader@H@draco@@@?$_Compressed_pair@U?$default_delete@V?$PlyPropertyReader@H@draco@@@std@@PEAV?$PlyPropertyReader@H@draco@@$00@std@@QEAA@U_Zero_then_variadic_args_t@1@AEAPEAV?$PlyPropertyReader@H@draco@@@Z
	??$?0AEAPEAV?$PlyPropertyReader@M@draco@@@?$_Compressed_pair@U?$default_delete@V?$PlyPropertyReader@M@draco@@@std@@PEAV?$PlyPropertyReader@M@draco@@$00@std@@QEAA@U_Zero_then_variadic_args_t@1@AEAPEAV?$PlyPropertyReader@M@draco@@@Z
	??$?0AEAPEAV?$PredictionSchemeDecoder@HV?$PredictionSchemeNormalOctahedronCanonicalizedDecodingTransform@H@draco@@@draco@@@?$_Compressed_pair@U?$default_delete@V?$PredictionSchemeDecoder@HV?$PredictionSchemeNormalOctahedronCanonicalizedDecodingTransform@H@draco@@@draco@@@std@@PEAV?$PredictionSchemeDecoder@HV?$PredictionSchemeNormalOctahedronCanonicalizedDecodingTransform@H@draco@@@draco@@$00@std@@QEAA@U_Zero_then_variadic_args_t@1@AEAPEAV?$PredictionSchemeDecoder@HV?$PredictionSchemeNormalOctahedronCanonicalizedDecodingTransform@H@draco@@@draco@@@Z
	??$?0AEAPEAV?$PredictionSchemeDecoder@HV?$PredictionSchemeNormalOctahedronDecodingTransform@H@draco@@@draco@@@?$_Compressed_pair@U?$default_delete@V?$PredictionSchemeDecoder@HV?$PredictionSchemeNormalOctahedronDecodingTransform@H@draco@@@draco@@@std@@PEAV?$PredictionSchemeDecoder@HV?$PredictionSchemeNormalOctahedronDecodingTransform@H@draco@@@draco@@$00@std@@QEAA@U_Zero_then_variadic_args_t@1@AEAPEAV?$PredictionSchemeDecoder@HV?$PredictionSchemeNormalOctahedronDecodingTransform@H@draco@@@draco@@@Z
	??$?0AEAPEAV?$PredictionSchemeDecoder@HV?$PredictionSchemeWrapDecodingTransform@HH@draco@@@draco@@@?$_Compressed_pair@U?$default_delete@V?$PredictionSchemeDecoder@HV?$PredictionSchemeWrapDecodingTransform@HH@draco@@@draco@@@std@@PEAV?$PredictionSchemeDecoder@HV?$PredictionSchemeWrapDecodingTransform@HH@draco@@@draco@@$00@std@@QEAA@U_Zero_then_variadic_args_t@1@AEAPEAV?$PredictionSchemeDecoder@HV?$PredictionSchemeWrapDecodingTransform@HH@draco@@@draco@@@Z
	??$?0AEAPEAV?$PredictionSchemeEncoder@HV?$PredictionSchemeNormalOctahedronCanonicalizedEncodingTransform@H@draco@@@draco@@@?$_Compressed_pair@U?$default_delete@V?$PredictionSchemeEncoder@HV?$PredictionSchemeNormalOctahedronCanonicalizedEncodingTransform@H@draco@@@draco@@@std@@PEAV?$PredictionSchemeEncoder@HV?$PredictionSchemeNormalOctahedronCanonicalizedEncodingTransform@H@draco@@@draco@@$00@std@@QEAA@U_Zero_then_variadic_args_t@1@AEAPEAV?$PredictionSchemeEncoder@HV?$PredictionSchemeNormalOctahedronCanonicalizedEncodingTransform@H@draco@@@draco@@@Z
	??$?0AEAPEAV?$PredictionSchemeEncoder@HV?$PredictionSchemeWrapEncodingTransform@HH@draco@@@draco@@@?$_Compressed_pair@U?$default_delete@V?$PredictionSchemeEncoder@HV?$PredictionSchemeWrapEncodingTransform@HH@draco@@@draco@@@std@@PEAV?$PredictionSchemeEncoder@HV?$PredictionSchemeWrapEncodingTransform@HH@draco@@@draco@@$00@std@@QEAA@U_Zero_then_variadic_args_t@1@AEAPEAV?$PredictionSchemeEncoder@HV?$PredictionSchemeWrapEncodingTransform@HH@draco@@@draco@@@Z
	??$?0AEAPEAVAttributeMetadata@draco@@@?$_Compressed_pair@U?$default_delete@VAttributeMetadata@draco@@@std@@PEAVAttributeMetadata@draco@@$00@std@@QEAA@U_Zero_then_variadic_args_t@1@AEAPEAVAttributeMetadata@draco@@@Z
	??$?0AEAPEAVAttributeTransformData@draco@@@?$_Compressed_pair@U?$default_delete@VAttributeTransformData@draco@@@std@@PEAVAttributeTransformData@draco@@$00@std@@QEAA@U_Zero_then_variadic_args_t@1@AEAPEAVAttributeTransformData@draco@@@Z
	??$?0AEAPEAVAttributesDecoder@draco@@@?$_Compressed_pair@U?$default_delete@VAttributesDecoder@draco@@@std@@PEAVAttributesDecoder@draco@@$00@std@@QEAA@U_Zero_then_variadic_args_t@1@AEAPEAVAttributesDecoder@draco@@@Z
	??$?0AEAPEAVAttributesEncoder@draco@@@?$_Compressed_pair@U?$default_delete@VAttributesEncoder@draco@@@std@@PEAVAttributesEncoder@draco@@$00@std@@QEAA@U_Zero_then_variadic_args_t@1@AEAPEAVAttributesEncoder@draco@@@Z
	??$?0AEAPEAVBitEncoder@EncoderBuffer@draco@@@?$_Compressed_pair@U?$default_delete@VBitEncoder@EncoderBuffer@draco@@@std@@PEAVBitEncoder@EncoderBuffer@draco@@$00@std@@QEAA@U_Zero_then_variadic_args_t@1@AEAPEAVBitEncoder@EncoderBuffer@draco@@@Z
	??$?0AEAPEAVCornerTable@draco@@@?$_Compressed_pair@U?$default_delete@VCornerTable@draco@@@std@@PEAVCornerTable@draco@@$00@std@@QEAA@U_Zero_then_variadic_args_t@1@AEAPEAVCornerTable@draco@@@Z
	??$?0AEAPEAVDataBuffer@draco@@@?$_Compressed_pair@U?$default_delete@VDataBuffer@draco@@@std@@PEAVDataBuffer@draco@@$00@std@@QEAA@U_Zero_then_variadic_args_t@1@AEAPEAVDataBuffer@draco@@@Z
	??$?0AEAPEAVFileReaderInterface@draco@@@?$_Compressed_pair@U?$default_delete@VFileReaderInterface@draco@@@std@@PEAVFileReaderInterface@draco@@$00@std@@QEAA@U_Zero_then_variadic_args_t@1@AEAPEAVFileReaderInterface@draco@@@Z
	??$?0AEAPEAVGeometryMetadata@draco@@@?$_Compressed_pair@U?$default_delete@VGeometryMetadata@draco@@@std@@PEAVGeometryMetadata@draco@@$00@std@@QEAA@U_Zero_then_variadic_args_t@1@AEAPEAVGeometryMetadata@draco@@@Z
	??$?0AEAPEAVMesh@draco@@@?$_Compressed_pair@U?$default_delete@VMesh@draco@@@std@@PEAVMesh@draco@@$00@std@@QEAA@U_Zero_then_variadic_args_t@1@AEAPEAVMesh@draco@@@Z
	??$?0AEAPEAVMeshDecoder@draco@@@?$_Compressed_pair@U?$default_delete@VMeshDecoder@draco@@@std@@PEAVMeshDecoder@draco@@$00@std@@QEAA@U_Zero_then_variadic_args_t@1@AEAPEAVMeshDecoder@draco@@@Z
	??$?0AEAPEAVMeshEdgebreakerDecoderImplInterface@draco@@@?$_Compressed_pair@U?$default_delete@VMeshEdgebreakerDecoderImplInterface@draco@@@std@@PEAVMeshEdgebreakerDecoderImplInterface@draco@@$00@std@@QEAA@U_Zero_then_variadic_args_t@1@AEAPEAVMeshEdgebreakerDecoderImplInterface@draco@@@Z
	??$?0AEAPEAVMeshEdgebreakerEncoderImplInterface@draco@@@?$_Compressed_pair@U?$default_delete@VMeshEdgebreakerEncoderImplInterface@draco@@@std@@PEAVMeshEdgebreakerEncoderImplInterface@draco@@$00@std@@QEAA@U_Zero_then_variadic_args_t@1@AEAPEAVMeshEdgebreakerEncoderImplInterface@draco@@@Z
	??$?0AEAPEAVMeshEncoder@draco@@@?$_Compressed_pair@U?$default_delete@VMeshEncoder@draco@@@std@@PEAVMeshEncoder@draco@@$00@std@@QEAA@U_Zero_then_variadic_args_t@1@AEAPEAVMeshEncoder@draco@@@Z
	??$?0AEAPEAVMetadata@draco@@@?$_Compressed_pair@U?$default_delete@VMetadata@draco@@@std@@PEAVMetadata@draco@@$00@std@@QEAA@U_Zero_then_variadic_args_t@1@AEAPEAVMetadata@draco@@@Z
	??$?0AEAPEAVPointAttribute@draco@@@?$_Compressed_pair@U?$default_delete@VPointAttribute@draco@@@std@@PEAVPointAttribute@draco@@$00@std@@QEAA@U_Zero_then_variadic_args_t@1@AEAPEAVPointAttribute@draco@@@Z
	??$?0AEAPEAVPointAttribute@draco@@@?$_Tuple_val@PEAVPointAttribute@draco@@@std@@QEAA@AEAPEAVPointAttribute@draco@@@Z
	??$?0AEAPEAVPointAttribute@draco@@AEAIAEBW4DataType@1@AEBIAEBI$0A@@?$tuple@PEAVPointAttribute@draco@@IW4DataType@2@II@std@@QEAA@AEAPEAVPointAttribute@draco@@AEAIAEBW4DataType@3@AEBI3@Z
	??$?0AEAPEAVPointCloud@draco@@@?$_Compressed_pair@U?$default_delete@VPointCloud@draco@@@std@@PEAVPointCloud@draco@@$00@std@@QEAA@U_Zero_then_variadic_args_t@1@AEAPEAVPointCloud@draco@@@Z
	??$?0AEAPEAVPointCloudDecoder@draco@@@?$_Compressed_pair@U?$default_delete@VPointCloudDecoder@draco@@@std@@PEAVPointCloudDecoder@draco@@$00@std@@QEAA@U_Zero_then_variadic_args_t@1@AEAPEAVPointCloudDecoder@draco@@@Z
	??$?0AEAPEAVPointsSequencer@draco@@@?$_Compressed_pair@U?$default_delete@VPointsSequencer@draco@@@std@@PEAVPointsSequencer@draco@@$00@std@@QEAA@U_Zero_then_variadic_args_t@1@AEAPEAVPointsSequencer@draco@@@Z
	??$?0AEAPEAVRAnsBitDecoder@draco@@@?$_Compressed_pair@U?$default_delete@$$BY0A@VRAnsBitDecoder@draco@@@std@@PEAVRAnsBitDecoder@draco@@$00@std@@QEAA@U_Zero_then_variadic_args_t@1@AEAPEAVRAnsBitDecoder@draco@@@Z
	??$?0AEAPEAVRAnsBitEncoder@draco@@@?$_Compressed_pair@U?$default_delete@$$BY0A@VRAnsBitEncoder@draco@@@std@@PEAVRAnsBitEncoder@draco@@$00@std@@QEAA@U_Zero_then_variadic_args_t@1@AEAPEAVRAnsBitEncoder@draco@@@Z
	??$?0AEAPEAVSequentialAttributeDecoder@draco@@@?$_Compressed_pair@U?$default_delete@VSequentialAttributeDecoder@draco@@@std@@PEAVSequentialAttributeDecoder@draco@@$00@std@@QEAA@U_Zero_then_variadic_args_t@1@AEAPEAVSequentialAttributeDecoder@draco@@@Z
	??$?0AEAPEAVSequentialAttributeDecodersController@draco@@@?$_Compressed_pair@U?$default_delete@VSequentialAttributeDecodersController@draco@@@std@@PEAVSequentialAttributeDecodersController@draco@@$00@std@@QEAA@U_Zero_then_variadic_args_t@1@AEAPEAVSequentialAttributeDecodersController@draco@@@Z
	??$?0AEAPEAVSequentialAttributeEncoder@draco@@@?$_Compressed_pair@U?$default_delete@VSequentialAttributeEncoder@draco@@@std@@PEAVSequentialAttributeEncoder@draco@@$00@std@@QEAA@U_Zero_then_variadic_args_t@1@AEAPEAVSequentialAttributeEncoder@draco@@@Z
	??$?0AEAPEAVSequentialAttributeEncodersController@draco@@@?$_Compressed_pair@U?$default_delete@VSequentialAttributeEncodersController@draco@@@std@@PEAVSequentialAttributeEncodersController@draco@@$00@std@@QEAA@U_Zero_then_variadic_args_t@1@AEAPEAVSequentialAttributeEncodersController@draco@@@Z
	??$?0AEAPEAVSequentialNormalAttributeDecoder@draco@@@?$_Compressed_pair@U?$default_delete@VSequentialNormalAttributeDecoder@draco@@@std@@PEAVSequentialNormalAttributeDecoder@draco@@$00@std@@QEAA@U_Zero_then_variadic_args_t@1@AEAPEAVSequentialNormalAttributeDecoder@draco@@@Z
	??$?0AEAPEAVStdioFileWriter@draco@@@?$_Compressed_pair@U?$default_delete@VStdioFileWriter@draco@@@std@@PEAVStdioFileWriter@draco@@$00@std@@QEAA@U_Zero_then_variadic_args_t@1@AEAPEAVStdioFileWriter@draco@@@Z
	??$?0AEAV?$IndexType@IUPointIndex_tag_type_@draco@@@draco@@V01@$0A@@?$pair@V?$IndexType@IUPointIndex_tag_type_@draco@@@draco@@V12@@std@@QEAA@AEAV?$IndexType@IUPointIndex_tag_type_@draco@@@draco@@$$QEAV23@@Z
	??$?0AEAV?$array@E$00@std@@AEAV?$IndexType@IUAttributeValueIndex_tag_type_@draco@@@draco@@$0A@@?$pair@V?$array@E$00@std@@V?$IndexType@IUAttributeValueIndex_tag_type_@draco@@@draco@@@std@@QEAA@AEAV?$array@E$00@1@AEAV?$IndexType@IUAttributeValueIndex_tag_type_@draco@@@draco@@@Z
	??$?0AEAV?$array@E$01@std@@AEAV?$IndexType@IUAttributeValueIndex_tag_type_@draco@@@draco@@$0A@@?$pair@V?$array@E$01@std@@V?$IndexType@IUAttributeValueIndex_tag_type_@draco@@@draco@@@std@@QEAA@AEAV?$array@E$01@1@AEAV?$IndexType@IUAttributeValueIndex_tag_type_@draco@@@draco@@@Z
	??$?0AEAV?$array@E$02@std@@AEAV?$IndexType@IUAttributeValueIndex_tag_type_@draco@@@draco@@$0A@@?$pair@V?$array@E$02@std@@V?$IndexType@IUAttributeValueIndex_tag_type_@draco@@@draco@@@std@@QEAA@AEAV?$array@E$02@1@AEAV?$IndexType@IUAttributeValueIndex_tag_type_@draco@@@draco@@@Z
	??$?0AEAV?$array@E$03@std@@AEAV?$IndexType@IUAttributeValueIndex_tag_type_@draco@@@draco@@$0A@@?$pair@V?$array@E$03@std@@V?$IndexType@IUAttributeValueIndex_tag_type_@draco@@@draco@@@std@@QEAA@AEAV?$array@E$03@1@AEAV?$IndexType@IUAttributeValueIndex_tag_type_@draco@@@draco@@@Z
	??$?0AEAV?$array@G$00@std@@AEAV?$IndexType@IUAttributeValueIndex_tag_type_@draco@@@draco@@$0A@@?$pair@V?$array@G$00@std@@V?$IndexType@IUAttributeValueIndex_tag_type_@draco@@@draco@@@std@@QEAA@AEAV?$array@G$00@1@AEAV?$IndexType@IUAttributeValueIndex_tag_type_@draco@@@draco@@@Z
	??$?0AEAV?$array@G$01@std@@AEAV?$IndexType@IUAttributeValueIndex_tag_type_@draco@@@draco@@$0A@@?$pair@V?$array@G$01@std@@V?$IndexType@IUAttributeValueIndex_tag_type_@draco@@@draco@@@std@@QEAA@AEAV?$array@G$01@1@AEAV?$IndexType@IUAttributeValueIndex_tag_type_@draco@@@draco@@@Z
	??$?0AEAV?$array@G$02@std@@AEAV?$IndexType@IUAttributeValueIndex_tag_type_@draco@@@draco@@$0A@@?$pair@V?$array@G$02@std@@V?$IndexType@IUAttributeValueIndex_tag_type_@draco@@@draco@@@std@@QEAA@AEAV?$array@G$02@1@AEAV?$IndexType@IUAttributeValueIndex_tag_type_@draco@@@draco@@@Z
	??$?0AEAV?$array@G$03@std@@AEAV?$IndexType@IUAttributeValueIndex_tag_type_@draco@@@draco@@$0A@@?$pair@V?$array@G$03@std@@V?$IndexType@IUAttributeValueIndex_tag_type_@draco@@@draco@@@std@@QEAA@AEAV?$array@G$03@1@AEAV?$IndexType@IUAttributeValueIndex_tag_type_@draco@@@draco@@@Z
	??$?0AEAV?$array@I$00@std@@AEAV?$IndexType@IUAttributeValueIndex_tag_type_@draco@@@draco@@$0A@@?$pair@V?$array@I$00@std@@V?$IndexType@IUAttributeValueIndex_tag_type_@draco@@@draco@@@std@@QEAA@AEAV?$array@I$00@1@AEAV?$IndexType@IUAttributeValueIndex_tag_type_@draco@@@draco@@@Z
	??$?0AEAV?$array@I$01@std@@AEAV?$IndexType@IUAttributeValueIndex_tag_type_@draco@@@draco@@$0A@@?$pair@V?$array@I$01@std@@V?$IndexType@IUAttributeValueIndex_tag_type_@draco@@@draco@@@std@@QEAA@AEAV?$array@I$01@1@AEAV?$IndexType@IUAttributeValueIndex_tag_type_@draco@@@draco@@@Z
	??$?0AEAV?$array@I$02@std@@AEAV?$IndexType@IUAttributeValueIndex_tag_type_@draco@@@draco@@$0A@@?$pair@V?$array@I$02@std@@V?$IndexType@IUAttributeValueIndex_tag_type_@draco@@@draco@@@std@@QEAA@AEAV?$array@I$02@1@AEAV?$IndexType@IUAttributeValueIndex_tag_type_@draco@@@draco@@@Z
	??$?0AEAV?$array@I$03@std@@AEAV?$IndexType@IUAttributeValueIndex_tag_type_@draco@@@draco@@$0A@@?$pair@V?$array@I$03@std@@V?$IndexType@IUAttributeValueIndex_tag_type_@draco@@@draco@@@std@@QEAA@AEAV?$array@I$03@1@AEAV?$IndexType@IUAttributeValueIndex_tag_type_@draco@@@draco@@@Z
	??$?0AEBH$$Z$$V@?$pair@$$CBHV?$IndexType@IUCornerIndex_tag_type_@draco@@@draco@@@std@@QEAA@Upiecewise_construct_t@1@V?$tuple@AEBH@1@V?$tuple@$$V@1@@Z
	??$?0AEBH$$Z$$V@?$pair@$$CBHV?$basic_string@DU?$char_traits@D@std@@V?$allocator@D@2@@std@@@std@@QEAA@Upiecewise_construct_t@1@V?$tuple@AEBH@1@V?$tuple@$$V@1@@Z
	??$?0AEBH$0A@@?$tuple@AEBH@std@@QEAA@AEBH@Z
	??$?0AEBH@?$_Tuple_val@AEBH@std@@QEAA@AEBH@Z
	??$?0AEBHAEAVOptions@draco@@$0A@@?$pair@HVOptions@draco@@@std@@QEAA@AEBHAEAVOptions@draco@@@Z
	??$?0AEBI@?$_Tuple_val@I@std@@QEAA@AEBI@Z
	??$?0AEBQEAU?$_Tree_node@U?$pair@$$CBV?$IndexType@IUAttributeValueIndex_tag_type_@draco@@@draco@@V?$IndexType@IUPointIndex_tag_type_@draco@@@2@@std@@PEAX@std@@_N$0A@@?$pair@PEAU?$_Tree_node@U?$pair@$$CBV?$IndexType@IUAttributeValueIndex_tag_type_@draco@@@draco@@V?$IndexType@IUPointIndex_tag_type_@draco@@@2@@std@@PEAX@std@@_N@std@@QEAA@AEBQEAU?$_Tree_node@U?$pair@$$CBV?$IndexType@IUAttributeValueIndex_tag_type_@draco@@@draco@@V?$IndexType@IUPointIndex_tag_type_@draco@@@2@@std@@PEAX@1@$$QEA_N@Z
	??$?0AEBQEAU?$_Tree_node@U?$pair@$$CBV?$basic_string@DU?$char_traits@D@std@@V?$allocator@D@2@@std@@H@std@@PEAX@std@@_N$0A@@?$pair@PEAU?$_Tree_node@U?$pair@$$CBV?$basic_string@DU?$char_traits@D@std@@V?$allocator@D@2@@std@@H@std@@PEAX@std@@_N@std@@QEAA@AEBQEAU?$_Tree_node@U?$pair@$$CBV?$basic_string@DU?$char_traits@D@std@@V?$allocator@D@2@@std@@H@std@@PEAX@1@$$QEA_N@Z
	??$?0AEBQEAU?$_Tree_node@U?$pair@$$CBV?$basic_string@DU?$char_traits@D@std@@V?$allocator@D@2@@std@@V12@@std@@PEAX@std@@_N$0A@@?$pair@PEAU?$_Tree_node@U?$pair@$$CBV?$basic_string@DU?$char_traits@D@std@@V?$allocator@D@2@@std@@V12@@std@@PEAX@std@@_N@std@@QEAA@AEBQEAU?$_Tree_node@U?$pair@$$CBV?$basic_string@DU?$char_traits@D@std@@V?$allocator@D@2@@std@@V12@@std@@PEAX@1@$$QEA_N@Z
	??$?0AEBQEAU?$_Tree_node@U?$pair@$$CBV?$basic_string@DU?$char_traits@D@std@@V?$allocator@D@2@@std@@V?$unique_ptr@VMetadata@draco@@U?$default_delete@VMetadata@draco@@@std@@@2@@std@@PEAX@std@@_N$0A@@?$pair@PEAU?$_Tree_node@U?$pair@$$CBV?$basic_string@DU?$char_traits@D@std@@V?$allocator@D@2@@std@@V?$unique_ptr@VMetadata@draco@@U?$default_delete@VMetadata@draco@@@std@@@2@@std@@PEAX@std@@_N@std@@QEAA@AEBQEAU?$_Tree_node@U?$pair@$$CBV?$basic_string@DU?$char_traits@D@std@@V?$allocator@D@2@@std@@V?$unique_ptr@VMetadata@draco@@U?$default_delete@VMetadata@draco@@@std@@@2@@std@@PEAX@1@$$QEA_N@Z
	??$?0AEBQEAVPointAttribute@draco@@@?$_Tuple_val@PEAVPointAttribute@draco@@@std@@QEAA@AEBQEAVPointAttribute@draco@@@Z
	??$?0AEBQEAVPointAttribute@draco@@AEAIAEBW4DataType@1@AEBIAEBI$0A@@?$tuple@PEAVPointAttribute@draco@@IW4DataType@2@II@std@@QEAA@AEBQEAVPointAttribute@draco@@AEAIAEBW4DataType@3@AEBI3@Z
	??$?0AEBU?$less@H@std@@U_Zero_then_variadic_args_t@1@@?$_Compressed_pair@U?$less@H@std@@V?$_Compressed_pair@V?$allocator@U?$_Tree_node@U?$pair@$$CBHVOptions@draco@@@std@@PEAX@std@@@std@@V?$_Tree_val@U?$_Tree_simple_types@U?$pair@$$CBHVOptions@draco@@@std@@@std@@@2@$00@2@$00@std@@QEAA@U_One_then_variadic_args_t@1@AEBU?$less@H@1@$$QEAU_Zero_then_variadic_args_t@1@@Z
	??$?0AEBU?$less@V?$IndexType@IUAttributeValueIndex_tag_type_@draco@@@draco@@@std@@U_Zero_then_variadic_args_t@1@@?$_Compressed_pair@U?$less@V?$IndexType@IUAttributeValueIndex_tag_type_@draco@@@draco@@@std@@V?$_Compressed_pair@V?$allocator@U?$_Tree_node@U?$pair@$$CBV?$IndexType@IUAttributeValueIndex_tag_type_@draco@@@draco@@V?$IndexType@IUPointIndex_tag_type_@draco@@@2@@std@@PEAX@std@@@std@@V?$_Tree_val@U?$_Tree_simple_types@U?$pair@$$CBV?$IndexType@IUAttributeValueIndex_tag_type_@draco@@@draco@@V?$IndexType@IUPointIndex_tag_type_@draco@@@2@@std@@@std@@@2@$00@2@$00@std@@QEAA@U_One_then_variadic_args_t@1@AEBU?$less@V?$IndexType@IUAttributeValueIndex_tag_type_@draco@@@draco@@@1@$$QEAU_Zero_then_variadic_args_t@1@@Z
	??$?0AEBU?$less@V?$basic_string@DU?$char_traits@D@std@@V?$allocator@D@2@@std@@@std@@U_Zero_then_variadic_args_t@1@@?$_Compressed_pair@U?$less@V?$basic_string@DU?$char_traits@D@std@@V?$allocator@D@2@@std@@@std@@V?$_Compressed_pair@V?$allocator@U?$_Tree_node@U?$pair@$$CBV?$basic_string@DU?$char_traits@D@std@@V?$allocator@D@2@@std@@H@std@@PEAX@std@@@std@@V?$_Tree_val@U?$_Tree_simple_types@U?$pair@$$CBV?$basic_string@DU?$char_traits@D@std@@V?$allocator@D@2@@std@@H@std@@@std@@@2@$00@2@$00@std@@QEAA@U_One_then_variadic_args_t@1@AEBU?$less@V?$basic_string@DU?$char_traits@D@std@@V?$allocator@D@2@@std@@@1@$$QEAU_Zero_then_variadic_args_t@1@@Z
	??$?0AEBU?$less@V?$basic_string@DU?$char_traits@D@std@@V?$allocator@D@2@@std@@@std@@U_Zero_then_variadic_args_t@1@@?$_Compressed_pair@U?$less@V?$basic_string@DU?$char_traits@D@std@@V?$allocator@D@2@@std@@@std@@V?$_Compressed_pair@V?$allocator@U?$_Tree_node@U?$pair@$$CBV?$basic_string@DU?$char_traits@D@std@@V?$allocator@D@2@@std@@V12@@std@@PEAX@std@@@std@@V?$_Tree_val@U?$_Tree_simple_types@U?$pair@$$CBV?$basic_string@DU?$char_traits@D@std@@V?$allocator@D@2@@std@@V12@@std@@@std@@@2@$00@2@$00@std@@QEAA@U_One_then_variadic_args_t@1@AEBU?$less@V?$basic_string@DU?$char_traits@D@std@@V?$allocator@D@2@@std@@@1@$$QEAU_Zero_then_variadic_args_t@1@@Z
	??$?0AEBU?$less@V?$basic_string@DU?$char_traits@D@std@@V?$allocator@D@2@@std@@@std@@U_Zero_then_variadic_args_t@1@@?$_Compressed_pair@U?$less@V?$basic_string@DU?$char_traits@D@std@@V?$allocator@D@2@@std@@@std@@V?$_Compressed_pair@V?$allocator@U?$_Tree_node@U?$pair@$$CBV?$basic_string@DU?$char_traits@D@std@@V?$allocator@D@2@@std@@V?$unique_ptr@VMetadata@draco@@U?$default_delete@VMetadata@draco@@@std@@@2@@std@@PEAX@std@@@std@@V?$_Tree_val@U?$_Tree_simple_types@U?$pair@$$CBV?$basic_string@DU?$char_traits@D@std@@V?$allocator@D@2@@std@@V?$unique_ptr@VMetadata@draco@@U?$default_delete@VMetadata@draco@@@std@@@2@@std@@@std@@@2@$00@2@$00@std@@QEAA@U_One_then_variadic_args_t@1@AEBU?$less@V?$basic_string@DU?$char_traits@D@std@@V?$allocator@D@2@@std@@@1@$$QEAU_Zero_then_variadic_args_t@1@@Z
	??$?0AEBU?$less@V?$basic_string@DU?$char_traits@D@std@@V?$allocator@D@2@@std@@@std@@U_Zero_then_variadic_args_t@1@@?$_Compressed_pair@U?$less@V?$basic_string@DU?$char_traits@D@std@@V?$allocator@D@2@@std@@@std@@V?$_Compressed_pair@V?$allocator@U?$_Tree_node@U?$pair@$$CBV?$basic_string@DU?$char_traits@D@std@@V?$allocator@D@2@@std@@VEntryValue@draco@@@std@@PEAX@std@@@std@@V?$_Tree_val@U?$_Tree_simple_types@U?$pair@$$CBV?$basic_string@DU?$char_traits@D@std@@V?$allocator@D@2@@std@@VEntryValue@draco@@@std@@@std@@@2@$00@2@$00@std@@QEAA@U_One_then_variadic_args_t@1@AEBU?$less@V?$basic_string@DU?$char_traits@D@std@@V?$allocator@D@2@@std@@@1@$$QEAU_Zero_then_variadic_args_t@1@@Z
	??$?0AEBU?$less@W4Type@GeometryAttribute@draco@@@std@@U_Zero_then_variadic_args_t@1@@?$_Compressed_pair@U?$less@W4Type@GeometryAttribute@draco@@@std@@V?$_Compressed_pair@V?$allocator@U?$_Tree_node@U?$pair@$$CBW4Type@GeometryAttribute@draco@@VOptions@3@@std@@PEAX@std@@@std@@V?$_Tree_val@U?$_Tree_simple_types@U?$pair@$$CBW4Type@GeometryAttribute@draco@@VOptions@3@@std@@@std@@@2@$00@2@$00@std@@QEAA@U_One_then_variadic_args_t@1@AEBU?$less@W4Type@GeometryAttribute@draco@@@1@$$QEAU_Zero_then_variadic_args_t@1@@Z
	??$?0AEBU?$pair@$$CBV?$basic_string@DU?$char_traits@D@std@@V?$allocator@D@2@@std@@VEntryValue@draco@@@std@@@?$_Tree_temp_node@V?$allocator@U?$_Tree_node@U?$pair@$$CBV?$basic_string@DU?$char_traits@D@std@@V?$allocator@D@2@@std@@VEntryValue@draco@@@std@@PEAX@std@@@std@@@std@@QEAA@AEAV?$allocator@U?$_Tree_node@U?$pair@$$CBV?$basic_string@DU?$char_traits@D@std@@V?$allocator@D@2@@std@@VEntryValue@draco@@@std@@PEAX@std@@@1@PEAU?$_Tree_node@U?$pair@$$CBV?$basic_string@DU?$char_traits@D@std@@V?$allocator@D@2@@std@@VEntryValue@draco@@@std@@PEAX@1@AEBU?$pair@$$CBV?$basic_string@DU?$char_traits@D@std@@V?$allocator@D@2@@std@@VEntryValue@draco@@@1@@Z
	??$?0AEBUpiecewise_construct_t@std@@V?$tuple@$$QEAH@1@V?$tuple@$$V@1@@?$_List_node_emplace_op2@V?$allocator@U?$_List_node@U?$pair@$$CBHH@std@@PEAX@std@@@std@@@std@@QEAA@AEAV?$allocator@U?$_List_node@U?$pair@$$CBHH@std@@PEAX@std@@@1@AEBUpiecewise_construct_t@1@$$QEAV?$tuple@$$QEAH@1@$$QEAV?$tuple@$$V@1@@Z
	??$?0AEBUpiecewise_construct_t@std@@V?$tuple@AEBH@1@V?$tuple@$$V@1@@?$_List_node_emplace_op2@V?$allocator@U?$_List_node@U?$pair@$$CBHV?$IndexType@IUCornerIndex_tag_type_@draco@@@draco@@@std@@PEAX@std@@@std@@@std@@QEAA@AEAV?$allocator@U?$_List_node@U?$pair@$$CBHV?$IndexType@IUCornerIndex_tag_type_@draco@@@draco@@@std@@PEAX@std@@@1@AEBUpiecewise_construct_t@1@$$QEAV?$tuple@AEBH@1@$$QEAV?$tuple@$$V@1@@Z
	??$?0AEBUpiecewise_construct_t@std@@V?$tuple@AEBH@1@V?$tuple@$$V@1@@?$_List_node_emplace_op2@V?$allocator@U?$_List_node@U?$pair@$$CBHV?$basic_string@DU?$char_traits@D@std@@V?$allocator@D@2@@std@@@std@@PEAX@std@@@std@@@std@@QEAA@AEAV?$allocator@U?$_List_node@U?$pair@$$CBHV?$basic_string@DU?$char_traits@D@std@@V?$allocator@D@2@@std@@@std@@PEAX@std@@@1@AEBUpiecewise_construct_t@1@$$QEAV?$tuple@AEBH@1@$$QEAV?$tuple@$$V@1@@Z
	??$?0AEBUpiecewise_construct_t@std@@V?$tuple@AEBV?$IndexType@IUAttributeValueIndex_tag_type_@draco@@@draco@@@1@V?$tuple@$$V@1@@?$_Tree_temp_node@V?$allocator@U?$_Tree_node@U?$pair@$$CBV?$IndexType@IUAttributeValueIndex_tag_type_@draco@@@draco@@V?$IndexType@IUPointIndex_tag_type_@draco@@@2@@std@@PEAX@std@@@std@@@std@@QEAA@AEAV?$allocator@U?$_Tree_node@U?$pair@$$CBV?$IndexType@IUAttributeValueIndex_tag_type_@draco@@@draco@@V?$IndexType@IUPointIndex_tag_type_@draco@@@2@@std@@PEAX@std@@@1@PEAU?$_Tree_node@U?$pair@$$CBV?$IndexType@IUAttributeValueIndex_tag_type_@draco@@@draco@@V?$IndexType@IUPointIndex_tag_type_@draco@@@2@@std@@PEAX@1@AEBUpiecewise_construct_t@1@$$QEAV?$tuple@AEBV?$IndexType@IUAttributeValueIndex_tag_type_@draco@@@draco@@@1@$$QEAV?$tuple@$$V@1@@Z
	??$?0AEBUpiecewise_construct_t@std@@V?$tuple@AEBV?$basic_string@DU?$char_traits@D@std@@V?$allocator@D@2@@std@@@1@V?$tuple@$$V@1@@?$_List_node_emplace_op2@V?$allocator@U?$_List_node@U?$pair@$$CBV?$basic_string@DU?$char_traits@D@std@@V?$allocator@D@2@@std@@H@std@@PEAX@std@@@std@@@std@@QEAA@AEAV?$allocator@U?$_List_node@U?$pair@$$CBV?$basic_string@DU?$char_traits@D@std@@V?$allocator@D@2@@std@@H@std@@PEAX@std@@@1@AEBUpiecewise_construct_t@1@$$QEAV?$tuple@AEBV?$basic_string@DU?$char_traits@D@std@@V?$allocator@D@2@@std@@@1@$$QEAV?$tuple@$$V@1@@Z
	??$?0AEBUpiecewise_construct_t@std@@V?$tuple@AEBV?$basic_string@DU?$char_traits@D@std@@V?$allocator@D@2@@std@@@1@V?$tuple@$$V@1@@?$_Tree_temp_node@V?$allocator@U?$_Tree_node@U?$pair@$$CBV?$basic_string@DU?$char_traits@D@std@@V?$allocator@D@2@@std@@H@std@@PEAX@std@@@std@@@std@@QEAA@AEAV?$allocator@U?$_Tree_node@U?$pair@$$CBV?$basic_string@DU?$char_traits@D@std@@V?$allocator@D@2@@std@@H@std@@PEAX@std@@@1@PEAU?$_Tree_node@U?$pair@$$CBV?$basic_string@DU?$char_traits@D@std@@V?$allocator@D@2@@std@@H@std@@PEAX@1@AEBUpiecewise_construct_t@1@$$QEAV?$tuple@AEBV?$basic_string@DU?$char_traits@D@std@@V?$allocator@D@2@@std@@@1@$$QEAV?$tuple@$$V@1@@Z
	??$?0AEBUpiecewise_construct_t@std@@V?$tuple@AEBV?$basic_string@DU?$char_traits@D@std@@V?$allocator@D@2@@std@@@1@V?$tuple@$$V@1@@?$_Tree_temp_node@V?$allocator@U?$_Tree_node@U?$pair@$$CBV?$basic_string@DU?$char_traits@D@std@@V?$allocator@D@2@@std@@V12@@std@@PEAX@std@@@std@@@std@@QEAA@AEAV?$allocator@U?$_Tree_node@U?$pair@$$CBV?$basic_string@DU?$char_traits@D@std@@V?$allocator@D@2@@std@@V12@@std@@PEAX@std@@@1@PEAU?$_Tree_node@U?$pair@$$CBV?$basic_string@DU?$char_traits@D@std@@V?$allocator@D@2@@std@@V12@@std@@PEAX@1@AEBUpiecewise_construct_t@1@$$QEAV?$tuple@AEBV?$basic_string@DU?$char_traits@D@std@@V?$allocator@D@2@@std@@@1@$$QEAV?$tuple@$$V@1@@Z
	??$?0AEBUpiecewise_construct_t@std@@V?$tuple@AEBV?$basic_string@DU?$char_traits@D@std@@V?$allocator@D@2@@std@@@1@V?$tuple@$$V@1@@?$_Tree_temp_node@V?$allocator@U?$_Tree_node@U?$pair@$$CBV?$basic_string@DU?$char_traits@D@std@@V?$allocator@D@2@@std@@V?$unique_ptr@VMetadata@draco@@U?$default_delete@VMetadata@draco@@@std@@@2@@std@@PEAX@std@@@std@@@std@@QEAA@AEAV?$allocator@U?$_Tree_node@U?$pair@$$CBV?$basic_string@DU?$char_traits@D@std@@V?$allocator@D@2@@std@@V?$unique_ptr@VMetadata@draco@@U?$default_delete@VMetadata@draco@@@std@@@2@@std@@PEAX@std@@@1@PEAU?$_Tree_node@U?$pair@$$CBV?$basic_string@DU?$char_traits@D@std@@V?$allocator@D@2@@std@@V?$unique_ptr@VMetadata@draco@@U?$default_delete@VMetadata@draco@@@std@@@2@@std@@PEAX@1@AEBUpiecewise_construct_t@1@$$QEAV?$tuple@AEBV?$basic_string@DU?$char_traits@D@std@@V?$allocator@D@2@@std@@@1@$$QEAV?$tuple@$$V@1@@Z
	??$?0AEBV<lambda_07c71a731cdd852924c8b03369e08e45>@@$0A@@?$_Func_impl_no_alloc@V<lambda_07c71a731cdd852924c8b03369e08e45>@@EH@std@@QEAA@AEBV<lambda_07c71a731cdd852924c8b03369e08e45>@@@Z
	??$?0AEBV<lambda_1182dc3d17cc3d42d0fa121687ca398f>@@$0A@@?$_Func_impl_no_alloc@V<lambda_1182dc3d17cc3d42d0fa121687ca398f>@@HH@std@@QEAA@AEBV<lambda_1182dc3d17cc3d42d0fa121687ca398f>@@@Z
	??$?0AEBV<lambda_1afa04f1fbcac3f0220197bc7dc56e5c>@@$0A@@?$_Func_impl_no_alloc@V<lambda_1afa04f1fbcac3f0220197bc7dc56e5c>@@HH@std@@QEAA@AEBV<lambda_1afa04f1fbcac3f0220197bc7dc56e5c>@@@Z
	??$?0AEBV<lambda_1fa42df75aa3f091931d838c6b29bf14>@@$0A@@?$_Func_impl_no_alloc@V<lambda_1fa42df75aa3f091931d838c6b29bf14>@@XN@std@@QEAA@AEBV<lambda_1fa42df75aa3f091931d838c6b29bf14>@@@Z
	??$?0AEBV<lambda_22809532bb019f0daf6e1a3d5953fdfe>@@$0A@@?$_Func_impl_no_alloc@V<lambda_22809532bb019f0daf6e1a3d5953fdfe>@@HH@std@@QEAA@AEBV<lambda_22809532bb019f0daf6e1a3d5953fdfe>@@@Z
	??$?0AEBV<lambda_2bdf57fc14ce3d1ee3d482d37e265481>@@$0A@@?$_Func_impl_no_alloc@V<lambda_2bdf57fc14ce3d1ee3d482d37e265481>@@HH@std@@QEAA@AEBV<lambda_2bdf57fc14ce3d1ee3d482d37e265481>@@@Z
	??$?0AEBV<lambda_2fd5011b05d897d5926948a12d966e62>@@$0A@@?$_Func_impl_no_alloc@V<lambda_2fd5011b05d897d5926948a12d966e62>@@IH@std@@QEAA@AEBV<lambda_2fd5011b05d897d5926948a12d966e62>@@@Z
	??$?0AEBV<lambda_30061e8242f4cac9beafded9d6029eb3>@@$0A@@?$_Func_impl_no_alloc@V<lambda_30061e8242f4cac9beafded9d6029eb3>@@EH@std@@QEAA@AEBV<lambda_30061e8242f4cac9beafded9d6029eb3>@@@Z
	??$?0AEBV<lambda_33ae79e5c291bdedd0f51cabd2dfcd81>@@$0A@@?$_Func_impl_no_alloc@V<lambda_33ae79e5c291bdedd0f51cabd2dfcd81>@@EH@std@@QEAA@AEBV<lambda_33ae79e5c291bdedd0f51cabd2dfcd81>@@@Z
	??$?0AEBV<lambda_35fdaef33dcdabfd718789213dcbe077>@@$0A@@?$_Func_impl_no_alloc@V<lambda_35fdaef33dcdabfd718789213dcbe077>@@EH@std@@QEAA@AEBV<lambda_35fdaef33dcdabfd718789213dcbe077>@@@Z
	??$?0AEBV<lambda_3625be2549de29136342b6a0f47e0f94>@@$0A@@?$_Func_impl_no_alloc@V<lambda_3625be2549de29136342b6a0f47e0f94>@@IH@std@@QEAA@AEBV<lambda_3625be2549de29136342b6a0f47e0f94>@@@Z
	??$?0AEBV<lambda_37ee8f263b4b300875f9c1a27d8bc1b7>@@$0A@@?$_Func_impl_no_alloc@V<lambda_37ee8f263b4b300875f9c1a27d8bc1b7>@@EH@std@@QEAA@AEBV<lambda_37ee8f263b4b300875f9c1a27d8bc1b7>@@@Z
	??$?0AEBV<lambda_3846f1b54e820bbe9d9c8e168f510c30>@@$0A@@?$_Func_impl_no_alloc@V<lambda_3846f1b54e820bbe9d9c8e168f510c30>@@MH@std@@QEAA@AEBV<lambda_3846f1b54e820bbe9d9c8e168f510c30>@@@Z
	??$?0AEBV<lambda_3ed9ecede0e2bd13072bb2eaa493856c>@@$0A@@?$_Func_impl_no_alloc@V<lambda_3ed9ecede0e2bd13072bb2eaa493856c>@@IH@std@@QEAA@AEBV<lambda_3ed9ecede0e2bd13072bb2eaa493856c>@@@Z
	??$?0AEBV<lambda_46065660533fdd3e1d22f26ab5e7717a>@@$0A@@?$_Func_impl_no_alloc@V<lambda_46065660533fdd3e1d22f26ab5e7717a>@@MH@std@@QEAA@AEBV<lambda_46065660533fdd3e1d22f26ab5e7717a>@@@Z
	??$?0AEBV<lambda_4668feae5e111d3fb1dac64215a23b38>@@$0A@@?$_Func_impl_no_alloc@V<lambda_4668feae5e111d3fb1dac64215a23b38>@@MH@std@@QEAA@AEBV<lambda_4668feae5e111d3fb1dac64215a23b38>@@@Z
	??$?0AEBV<lambda_48cab4f9c41cfbb86e6ac601d995a377>@@$0A@@?$_Func_impl_no_alloc@V<lambda_48cab4f9c41cfbb86e6ac601d995a377>@@IH@std@@QEAA@AEBV<lambda_48cab4f9c41cfbb86e6ac601d995a377>@@@Z
	??$?0AEBV<lambda_5115edcd92ffe93e8c764d8bd07fe511>@@$0A@@?$_Func_impl_no_alloc@V<lambda_5115edcd92ffe93e8c764d8bd07fe511>@@XN@std@@QEAA@AEBV<lambda_5115edcd92ffe93e8c764d8bd07fe511>@@@Z
	??$?0AEBV<lambda_5aad107e1021c5cb0dab2355ffad4f11>@@$0A@@?$_Func_impl_no_alloc@V<lambda_5aad107e1021c5cb0dab2355ffad4f11>@@XN@std@@QEAA@AEBV<lambda_5aad107e1021c5cb0dab2355ffad4f11>@@@Z
	??$?0AEBV<lambda_759ea76bbcc6dab599e99f646e253eec>@@$0A@@?$_Func_impl_no_alloc@V<lambda_759ea76bbcc6dab599e99f646e253eec>@@EH@std@@QEAA@AEBV<lambda_759ea76bbcc6dab599e99f646e253eec>@@@Z
	??$?0AEBV<lambda_77b724ce3ffa2576d983c349b41d8769>@@$0A@@?$_Func_impl_no_alloc@V<lambda_77b724ce3ffa2576d983c349b41d8769>@@EH@std@@QEAA@AEBV<lambda_77b724ce3ffa2576d983c349b41d8769>@@@Z
	??$?0AEBV<lambda_80812d815ceca467341606308b248d82>@@$0A@@?$_Func_impl_no_alloc@V<lambda_80812d815ceca467341606308b248d82>@@IH@std@@QEAA@AEBV<lambda_80812d815ceca467341606308b248d82>@@@Z
	??$?0AEBV<lambda_86b608a84de436eb259f5506c600e5a7>@@$0A@@?$_Func_impl_no_alloc@V<lambda_86b608a84de436eb259f5506c600e5a7>@@XN@std@@QEAA@AEBV<lambda_86b608a84de436eb259f5506c600e5a7>@@@Z
	??$?0AEBV<lambda_a2748b89a44b5f04cf00c20c2b12ef9f>@@$0A@@?$_Func_impl_no_alloc@V<lambda_a2748b89a44b5f04cf00c20c2b12ef9f>@@HH@std@@QEAA@AEBV<lambda_a2748b89a44b5f04cf00c20c2b12ef9f>@@@Z
	??$?0AEBV<lambda_a41f49bf9c3387872c379e715d9fa2a7>@@$0A@@?$_Func_impl_no_alloc@V<lambda_a41f49bf9c3387872c379e715d9fa2a7>@@XN@std@@QEAA@AEBV<lambda_a41f49bf9c3387872c379e715d9fa2a7>@@@Z
	??$?0AEBV<lambda_ad1ad2033536d5afe7481e140343dd0e>@@$0A@@?$_Func_impl_no_alloc@V<lambda_ad1ad2033536d5afe7481e140343dd0e>@@IH@std@@QEAA@AEBV<lambda_ad1ad2033536d5afe7481e140343dd0e>@@@Z
	??$?0AEBV<lambda_b25d6381cf6527ae37a914fecce16155>@@$0A@@?$_Func_impl_no_alloc@V<lambda_b25d6381cf6527ae37a914fecce16155>@@IH@std@@QEAA@AEBV<lambda_b25d6381cf6527ae37a914fecce16155>@@@Z
	??$?0AEBV<lambda_c9a6258327fe4c27aef484a179309302>@@$0A@@?$_Func_impl_no_alloc@V<lambda_c9a6258327fe4c27aef484a179309302>@@XN@std@@QEAA@AEBV<lambda_c9a6258327fe4c27aef484a179309302>@@@Z
	??$?0AEBV<lambda_cc918ab4bf9f883e7aa788f0840d79eb>@@$0A@@?$_Func_impl_no_alloc@V<lambda_cc918ab4bf9f883e7aa788f0840d79eb>@@IH@std@@QEAA@AEBV<lambda_cc918ab4bf9f883e7aa788f0840d79eb>@@@Z
	??$?0AEBV<lambda_d6b799d58678271dfd01570f177cbfef>@@$0A@@?$_Func_impl_no_alloc@V<lambda_d6b799d58678271dfd01570f177cbfef>@@EH@std@@QEAA@AEBV<lambda_d6b799d58678271dfd01570f177cbfef>@@@Z
	??$?0AEBV<lambda_dd2dd9b3d707913969cb4c37b4af3c84>@@$0A@@?$_Func_impl_no_alloc@V<lambda_dd2dd9b3d707913969cb4c37b4af3c84>@@MH@std@@QEAA@AEBV<lambda_dd2dd9b3d707913969cb4c37b4af3c84>@@@Z
	??$?0AEBV<lambda_e18d89c2faad06f10447820cd6771af8>@@$0A@@?$_Func_impl_no_alloc@V<lambda_e18d89c2faad06f10447820cd6771af8>@@HH@std@@QEAA@AEBV<lambda_e18d89c2faad06f10447820cd6771af8>@@@Z
	??$?0AEBV<lambda_e24b4efda77a160baf50d70af9d2ff0d>@@$0A@@?$_Func_impl_no_alloc@V<lambda_e24b4efda77a160baf50d70af9d2ff0d>@@MH@std@@QEAA@AEBV<lambda_e24b4efda77a160baf50d70af9d2ff0d>@@@Z
	??$?0AEBV<lambda_f17412dd2526a2a667a103262ec446e7>@@$0A@@?$_Func_impl_no_alloc@V<lambda_f17412dd2526a2a667a103262ec446e7>@@MH@std@@QEAA@AEBV<lambda_f17412dd2526a2a667a103262ec446e7>@@@Z
	??$?0AEBV<lambda_f900a08328ddbf3bb2ed4ffc647ad76b>@@$0A@@?$_Func_impl_no_alloc@V<lambda_f900a08328ddbf3bb2ed4ffc647ad76b>@@XN@std@@QEAA@AEBV<lambda_f900a08328ddbf3bb2ed4ffc647ad76b>@@@Z
	??$?0AEBV<lambda_f961c1a86b69bc1700502596fbde0b9e>@@$0A@@?$_Func_impl_no_alloc@V<lambda_f961c1a86b69bc1700502596fbde0b9e>@@MH@std@@QEAA@AEBV<lambda_f961c1a86b69bc1700502596fbde0b9e>@@@Z
	??$?0AEBV<lambda_fbd46683e75ea7f41ee138a020a867bb>@@$0A@@?$_Func_impl_no_alloc@V<lambda_fbd46683e75ea7f41ee138a020a867bb>@@MH@std@@QEAA@AEBV<lambda_fbd46683e75ea7f41ee138a020a867bb>@@@Z
	??$?0AEBV<lambda_fdb58fdca8c0f635ac95f3788f364eb9>@@$0A@@?$_Func_impl_no_alloc@V<lambda_fdb58fdca8c0f635ac95f3788f364eb9>@@XN@std@@QEAA@AEBV<lambda_fdb58fdca8c0f635ac95f3788f364eb9>@@@Z
	??$?0AEBV<lambda_fde3d6b9ca0523f6d49e8eb5e1c4ba53>@@$0A@@?$_Func_impl_no_alloc@V<lambda_fde3d6b9ca0523f6d49e8eb5e1c4ba53>@@HH@std@@QEAA@AEBV<lambda_fde3d6b9ca0523f6d49e8eb5e1c4ba53>@@@Z
	??$?0AEBV<lambda_ffff1cfe3e31e0319bc66d6bdc76e93b>@@$0A@@?$_Func_impl_no_alloc@V<lambda_ffff1cfe3e31e0319bc66d6bdc76e93b>@@HH@std@@QEAA@AEBV<lambda_ffff1cfe3e31e0319bc66d6bdc76e93b>@@@Z
	??$?0AEBV?$IndexType@IUAttributeValueIndex_tag_type_@draco@@@draco@@$$Z$$V@?$pair@$$CBV?$IndexType@IUAttributeValueIndex_tag_type_@draco@@@draco@@V?$IndexType@IUPointIndex_tag_type_@draco@@@2@@std@@QEAA@Upiecewise_construct_t@1@V?$tuple@AEBV?$IndexType@IUAttributeValueIndex_tag_type_@draco@@@draco@@@1@V?$tuple@$$V@1@@Z
	??$?0AEBV?$IndexType@IUAttributeValueIndex_tag_type_@draco@@@draco@@$0A@@?$tuple@AEBV?$IndexType@IUAttributeValueIndex_tag_type_@draco@@@draco@@@std@@QEAA@AEBV?$IndexType@IUAttributeValueIndex_tag_type_@draco@@@draco@@@Z
	??$?0AEBV?$IndexType@IUAttributeValueIndex_tag_type_@draco@@@draco@@@?$_Tuple_val@AEBV?$IndexType@IUAttributeValueIndex_tag_type_@draco@@@draco@@@std@@QEAA@AEBV?$IndexType@IUAttributeValueIndex_tag_type_@draco@@@draco@@@Z
	??$?0AEBV?$allocator@C@std@@$$V@?$_Compressed_pair@V?$allocator@C@std@@V?$_Vector_val@U?$_Simple_types@C@std@@@2@$00@std@@QEAA@U_One_then_variadic_args_t@1@AEBV?$allocator@C@1@@Z
	??$?0AEBV?$allocator@D@std@@$$V@?$_Compressed_pair@V?$allocator@D@std@@V?$_String_val@U?$_Simple_types@D@std@@@2@$00@std@@QEAA@U_One_then_variadic_args_t@1@AEBV?$allocator@D@1@@Z
	??$?0AEBV?$allocator@E@std@@$$V@?$_Compressed_pair@V?$allocator@E@std@@V?$_Vector_val@U?$_Simple_types@E@std@@@2@$00@std@@QEAA@U_One_then_variadic_args_t@1@AEBV?$allocator@E@1@@Z
	??$?0AEBV?$allocator@F@std@@$$V@?$_Compressed_pair@V?$allocator@F@std@@V?$_Vector_val@U?$_Simple_types@F@std@@@2@$00@std@@QEAA@U_One_then_variadic_args_t@1@AEBV?$allocator@F@1@@Z
	??$?0AEBV?$allocator@G@std@@$$V@?$_Compressed_pair@V?$allocator@G@std@@V?$_Vector_val@U?$_Simple_types@G@std@@@2@$00@std@@QEAA@U_One_then_variadic_args_t@1@AEBV?$allocator@G@1@@Z
	??$?0AEBV?$allocator@H@std@@$$V@?$_Compressed_pair@V?$allocator@H@std@@V?$_Vector_val@U?$_Simple_types@H@std@@@2@$00@std@@QEAA@U_One_then_variadic_args_t@1@AEBV?$allocator@H@1@@Z
	??$?0AEBV?$allocator@I@std@@$$V@?$_Compressed_pair@V?$allocator@I@std@@V?$_Vector_val@U?$_Simple_types@I@std@@@2@$00@std@@QEAA@U_One_then_variadic_args_t@1@AEBV?$allocator@I@1@@Z
	??$?0AEBV?$allocator@M@std@@$$V@?$_Compressed_pair@V?$allocator@M@std@@V?$_Vector_val@U?$_Simple_types@M@std@@@2@$00@std@@QEAA@U_One_then_variadic_args_t@1@AEBV?$allocator@M@1@@Z
	??$?0AEBV?$allocator@U?$pair@$$CBHH@std@@@std@@$$V@?$_Compressed_pair@V?$allocator@U?$_List_node@U?$pair@$$CBHH@std@@PEAX@std@@@std@@V?$_List_val@U?$_List_simple_types@U?$pair@$$CBHH@std@@@std@@@2@$00@std@@QEAA@U_One_then_variadic_args_t@1@AEBV?$allocator@U?$pair@$$CBHH@std@@@1@@Z
	??$?0AEBV?$allocator@U?$pair@$$CBHH@std@@@std@@$$V@?$_Compressed_pair@V?$allocator@V?$_List_unchecked_iterator@V?$_List_val@U?$_List_simple_types@U?$pair@$$CBHH@std@@@std@@@std@@@std@@@std@@V?$_Vector_val@U?$_Simple_types@V?$_List_unchecked_iterator@V?$_List_val@U?$_List_simple_types@U?$pair@$$CBHH@std@@@std@@@std@@@std@@@std@@@2@$00@std@@QEAA@U_One_then_variadic_args_t@1@AEBV?$allocator@U?$pair@$$CBHH@std@@@1@@Z
	??$?0AEBV?$allocator@U?$pair@$$CBHH@std@@@std@@$0A@@?$_Hash_vec@V?$allocator@V?$_List_unchecked_iterator@V?$_List_val@U?$_List_simple_types@U?$pair@$$CBHH@std@@@std@@@std@@@std@@@std@@@std@@QEAA@AEBV?$allocator@U?$pair@$$CBHH@std@@@1@@Z
	??$?0AEBV?$allocator@U?$pair@$$CBHV?$IndexType@IUCornerIndex_tag_type_@draco@@@draco@@@std@@@std@@$$V@?$_Compressed_pair@V?$allocator@U?$_List_node@U?$pair@$$CBHV?$IndexType@IUCornerIndex_tag_type_@draco@@@draco@@@std@@PEAX@std@@@std@@V?$_List_val@U?$_List_simple_types@U?$pair@$$CBHV?$IndexType@IUCornerIndex_tag_type_@draco@@@draco@@@std@@@std@@@2@$00@std@@QEAA@U_One_then_variadic_args_t@1@AEBV?$allocator@U?$pair@$$CBHV?$IndexType@IUCornerIndex_tag_type_@draco@@@draco@@@std@@@1@@Z
	??$?0AEBV?$allocator@U?$pair@$$CBHV?$IndexType@IUCornerIndex_tag_type_@draco@@@draco@@@std@@@std@@$$V@?$_Compressed_pair@V?$allocator@V?$_List_unchecked_iterator@V?$_List_val@U?$_List_simple_types@U?$pair@$$CBHV?$IndexType@IUCornerIndex_tag_type_@draco@@@draco@@@std@@@std@@@std@@@std@@@std@@V?$_Vector_val@U?$_Simple_types@V?$_List_unchecked_iterator@V?$_List_val@U?$_List_simple_types@U?$pair@$$CBHV?$IndexType@IUCornerIndex_tag_type_@draco@@@draco@@@std@@@std@@@std@@@std@@@std@@@2@$00@std@@QEAA@U_One_then_variadic_args_t@1@AEBV?$allocator@U?$pair@$$CBHV?$IndexType@IUCornerIndex_tag_type_@draco@@@draco@@@std@@@1@@Z
	??$?0AEBV?$allocator@U?$pair@$$CBHV?$IndexType@IUCornerIndex_tag_type_@draco@@@draco@@@std@@@std@@$0A@@?$_Hash_vec@V?$allocator@V?$_List_unchecked_iterator@V?$_List_val@U?$_List_simple_types@U?$pair@$$CBHV?$IndexType@IUCornerIndex_tag_type_@draco@@@draco@@@std@@@std@@@std@@@std@@@std@@@std@@QEAA@AEBV?$allocator@U?$pair@$$CBHV?$IndexType@IUCornerIndex_tag_type_@draco@@@draco@@@std@@@1@@Z
	??$?0AEBV?$allocator@U?$pair@$$CBHV?$basic_string@DU?$char_traits@D@std@@V?$allocator@D@2@@std@@@std@@@std@@$$V@?$_Compressed_pair@V?$allocator@U?$_List_node@U?$pair@$$CBHV?$basic_string@DU?$char_traits@D@std@@V?$allocator@D@2@@std@@@std@@PEAX@std@@@std@@V?$_List_val@U?$_List_simple_types@U?$pair@$$CBHV?$basic_string@DU?$char_traits@D@std@@V?$allocator@D@2@@std@@@std@@@std@@@2@$00@std@@QEAA@U_One_then_variadic_args_t@1@AEBV?$allocator@U?$pair@$$CBHV?$basic_string@DU?$char_traits@D@std@@V?$allocator@D@2@@std@@@std@@@1@@Z
	??$?0AEBV?$allocator@U?$pair@$$CBHV?$basic_string@DU?$char_traits@D@std@@V?$allocator@D@2@@std@@@std@@@std@@$$V@?$_Compressed_pair@V?$allocator@V?$_List_unchecked_iterator@V?$_List_val@U?$_List_simple_types@U?$pair@$$CBHV?$basic_string@DU?$char_traits@D@std@@V?$allocator@D@2@@std@@@std@@@std@@@std@@@std@@@std@@V?$_Vector_val@U?$_Simple_types@V?$_List_unchecked_iterator@V?$_List_val@U?$_List_simple_types@U?$pair@$$CBHV?$basic_string@DU?$char_traits@D@std@@V?$allocator@D@2@@std@@@std@@@std@@@std@@@std@@@std@@@2@$00@std@@QEAA@U_One_then_variadic_args_t@1@AEBV?$allocator@U?$pair@$$CBHV?$basic_string@DU?$char_traits@D@std@@V?$allocator@D@2@@std@@@std@@@1@@Z
	??$?0AEBV?$allocator@U?$pair@$$CBHV?$basic_string@DU?$char_traits@D@std@@V?$allocator@D@2@@std@@@std@@@std@@$0A@@?$_Hash_vec@V?$allocator@V?$_List_unchecked_iterator@V?$_List_val@U?$_List_simple_types@U?$pair@$$CBHV?$basic_string@DU?$char_traits@D@std@@V?$allocator@D@2@@std@@@std@@@std@@@std@@@std@@@std@@@std@@QEAA@AEBV?$allocator@U?$pair@$$CBHV?$basic_string@DU?$char_traits@D@std@@V?$allocator@D@2@@std@@@std@@@1@@Z
	??$?0AEBV?$allocator@U?$pair@$$CBV?$IndexType@IUPointIndex_tag_type_@draco@@@draco@@V12@@std@@@std@@$$V@?$_Compressed_pair@V?$allocator@U?$_List_node@U?$pair@$$CBV?$IndexType@IUPointIndex_tag_type_@draco@@@draco@@V12@@std@@PEAX@std@@@std@@V?$_List_val@U?$_List_simple_types@U?$pair@$$CBV?$IndexType@IUPointIndex_tag_type_@draco@@@draco@@V12@@std@@@std@@@2@$00@std@@QEAA@U_One_then_variadic_args_t@1@AEBV?$allocator@U?$pair@$$CBV?$IndexType@IUPointIndex_tag_type_@draco@@@draco@@V12@@std@@@1@@Z
	??$?0AEBV?$allocator@U?$pair@$$CBV?$IndexType@IUPointIndex_tag_type_@draco@@@draco@@V12@@std@@@std@@$$V@?$_Compressed_pair@V?$allocator@V?$_List_unchecked_iterator@V?$_List_val@U?$_List_simple_types@U?$pair@$$CBV?$IndexType@IUPointIndex_tag_type_@draco@@@draco@@V12@@std@@@std@@@std@@@std@@@std@@V?$_Vector_val@U?$_Simple_types@V?$_List_unchecked_iterator@V?$_List_val@U?$_List_simple_types@U?$pair@$$CBV?$IndexType@IUPointIndex_tag_type_@draco@@@draco@@V12@@std@@@std@@@std@@@std@@@std@@@2@$00@std@@QEAA@U_One_then_variadic_args_t@1@AEBV?$allocator@U?$pair@$$CBV?$IndexType@IUPointIndex_tag_type_@draco@@@draco@@V12@@std@@@1@@Z
	??$?0AEBV?$allocator@U?$pair@$$CBV?$IndexType@IUPointIndex_tag_type_@draco@@@draco@@V12@@std@@@std@@$0A@@?$_Hash_vec@V?$allocator@V?$_List_unchecked_iterator@V?$_List_val@U?$_List_simple_types@U?$pair@$$CBV?$IndexType@IUPointIndex_tag_type_@draco@@@draco@@V12@@std@@@std@@@std@@@std@@@std@@@std@@QEAA@AEBV?$allocator@U?$pair@$$CBV?$IndexType@IUPointIndex_tag_type_@draco@@@draco@@V12@@std@@@1@@Z
	??$?0AEBV?$allocator@U?$pair@$$CBV?$array@E$00@std@@V?$IndexType@IUAttributeValueIndex_tag_type_@draco@@@draco@@@std@@@std@@$$V@?$_Compressed_pair@V?$allocator@U?$_List_node@U?$pair@$$CBV?$array@E$00@std@@V?$IndexType@IUAttributeValueIndex_tag_type_@draco@@@draco@@@std@@PEAX@std@@@std@@V?$_List_val@U?$_List_simple_types@U?$pair@$$CBV?$array@E$00@std@@V?$IndexType@IUAttributeValueIndex_tag_type_@draco@@@draco@@@std@@@std@@@2@$00@std@@QEAA@U_One_then_variadic_args_t@1@AEBV?$allocator@U?$pair@$$CBV?$array@E$00@std@@V?$IndexType@IUAttributeValueIndex_tag_type_@draco@@@draco@@@std@@@1@@Z
	??$?0AEBV?$allocator@U?$pair@$$CBV?$array@E$00@std@@V?$IndexType@IUAttributeValueIndex_tag_type_@draco@@@draco@@@std@@@std@@$$V@?$_Compressed_pair@V?$allocator@V?$_List_unchecked_iterator@V?$_List_val@U?$_List_simple_types@U?$pair@$$CBV?$array@E$00@std@@V?$IndexType@IUAttributeValueIndex_tag_type_@draco@@@draco@@@std@@@std@@@std@@@std@@@std@@V?$_Vector_val@U?$_Simple_types@V?$_List_unchecked_iterator@V?$_List_val@U?$_List_simple_types@U?$pair@$$CBV?$array@E$00@std@@V?$IndexType@IUAttributeValueIndex_tag_type_@draco@@@draco@@@std@@@std@@@std@@@std@@@std@@@2@$00@std@@QEAA@U_One_then_variadic_args_t@1@AEBV?$allocator@U?$pair@$$CBV?$array@E$00@std@@V?$IndexType@IUAttributeValueIndex_tag_type_@draco@@@draco@@@std@@@1@@Z
	??$?0AEBV?$allocator@U?$pair@$$CBV?$array@E$00@std@@V?$IndexType@IUAttributeValueIndex_tag_type_@draco@@@draco@@@std@@@std@@$0A@@?$_Hash_vec@V?$allocator@V?$_List_unchecked_iterator@V?$_List_val@U?$_List_simple_types@U?$pair@$$CBV?$array@E$00@std@@V?$IndexType@IUAttributeValueIndex_tag_type_@draco@@@draco@@@std@@@std@@@std@@@std@@@std@@@std@@QEAA@AEBV?$allocator@U?$pair@$$CBV?$array@E$00@std@@V?$IndexType@IUAttributeValueIndex_tag_type_@draco@@@draco@@@std@@@1@@Z
	??$?0AEBV?$allocator@U?$pair@$$CBV?$array@E$01@std@@V?$IndexType@IUAttributeValueIndex_tag_type_@draco@@@draco@@@std@@@std@@$$V@?$_Compressed_pair@V?$allocator@U?$_List_node@U?$pair@$$CBV?$array@E$01@std@@V?$IndexType@IUAttributeValueIndex_tag_type_@draco@@@draco@@@std@@PEAX@std@@@std@@V?$_List_val@U?$_List_simple_types@U?$pair@$$CBV?$array@E$01@std@@V?$IndexType@IUAttributeValueIndex_tag_type_@draco@@@draco@@@std@@@std@@@2@$00@std@@QEAA@U_One_then_variadic_args_t@1@AEBV?$allocator@U?$pair@$$CBV?$array@E$01@std@@V?$IndexType@IUAttributeValueIndex_tag_type_@draco@@@draco@@@std@@@1@@Z
	??$?0AEBV?$allocator@U?$pair@$$CBV?$array@E$01@std@@V?$IndexType@IUAttributeValueIndex_tag_type_@draco@@@draco@@@std@@@std@@$$V@?$_Compressed_pair@V?$allocator@V?$_List_unchecked_iterator@V?$_List_val@U?$_List_simple_types@U?$pair@$$CBV?$array@E$01@std@@V?$IndexType@IUAttributeValueIndex_tag_type_@draco@@@draco@@@std@@@std@@@std@@@std@@@std@@V?$_Vector_val@U?$_Simple_types@V?$_List_unchecked_iterator@V?$_List_val@U?$_List_simple_types@U?$pair@$$CBV?$array@E$01@std@@V?$IndexType@IUAttributeValueIndex_tag_type_@draco@@@draco@@@std@@@std@@@std@@@std@@@std@@@2@$00@std@@QEAA@U_One_then_variadic_args_t@1@AEBV?$allocator@U?$pair@$$CBV?$array@E$01@std@@V?$IndexType@IUAttributeValueIndex_tag_type_@draco@@@draco@@@std@@@1@@Z
	??$?0AEBV?$allocator@U?$pair@$$CBV?$array@E$01@std@@V?$IndexType@IUAttributeValueIndex_tag_type_@draco@@@draco@@@std@@@std@@$0A@@?$_Hash_vec@V?$allocator@V?$_List_unchecked_iterator@V?$_List_val@U?$_List_simple_types@U?$pair@$$CBV?$array@E$01@std@@V?$IndexType@IUAttributeValueIndex_tag_type_@draco@@@draco@@@std@@@std@@@std@@@std@@@std@@@std@@QEAA@AEBV?$allocator@U?$pair@$$CBV?$array@E$01@std@@V?$IndexType@IUAttributeValueIndex_tag_type_@draco@@@draco@@@std@@@1@@Z
	??$?0AEBV?$allocator@U?$pair@$$CBV?$array@E$02@std@@V?$IndexType@IUAttributeValueIndex_tag_type_@draco@@@draco@@@std@@@std@@$$V@?$_Compressed_pair@V?$allocator@U?$_List_node@U?$pair@$$CBV?$array@E$02@std@@V?$IndexType@IUAttributeValueIndex_tag_type_@draco@@@draco@@@std@@PEAX@std@@@std@@V?$_List_val@U?$_List_simple_types@U?$pair@$$CBV?$array@E$02@std@@V?$IndexType@IUAttributeValueIndex_tag_type_@draco@@@draco@@@std@@@std@@@2@$00@std@@QEAA@U_One_then_variadic_args_t@1@AEBV?$allocator@U?$pair@$$CBV?$array@E$02@std@@V?$IndexType@IUAttributeValueIndex_tag_type_@draco@@@draco@@@std@@@1@@Z
	??$?0AEBV?$allocator@U?$pair@$$CBV?$array@E$02@std@@V?$IndexType@IUAttributeValueIndex_tag_type_@draco@@@draco@@@std@@@std@@$$V@?$_Compressed_pair@V?$allocator@V?$_List_unchecked_iterator@V?$_List_val@U?$_List_simple_types@U?$pair@$$CBV?$array@E$02@std@@V?$IndexType@IUAttributeValueIndex_tag_type_@draco@@@draco@@@std@@@std@@@std@@@std@@@std@@V?$_Vector_val@U?$_Simple_types@V?$_List_unchecked_iterator@V?$_List_val@U?$_List_simple_types@U?$pair@$$CBV?$array@E$02@std@@V?$IndexType@IUAttributeValueIndex_tag_type_@draco@@@draco@@@std@@@std@@@std@@@std@@@std@@@2@$00@std@@QEAA@U_One_then_variadic_args_t@1@AEBV?$allocator@U?$pair@$$CBV?$array@E$02@std@@V?$IndexType@IUAttributeValueIndex_tag_type_@draco@@@draco@@@std@@@1@@Z
	??$?0AEBV?$allocator@U?$pair@$$CBV?$array@E$02@std@@V?$IndexType@IUAttributeValueIndex_tag_type_@draco@@@draco@@@std@@@std@@$0A@@?$_Hash_vec@V?$allocator@V?$_List_unchecked_iterator@V?$_List_val@U?$_List_simple_types@U?$pair@$$CBV?$array@E$02@std@@V?$IndexType@IUAttributeValueIndex_tag_type_@draco@@@draco@@@std@@@std@@@std@@@std@@@std@@@std@@QEAA@AEBV?$allocator@U?$pair@$$CBV?$array@E$02@std@@V?$IndexType@IUAttributeValueIndex_tag_type_@draco@@@draco@@@std@@@1@@Z
	??$?0AEBV?$allocator@U?$pair@$$CBV?$array@E$03@std@@V?$IndexType@IUAttributeValueIndex_tag_type_@draco@@@draco@@@std@@@std@@$$V@?$_Compressed_pair@V?$allocator@U?$_List_node@U?$pair@$$CBV?$array@E$03@std@@V?$IndexType@IUAttributeValueIndex_tag_type_@draco@@@draco@@@std@@PEAX@std@@@std@@V?$_List_val@U?$_List_simple_types@U?$pair@$$CBV?$array@E$03@std@@V?$IndexType@IUAttributeValueIndex_tag_type_@draco@@@draco@@@std@@@std@@@2@$00@std@@QEAA@U_One_then_variadic_args_t@1@AEBV?$allocator@U?$pair@$$CBV?$array@E$03@std@@V?$IndexType@IUAttributeValueIndex_tag_type_@draco@@@draco@@@std@@@1@@Z
	??$?0AEBV?$allocator@U?$pair@$$CBV?$array@E$03@std@@V?$IndexType@IUAttributeValueIndex_tag_type_@draco@@@draco@@@std@@@std@@$$V@?$_Compressed_pair@V?$allocator@V?$_List_unchecked_iterator@V?$_List_val@U?$_List_simple_types@U?$pair@$$CBV?$array@E$03@std@@V?$IndexType@IUAttributeValueIndex_tag_type_@draco@@@draco@@@std@@@std@@@std@@@std@@@std@@V?$_Vector_val@U?$_Simple_types@V?$_List_unchecked_iterator@V?$_List_val@U?$_List_simple_types@U?$pair@$$CBV?$array@E$03@std@@V?$IndexType@IUAttributeValueIndex_tag_type_@draco@@@draco@@@std@@@std@@@std@@@std@@@std@@@2@$00@std@@QEAA@U_One_then_variadic_args_t@1@AEBV?$allocator@U?$pair@$$CBV?$array@E$03@std@@V?$IndexType@IUAttributeValueIndex_tag_type_@draco@@@draco@@@std@@@1@@Z
	??$?0AEBV?$allocator@U?$pair@$$CBV?$array@E$03@std@@V?$IndexType@IUAttributeValueIndex_tag_type_@draco@@@draco@@@std@@@std@@$0A@@?$_Hash_vec@V?$allocator@V?$_List_unchecked_iterator@V?$_List_val@U?$_List_simple_types@U?$pair@$$CBV?$array@E$03@std@@V?$IndexType@IUAttributeValueIndex_tag_type_@draco@@@draco@@@std@@@std@@@std@@@std@@@std@@@std@@QEAA@AEBV?$allocator@U?$pair@$$CBV?$array@E$03@std@@V?$IndexType@IUAttributeValueIndex_tag_type_@draco@@@draco@@@std@@@1@@Z
	??$?0AEBV?$allocator@U?$pair@$$CBV?$array@G$00@std@@V?$IndexType@IUAttributeValueIndex_tag_type_@draco@@@draco@@@std@@@std@@$$V@?$_Compressed_pair@V?$allocator@U?$_List_node@U?$pair@$$CBV?$array@G$00@std@@V?$IndexType@IUAttributeValueIndex_tag_type_@draco@@@draco@@@std@@PEAX@std@@@std@@V?$_List_val@U?$_List_simple_types@U?$pair@$$CBV?$array@G$00@std@@V?$IndexType@IUAttributeValueIndex_tag_type_@draco@@@draco@@@std@@@std@@@2@$00@std@@QEAA@U_One_then_variadic_args_t@1@AEBV?$allocator@U?$pair@$$CBV?$array@G$00@std@@V?$IndexType@IUAttributeValueIndex_tag_type_@draco@@@draco@@@std@@@1@@Z
	??$?0AEBV?$allocator@U?$pair@$$CBV?$array@G$00@std@@V?$IndexType@IUAttributeValueIndex_tag_type_@draco@@@draco@@@std@@@std@@$$V@?$_Compressed_pair@V?$allocator@V?$_List_unchecked_iterator@V?$_List_val@U?$_List_simple_types@U?$pair@$$CBV?$array@G$00@std@@V?$IndexType@IUAttributeValueIndex_tag_type_@draco@@@draco@@@std@@@std@@@std@@@std@@@std@@V?$_Vector_val@U?$_Simple_types@V?$_List_unchecked_iterator@V?$_List_val@U?$_List_simple_types@U?$pair@$$CBV?$array@G$00@std@@V?$IndexType@IUAttributeValueIndex_tag_type_@draco@@@draco@@@std@@@std@@@std@@@std@@@std@@@2@$00@std@@QEAA@U_One_then_variadic_args_t@1@AEBV?$allocator@U?$pair@$$CBV?$array@G$00@std@@V?$IndexType@IUAttributeValueIndex_tag_type_@draco@@@draco@@@std@@@1@@Z
	??$?0AEBV?$allocator@U?$pair@$$CBV?$array@G$00@std@@V?$IndexType@IUAttributeValueIndex_tag_type_@draco@@@draco@@@std@@@std@@$0A@@?$_Hash_vec@V?$allocator@V?$_List_unchecked_iterator@V?$_List_val@U?$_List_simple_types@U?$pair@$$CBV?$array@G$00@std@@V?$IndexType@IUAttributeValueIndex_tag_type_@draco@@@draco@@@std@@@std@@@std@@@std@@@std@@@std@@QEAA@AEBV?$allocator@U?$pair@$$CBV?$array@G$00@std@@V?$IndexType@IUAttributeValueIndex_tag_type_@draco@@@draco@@@std@@@1@@Z
	??$?0AEBV?$allocator@U?$pair@$$CBV?$array@G$01@std@@V?$IndexType@IUAttributeValueIndex_tag_type_@draco@@@draco@@@std@@@std@@$$V@?$_Compressed_pair@V?$allocator@U?$_List_node@U?$pair@$$CBV?$array@G$01@std@@V?$IndexType@IUAttributeValueIndex_tag_type_@draco@@@draco@@@std@@PEAX@std@@@std@@V?$_List_val@U?$_List_simple_types@U?$pair@$$CBV?$array@G$01@std@@V?$IndexType@IUAttributeValueIndex_tag_type_@draco@@@draco@@@std@@@std@@@2@$00@std@@QEAA@U_One_then_variadic_args_t@1@AEBV?$allocator@U?$pair@$$CBV?$array@G$01@std@@V?$IndexType@IUAttributeValueIndex_tag_type_@draco@@@draco@@@std@@@1@@Z
	??$?0AEBV?$allocator@U?$pair@$$CBV?$array@G$01@std@@V?$IndexType@IUAttributeValueIndex_tag_type_@draco@@@draco@@@std@@@std@@$$V@?$_Compressed_pair@V?$allocator@V?$_List_unchecked_iterator@V?$_List_val@U?$_List_simple_types@U?$pair@$$CBV?$array@G$01@std@@V?$IndexType@IUAttributeValueIndex_tag_type_@draco@@@draco@@@std@@@std@@@std@@@std@@@std@@V?$_Vector_val@U?$_Simple_types@V?$_List_unchecked_iterator@V?$_List_val@U?$_List_simple_types@U?$pair@$$CBV?$array@G$01@std@@V?$IndexType@IUAttributeValueIndex_tag_type_@draco@@@draco@@@std@@@std@@@std@@@std@@@std@@@2@$00@std@@QEAA@U_One_then_variadic_args_t@1@AEBV?$allocator@U?$pair@$$CBV?$array@G$01@std@@V?$IndexType@IUAttributeValueIndex_tag_type_@draco@@@draco@@@std@@@1@@Z
	??$?0AEBV?$allocator@U?$pair@$$CBV?$array@G$01@std@@V?$IndexType@IUAttributeValueIndex_tag_type_@draco@@@draco@@@std@@@std@@$0A@@?$_Hash_vec@V?$allocator@V?$_List_unchecked_iterator@V?$_List_val@U?$_List_simple_types@U?$pair@$$CBV?$array@G$01@std@@V?$IndexType@IUAttributeValueIndex_tag_type_@draco@@@draco@@@std@@@std@@@std@@@std@@@std@@@std@@QEAA@AEBV?$allocator@U?$pair@$$CBV?$array@G$01@std@@V?$IndexType@IUAttributeValueIndex_tag_type_@draco@@@draco@@@std@@@1@@Z
	??$?0AEBV?$allocator@U?$pair@$$CBV?$array@G$02@std@@V?$IndexType@IUAttributeValueIndex_tag_type_@draco@@@draco@@@std@@@std@@$$V@?$_Compressed_pair@V?$allocator@U?$_List_node@U?$pair@$$CBV?$array@G$02@std@@V?$IndexType@IUAttributeValueIndex_tag_type_@draco@@@draco@@@std@@PEAX@std@@@std@@V?$_List_val@U?$_List_simple_types@U?$pair@$$CBV?$array@G$02@std@@V?$IndexType@IUAttributeValueIndex_tag_type_@draco@@@draco@@@std@@@std@@@2@$00@std@@QEAA@U_One_then_variadic_args_t@1@AEBV?$allocator@U?$pair@$$CBV?$array@G$02@std@@V?$IndexType@IUAttributeValueIndex_tag_type_@draco@@@draco@@@std@@@1@@Z
	??$?0AEBV?$allocator@U?$pair@$$CBV?$array@G$02@std@@V?$IndexType@IUAttributeValueIndex_tag_type_@draco@@@draco@@@std@@@std@@$$V@?$_Compressed_pair@V?$allocator@V?$_List_unchecked_iterator@V?$_List_val@U?$_List_simple_types@U?$pair@$$CBV?$array@G$02@std@@V?$IndexType@IUAttributeValueIndex_tag_type_@draco@@@draco@@@std@@@std@@@std@@@std@@@std@@V?$_Vector_val@U?$_Simple_types@V?$_List_unchecked_iterator@V?$_List_val@U?$_List_simple_types@U?$pair@$$CBV?$array@G$02@std@@V?$IndexType@IUAttributeValueIndex_tag_type_@draco@@@draco@@@std@@@std@@@std@@@std@@@std@@@2@$00@std@@QEAA@U_One_then_variadic_args_t@1@AEBV?$allocator@U?$pair@$$CBV?$array@G$02@std@@V?$IndexType@IUAttributeValueIndex_tag_type_@draco@@@draco@@@std@@@1@@Z
	??$?0AEBV?$allocator@U?$pair@$$CBV?$array@G$02@std@@V?$IndexType@IUAttributeValueIndex_tag_type_@draco@@@draco@@@std@@@std@@$0A@@?$_Hash_vec@V?$allocator@V?$_List_unchecked_iterator@V?$_List_val@U?$_List_simple_types@U?$pair@$$CBV?$array@G$02@std@@V?$IndexType@IUAttributeValueIndex_tag_type_@draco@@@draco@@@std@@@std@@@std@@@std@@@std@@@std@@QEAA@AEBV?$allocator@U?$pair@$$CBV?$array@G$02@std@@V?$IndexType@IUAttributeValueIndex_tag_type_@draco@@@draco@@@std@@@1@@Z
	??$?0AEBV?$allocator@U?$pair@$$CBV?$array@G$03@std@@V?$IndexType@IUAttributeValueIndex_tag_type_@draco@@@draco@@@std@@@std@@$$V@?$_Compressed_pair@V?$allocator@U?$_List_node@U?$pair@$$CBV?$array@G$03@std@@V?$IndexType@IUAttributeValueIndex_tag_type_@draco@@@draco@@@std@@PEAX@std@@@std@@V?$_List_val@U?$_List_simple_types@U?$pair@$$CBV?$array@G$03@std@@V?$IndexType@IUAttributeValueIndex_tag_type_@draco@@@draco@@@std@@@std@@@2@$00@std@@QEAA@U_One_then_variadic_args_t@1@AEBV?$allocator@U?$pair@$$CBV?$array@G$03@std@@V?$IndexType@IUAttributeValueIndex_tag_type_@draco@@@draco@@@std@@@1@@Z
	??$?0AEBV?$allocator@U?$pair@$$CBV?$array@G$03@std@@V?$IndexType@IUAttributeValueIndex_tag_type_@draco@@@draco@@@std@@@std@@$$V@?$_Compressed_pair@V?$allocator@V?$_List_unchecked_iterator@V?$_List_val@U?$_List_simple_types@U?$pair@$$CBV?$array@G$03@std@@V?$IndexType@IUAttributeValueIndex_tag_type_@draco@@@draco@@@std@@@std@@@std@@@std@@@std@@V?$_Vector_val@U?$_Simple_types@V?$_List_unchecked_iterator@V?$_List_val@U?$_List_simple_types@U?$pair@$$CBV?$array@G$03@std@@V?$IndexType@IUAttributeValueIndex_tag_type_@draco@@@draco@@@std@@@std@@@std@@@std@@@std@@@2@$00@std@@QEAA@U_One_then_variadic_args_t@1@AEBV?$allocator@U?$pair@$$CBV?$array@G$03@std@@V?$IndexType@IUAttributeValueIndex_tag_type_@draco@@@draco@@@std@@@1@@Z
	??$?0AEBV?$allocator@U?$pair@$$CBV?$array@G$03@std@@V?$IndexType@IUAttributeValueIndex_tag_type_@draco@@@draco@@@std@@@std@@$0A@@?$_Hash_vec@V?$allocator@V?$_List_unchecked_iterator@V?$_List_val@U?$_List_simple_types@U?$pair@$$CBV?$array@G$03@std@@V?$IndexType@IUAttributeValueIndex_tag_type_@draco@@@draco@@@std@@@std@@@std@@@std@@@std@@@std@@QEAA@AEBV?$allocator@U?$pair@$$CBV?$array@G$03@std@@V?$IndexType@IUAttributeValueIndex_tag_type_@draco@@@draco@@@std@@@1@@Z
	??$?0AEBV?$allocator@U?$pair@$$CBV?$array@I$00@std@@V?$IndexType@IUAttributeValueIndex_tag_type_@draco@@@draco@@@std@@@std@@$$V@?$_Compressed_pair@V?$allocator@U?$_List_node@U?$pair@$$CBV?$array@I$00@std@@V?$IndexType@IUAttributeValueIndex_tag_type_@draco@@@draco@@@std@@PEAX@std@@@std@@V?$_List_val@U?$_List_simple_types@U?$pair@$$CBV?$array@I$00@std@@V?$IndexType@IUAttributeValueIndex_tag_type_@draco@@@draco@@@std@@@std@@@2@$00@std@@QEAA@U_One_then_variadic_args_t@1@AEBV?$allocator@U?$pair@$$CBV?$array@I$00@std@@V?$IndexType@IUAttributeValueIndex_tag_type_@draco@@@draco@@@std@@@1@@Z
	??$?0AEBV?$allocator@U?$pair@$$CBV?$array@I$00@std@@V?$IndexType@IUAttributeValueIndex_tag_type_@draco@@@draco@@@std@@@std@@$$V@?$_Compressed_pair@V?$allocator@V?$_List_unchecked_iterator@V?$_List_val@U?$_List_simple_types@U?$pair@$$CBV?$array@I$00@std@@V?$IndexType@IUAttributeValueIndex_tag_type_@draco@@@draco@@@std@@@std@@@std@@@std@@@std@@V?$_Vector_val@U?$_Simple_types@V?$_List_unchecked_iterator@V?$_List_val@U?$_List_simple_types@U?$pair@$$CBV?$array@I$00@std@@V?$IndexType@IUAttributeValueIndex_tag_type_@draco@@@draco@@@std@@@std@@@std@@@std@@@std@@@2@$00@std@@QEAA@U_One_then_variadic_args_t@1@AEBV?$allocator@U?$pair@$$CBV?$array@I$00@std@@V?$IndexType@IUAttributeValueIndex_tag_type_@draco@@@draco@@@std@@@1@@Z
	??$?0AEBV?$allocator@U?$pair@$$CBV?$array@I$00@std@@V?$IndexType@IUAttributeValueIndex_tag_type_@draco@@@draco@@@std@@@std@@$0A@@?$_Hash_vec@V?$allocator@V?$_List_unchecked_iterator@V?$_List_val@U?$_List_simple_types@U?$pair@$$CBV?$array@I$00@std@@V?$IndexType@IUAttributeValueIndex_tag_type_@draco@@@draco@@@std@@@std@@@std@@@std@@@std@@@std@@QEAA@AEBV?$allocator@U?$pair@$$CBV?$array@I$00@std@@V?$IndexType@IUAttributeValueIndex_tag_type_@draco@@@draco@@@std@@@1@@Z
	??$?0AEBV?$allocator@U?$pair@$$CBV?$array@I$01@std@@V?$IndexType@IUAttributeValueIndex_tag_type_@draco@@@draco@@@std@@@std@@$$V@?$_Compressed_pair@V?$allocator@U?$_List_node@U?$pair@$$CBV?$array@I$01@std@@V?$IndexType@IUAttributeValueIndex_tag_type_@draco@@@draco@@@std@@PEAX@std@@@std@@V?$_List_val@U?$_List_simple_types@U?$pair@$$CBV?$array@I$01@std@@V?$IndexType@IUAttributeValueIndex_tag_type_@draco@@@draco@@@std@@@std@@@2@$00@std@@QEAA@U_One_then_variadic_args_t@1@AEBV?$allocator@U?$pair@$$CBV?$array@I$01@std@@V?$IndexType@IUAttributeValueIndex_tag_type_@draco@@@draco@@@std@@@1@@Z
	??$?0AEBV?$allocator@U?$pair@$$CBV?$array@I$01@std@@V?$IndexType@IUAttributeValueIndex_tag_type_@draco@@@draco@@@std@@@std@@$$V@?$_Compressed_pair@V?$allocator@V?$_List_unchecked_iterator@V?$_List_val@U?$_List_simple_types@U?$pair@$$CBV?$array@I$01@std@@V?$IndexType@IUAttributeValueIndex_tag_type_@draco@@@draco@@@std@@@std@@@std@@@std@@@std@@V?$_Vector_val@U?$_Simple_types@V?$_List_unchecked_iterator@V?$_List_val@U?$_List_simple_types@U?$pair@$$CBV?$array@I$01@std@@V?$IndexType@IUAttributeValueIndex_tag_type_@draco@@@draco@@@std@@@std@@@std@@@std@@@std@@@2@$00@std@@QEAA@U_One_then_variadic_args_t@1@AEBV?$allocator@U?$pair@$$CBV?$array@I$01@std@@V?$IndexType@IUAttributeValueIndex_tag_type_@draco@@@draco@@@std@@@1@@Z
	??$?0AEBV?$allocator@U?$pair@$$CBV?$array@I$01@std@@V?$IndexType@IUAttributeValueIndex_tag_type_@draco@@@draco@@@std@@@std@@$0A@@?$_Hash_vec@V?$allocator@V?$_List_unchecked_iterator@V?$_List_val@U?$_List_simple_types@U?$pair@$$CBV?$array@I$01@std@@V?$IndexType@IUAttributeValueIndex_tag_type_@draco@@@draco@@@std@@@std@@@std@@@std@@@std@@@std@@QEAA@AEBV?$allocator@U?$pair@$$CBV?$array@I$01@std@@V?$IndexType@IUAttributeValueIndex_tag_type_@draco@@@draco@@@std@@@1@@Z
	??$?0AEBV?$allocator@U?$pair@$$CBV?$array@I$02@std@@V?$IndexType@IUAttributeValueIndex_tag_type_@draco@@@draco@@@std@@@std@@$$V@?$_Compressed_pair@V?$allocator@U?$_List_node@U?$pair@$$CBV?$array@I$02@std@@V?$IndexType@IUAttributeValueIndex_tag_type_@draco@@@draco@@@std@@PEAX@std@@@std@@V?$_List_val@U?$_List_simple_types@U?$pair@$$CBV?$array@I$02@std@@V?$IndexType@IUAttributeValueIndex_tag_type_@draco@@@draco@@@std@@@std@@@2@$00@std@@QEAA@U_One_then_variadic_args_t@1@AEBV?$allocator@U?$pair@$$CBV?$array@I$02@std@@V?$IndexType@IUAttributeValueIndex_tag_type_@draco@@@draco@@@std@@@1@@Z
	??$?0AEBV?$allocator@U?$pair@$$CBV?$array@I$02@std@@V?$IndexType@IUAttributeValueIndex_tag_type_@draco@@@draco@@@std@@@std@@$$V@?$_Compressed_pair@V?$allocator@V?$_List_unchecked_iterator@V?$_List_val@U?$_List_simple_types@U?$pair@$$CBV?$array@I$02@std@@V?$IndexType@IUAttributeValueIndex_tag_type_@draco@@@draco@@@std@@@std@@@std@@@std@@@std@@V?$_Vector_val@U?$_Simple_types@V?$_List_unchecked_iterator@V?$_List_val@U?$_List_simple_types@U?$pair@$$CBV?$array@I$02@std@@V?$IndexType@IUAttributeValueIndex_tag_type_@draco@@@draco@@@std@@@std@@@std@@@std@@@std@@@2@$00@std@@QEAA@U_One_then_variadic_args_t@1@AEBV?$allocator@U?$pair@$$CBV?$array@I$02@std@@V?$IndexType@IUAttributeValueIndex_tag_type_@draco@@@draco@@@std@@@1@@Z
	??$?0AEBV?$allocator@U?$pair@$$CBV?$array@I$02@std@@V?$IndexType@IUAttributeValueIndex_tag_type_@draco@@@draco@@@std@@@std@@$0A@@?$_Hash_vec@V?$allocator@V?$_List_unchecked_iterator@V?$_List_val@U?$_List_simple_types@U?$pair@$$CBV?$array@I$02@std@@V?$IndexType@IUAttributeValueIndex_tag_type_@draco@@@draco@@@std@@@std@@@std@@@std@@@std@@@std@@QEAA@AEBV?$allocator@U?$pair@$$CBV?$array@I$02@std@@V?$IndexType@IUAttributeValueIndex_tag_type_@draco@@@draco@@@std@@@1@@Z
	??$?0AEBV?$allocator@U?$pair@$$CBV?$array@I$03@std@@V?$IndexType@IUAttributeValueIndex_tag_type_@draco@@@draco@@@std@@@std@@$$V@?$_Compressed_pair@V?$allocator@U?$_List_node@U?$pair@$$CBV?$array@I$03@std@@V?$IndexType@IUAttributeValueIndex_tag_type_@draco@@@draco@@@std@@PEAX@std@@@std@@V?$_List_val@U?$_List_simple_types@U?$pair@$$CBV?$array@I$03@std@@V?$IndexType@IUAttributeValueIndex_tag_type_@draco@@@draco@@@std@@@std@@@2@$00@std@@QEAA@U_One_then_variadic_args_t@1@AEBV?$allocator@U?$pair@$$CBV?$array@I$03@std@@V?$IndexType@IUAttributeValueIndex_tag_type_@draco@@@draco@@@std@@@1@@Z
	??$?0AEBV?$allocator@U?$pair@$$CBV?$array@I$03@std@@V?$IndexType@IUAttributeValueIndex_tag_type_@draco@@@draco@@@std@@@std@@$$V@?$_Compressed_pair@V?$allocator@V?$_List_unchecked_iterator@V?$_List_val@U?$_List_simple_types@U?$pair@$$CBV?$array@I$03@std@@V?$IndexType@IUAttributeValueIndex_tag_type_@draco@@@draco@@@std@@@std@@@std@@@std@@@std@@V?$_Vector_val@U?$_Simple_types@V?$_List_unchecked_iterator@V?$_List_val@U?$_List_simple_types@U?$pair@$$CBV?$array@I$03@std@@V?$IndexType@IUAttributeValueIndex_tag_type_@draco@@@draco@@@std@@@std@@@std@@@std@@@std@@@2@$00@std@@QEAA@U_One_then_variadic_args_t@1@AEBV?$allocator@U?$pair@$$CBV?$array@I$03@std@@V?$IndexType@IUAttributeValueIndex_tag_type_@draco@@@draco@@@std@@@1@@Z
	??$?0AEBV?$allocator@U?$pair@$$CBV?$array@I$03@std@@V?$IndexType@IUAttributeValueIndex_tag_type_@draco@@@draco@@@std@@@std@@$0A@@?$_Hash_vec@V?$allocator@V?$_List_unchecked_iterator@V?$_List_val@U?$_List_simple_types@U?$pair@$$CBV?$array@I$03@std@@V?$IndexType@IUAttributeValueIndex_tag_type_@draco@@@draco@@@std@@@std@@@std@@@std@@@std@@@std@@QEAA@AEBV?$allocator@U?$pair@$$CBV?$array@I$03@std@@V?$IndexType@IUAttributeValueIndex_tag_type_@draco@@@draco@@@std@@@1@@Z
	??$?0AEBV?$allocator@U?$pair@$$CBV?$basic_string@DU?$char_traits@D@std@@V?$allocator@D@2@@std@@H@std@@@std@@$$V@?$_Compressed_pair@V?$allocator@U?$_List_node@U?$pair@$$CBV?$basic_string@DU?$char_traits@D@std@@V?$allocator@D@2@@std@@H@std@@PEAX@std@@@std@@V?$_List_val@U?$_List_simple_types@U?$pair@$$CBV?$basic_string@DU?$char_traits@D@std@@V?$allocator@D@2@@std@@H@std@@@std@@@2@$00@std@@QEAA@U_One_then_variadic_args_t@1@AEBV?$allocator@U?$pair@$$CBV?$basic_string@DU?$char_traits@D@std@@V?$allocator@D@2@@std@@H@std@@@1@@Z
	??$?0AEBV?$allocator@U?$pair@$$CBV?$basic_string@DU?$char_traits@D@std@@V?$allocator@D@2@@std@@H@std@@@std@@$$V@?$_Compressed_pair@V?$allocator@V?$_List_unchecked_iterator@V?$_List_val@U?$_List_simple_types@U?$pair@$$CBV?$basic_string@DU?$char_traits@D@std@@V?$allocator@D@2@@std@@H@std@@@std@@@std@@@std@@@std@@V?$_Vector_val@U?$_Simple_types@V?$_List_unchecked_iterator@V?$_List_val@U?$_List_simple_types@U?$pair@$$CBV?$basic_string@DU?$char_traits@D@std@@V?$allocator@D@2@@std@@H@std@@@std@@@std@@@std@@@std@@@2@$00@std@@QEAA@U_One_then_variadic_args_t@1@AEBV?$allocator@U?$pair@$$CBV?$basic_string@DU?$char_traits@D@std@@V?$allocator@D@2@@std@@H@std@@@1@@Z
	??$?0AEBV?$allocator@U?$pair@$$CBV?$basic_string@DU?$char_traits@D@std@@V?$allocator@D@2@@std@@H@std@@@std@@$0A@@?$_Hash_vec@V?$allocator@V?$_List_unchecked_iterator@V?$_List_val@U?$_List_simple_types@U?$pair@$$CBV?$basic_string@DU?$char_traits@D@std@@V?$allocator@D@2@@std@@H@std@@@std@@@std@@@std@@@std@@@std@@QEAA@AEBV?$allocator@U?$pair@$$CBV?$basic_string@DU?$char_traits@D@std@@V?$allocator@D@2@@std@@H@std@@@1@@Z
	??$?0AEBV?$allocator@V?$IndexType@IUAttributeValueIndex_tag_type_@draco@@@draco@@@std@@$$V@?$_Compressed_pair@V?$allocator@V?$IndexType@IUAttributeValueIndex_tag_type_@draco@@@draco@@@std@@V?$_Vector_val@U?$_Simple_types@V?$IndexType@IUAttributeValueIndex_tag_type_@draco@@@draco@@@std@@@2@$00@std@@QEAA@U_One_then_variadic_args_t@1@AEBV?$allocator@V?$IndexType@IUAttributeValueIndex_tag_type_@draco@@@draco@@@1@@Z
	??$?0AEBV?$allocator@V?$IndexType@IUPointIndex_tag_type_@draco@@@draco@@@std@@$$V@?$_Compressed_pair@V?$allocator@V?$IndexType@IUPointIndex_tag_type_@draco@@@draco@@@std@@V?$_Vector_val@U?$_Simple_types@V?$IndexType@IUPointIndex_tag_type_@draco@@@draco@@@std@@@2@$00@std@@QEAA@U_One_then_variadic_args_t@1@AEBV?$allocator@V?$IndexType@IUPointIndex_tag_type_@draco@@@draco@@@1@@Z
	??$?0AEBV?$allocator@V?$array@I$02@std@@@std@@$$V@?$_Compressed_pair@V?$allocator@U?$_List_node@V?$array@I$02@std@@PEAX@std@@@std@@V?$_List_val@U?$_List_simple_types@V?$array@I$02@std@@@std@@@2@$00@std@@QEAA@U_One_then_variadic_args_t@1@AEBV?$allocator@V?$array@I$02@std@@@1@@Z
	??$?0AEBV?$allocator@V?$array@I$02@std@@@std@@$$V@?$_Compressed_pair@V?$allocator@V?$_List_unchecked_const_iterator@V?$_List_val@U?$_List_simple_types@V?$array@I$02@std@@@std@@@std@@U_Iterator_base0@2@@std@@@std@@V?$_Vector_val@U?$_Simple_types@V?$_List_unchecked_const_iterator@V?$_List_val@U?$_List_simple_types@V?$array@I$02@std@@@std@@@std@@U_Iterator_base0@2@@std@@@std@@@2@$00@std@@QEAA@U_One_then_variadic_args_t@1@AEBV?$allocator@V?$array@I$02@std@@@1@@Z
	??$?0AEBV?$allocator@V?$array@I$02@std@@@std@@$0A@@?$_Hash_vec@V?$allocator@V?$_List_unchecked_const_iterator@V?$_List_val@U?$_List_simple_types@V?$array@I$02@std@@@std@@@std@@U_Iterator_base0@2@@std@@@std@@@std@@QEAA@AEBV?$allocator@V?$array@I$02@std@@@1@@Z
	??$?0AEBV?$allocator@V?$array@V?$IndexType@IUVertexIndex_tag_type_@draco@@@draco@@$02@std@@@std@@$$V@?$_Compressed_pair@V?$allocator@V?$array@V?$IndexType@IUVertexIndex_tag_type_@draco@@@draco@@$02@std@@@std@@V?$_Vector_val@U?$_Simple_types@V?$array@V?$IndexType@IUVertexIndex_tag_type_@draco@@@draco@@$02@std@@@std@@@2@$00@std@@QEAA@U_One_then_variadic_args_t@1@AEBV?$allocator@V?$array@V?$IndexType@IUVertexIndex_tag_type_@draco@@@draco@@$02@std@@@1@@Z
	??$?0AEBV?$allocator@V?$tuple@PEAVPointAttribute@draco@@IW4DataType@2@II@std@@@std@@$$V@?$_Compressed_pair@V?$allocator@V?$tuple@PEAVPointAttribute@draco@@IW4DataType@2@II@std@@@std@@V?$_Vector_val@U?$_Simple_types@V?$tuple@PEAVPointAttribute@draco@@IW4DataType@2@II@std@@@std@@@2@$00@std@@QEAA@U_One_then_variadic_args_t@1@AEBV?$allocator@V?$tuple@PEAVPointAttribute@draco@@IW4DataType@2@II@std@@@1@@Z
	??$?0AEBV?$allocator@V?$vector@IV?$allocator@I@std@@@std@@@std@@$$V@?$_Compressed_pair@V?$allocator@V?$vector@IV?$allocator@I@std@@@std@@@std@@V?$_Vector_val@U?$_Simple_types@V?$vector@IV?$allocator@I@std@@@std@@@std@@@2@$00@std@@QEAA@U_One_then_variadic_args_t@1@AEBV?$allocator@V?$vector@IV?$allocator@I@std@@@std@@@1@@Z
	??$?0AEBV?$allocator@_K@std@@$$V@?$_Compressed_pair@V?$allocator@_K@std@@V?$_Vector_val@U?$_Simple_types@_K@std@@@2@$00@std@@QEAA@U_One_then_variadic_args_t@1@AEBV?$allocator@_K@1@@Z
	??$?0AEBV?$array@I$02@std@@@?$_List_node_emplace_op2@V?$allocator@U?$_List_node@V?$array@I$02@std@@PEAX@std@@@std@@@std@@QEAA@AEAV?$allocator@U?$_List_node@V?$array@I$02@std@@PEAX@std@@@1@AEBV?$array@I$02@1@@Z
	??$?0AEBV?$basic_string@DU?$char_traits@D@std@@V?$allocator@D@2@@std@@$$Z$$V@?$pair@$$CBV?$basic_string@DU?$char_traits@D@std@@V?$allocator@D@2@@std@@H@std@@QEAA@Upiecewise_construct_t@1@V?$tuple@AEBV?$basic_string@DU?$char_traits@D@std@@V?$allocator@D@2@@std@@@1@V?$tuple@$$V@1@@Z
	??$?0AEBV?$basic_string@DU?$char_traits@D@std@@V?$allocator@D@2@@std@@$$Z$$V@?$pair@$$CBV?$basic_string@DU?$char_traits@D@std@@V?$allocator@D@2@@std@@V12@@std@@QEAA@Upiecewise_construct_t@1@V?$tuple@AEBV?$basic_string@DU?$char_traits@D@std@@V?$allocator@D@2@@std@@@1@V?$tuple@$$V@1@@Z
	??$?0AEBV?$basic_string@DU?$char_traits@D@std@@V?$allocator@D@2@@std@@$$Z$$V@?$pair@$$CBV?$basic_string@DU?$char_traits@D@std@@V?$allocator@D@2@@std@@V?$unique_ptr@VMetadata@draco@@U?$default_delete@VMetadata@draco@@@std@@@2@@std@@QEAA@Upiecewise_construct_t@1@V?$tuple@AEBV?$basic_string@DU?$char_traits@D@std@@V?$allocator@D@2@@std@@@1@V?$tuple@$$V@1@@Z
	??$?0AEBV?$basic_string@DU?$char_traits@D@std@@V?$allocator@D@2@@std@@$0A@@?$tuple@AEBV?$basic_string@DU?$char_traits@D@std@@V?$allocator@D@2@@std@@@std@@QEAA@AEBV?$basic_string@DU?$char_traits@D@std@@V?$allocator@D@2@@1@@Z
	??$?0AEBV?$basic_string@DU?$char_traits@D@std@@V?$allocator@D@2@@std@@@?$_Tuple_val@AEBV?$basic_string@DU?$char_traits@D@std@@V?$allocator@D@2@@std@@@std@@QEAA@AEBV?$basic_string@DU?$char_traits@D@std@@V?$allocator@D@2@@1@@Z
	??$?0AEBV?$basic_string@DU?$char_traits@D@std@@V?$allocator@D@2@@std@@VEntryValue@draco@@$0A@@?$pair@V?$basic_string@DU?$char_traits@D@std@@V?$allocator@D@2@@std@@VEntryValue@draco@@@std@@QEAA@AEBV?$basic_string@DU?$char_traits@D@std@@V?$allocator@D@2@@1@$$QEAVEntryValue@draco@@@Z
	??$?0AEBW4DataType@draco@@@?$_Tuple_val@W4DataType@draco@@@std@@QEAA@AEBW4DataType@draco@@@Z
	??$?0AEBW4Type@GeometryAttribute@draco@@AEAVOptions@2@$0A@@?$pair@W4Type@GeometryAttribute@draco@@VOptions@3@@std@@QEAA@AEBW4Type@GeometryAttribute@draco@@AEAVOptions@4@@Z
	??$?0C@?$allocator@U_Container_proxy@std@@@std@@QEAA@AEBV?$allocator@C@1@@Z
	??$?0D@?$allocator@U_Container_proxy@std@@@std@@QEAA@AEBV?$allocator@D@1@@Z
	??$?0E@?$allocator@U_Container_proxy@std@@@std@@QEAA@AEBV?$allocator@E@1@@Z
	??$?0E@EntryValue@draco@@QEAA@AEBV?$vector@EV?$allocator@E@std@@@std@@@Z
	??$?0F@?$allocator@U_Container_proxy@std@@@std@@QEAA@AEBV?$allocator@F@1@@Z
	??$?0G@?$allocator@U_Container_proxy@std@@@std@@QEAA@AEBV?$allocator@G@1@@Z
	??$?0H$$V$0A@@?$tuple@$$QEAH@std@@QEAA@$$QEAH@Z
	??$?0H$01@?$VectorD@I$01@draco@@QEAA@AEBV?$VectorD@H$01@1@@Z
	??$?0H@?$_Tuple_val@$$QEAH@std@@QEAA@$$QEAH@Z
	??$?0H@?$allocator@U_Container_proxy@std@@@std@@QEAA@AEBV?$allocator@H@1@@Z
	??$?0H@EntryValue@draco@@QEAA@AEBH@Z
	??$?0H@EntryValue@draco@@QEAA@AEBV?$vector@HV?$allocator@H@std@@@std@@@Z
	??$?0HVOptions@draco@@$0A@@?$pair@$$CBHVOptions@draco@@@std@@QEAA@$$QEAU?$pair@HVOptions@draco@@@1@@Z
	??$?0I$01@?$VectorD@H$01@draco@@QEAA@AEBV?$VectorD@I$01@1@@Z
	??$?0I$0A@@?$tuple@I@std@@QEAA@XZ
	??$?0I$0A@@?$tuple@II@std@@QEAA@XZ
	??$?0I$0A@@?$tuple@IW4DataType@draco@@II@std@@QEAA@XZ
	??$?0I@?$allocator@U_Container_proxy@std@@@std@@QEAA@AEBV?$allocator@I@1@@Z
	??$?0M@?$_Compressed_pair@U?$equal_to@H@std@@M$00@std@@QEAA@U_Zero_then_variadic_args_t@1@$$QEAM@Z
	??$?0M@?$_Compressed_pair@U?$equal_to@V?$array@E$00@std@@@std@@M$00@std@@QEAA@U_Zero_then_variadic_args_t@1@$$QEAM@Z
	??$?0M@?$_Compressed_pair@U?$equal_to@V?$array@E$01@std@@@std@@M$00@std@@QEAA@U_Zero_then_variadic_args_t@1@$$QEAM@Z
	??$?0M@?$_Compressed_pair@U?$equal_to@V?$array@E$02@std@@@std@@M$00@std@@QEAA@U_Zero_then_variadic_args_t@1@$$QEAM@Z
	??$?0M@?$_Compressed_pair@U?$equal_to@V?$array@E$03@std@@@std@@M$00@std@@QEAA@U_Zero_then_variadic_args_t@1@$$QEAM@Z
	??$?0M@?$_Compressed_pair@U?$equal_to@V?$array@G$00@std@@@std@@M$00@std@@QEAA@U_Zero_then_variadic_args_t@1@$$QEAM@Z
	??$?0M@?$_Compressed_pair@U?$equal_to@V?$array@G$01@std@@@std@@M$00@std@@QEAA@U_Zero_then_variadic_args_t@1@$$QEAM@Z
	??$?0M@?$_Compressed_pair@U?$equal_to@V?$array@G$02@std@@@std@@M$00@std@@QEAA@U_Zero_then_variadic_args_t@1@$$QEAM@Z
	??$?0M@?$_Compressed_pair@U?$equal_to@V?$array@G$03@std@@@std@@M$00@std@@QEAA@U_Zero_then_variadic_args_t@1@$$QEAM@Z
	??$?0M@?$_Compressed_pair@U?$equal_to@V?$array@I$00@std@@@std@@M$00@std@@QEAA@U_Zero_then_variadic_args_t@1@$$QEAM@Z
	??$?0M@?$_Compressed_pair@U?$equal_to@V?$array@I$01@std@@@std@@M$00@std@@QEAA@U_Zero_then_variadic_args_t@1@$$QEAM@Z
	??$?0M@?$_Compressed_pair@U?$equal_to@V?$array@I$02@std@@@std@@M$00@std@@QEAA@U_Zero_then_variadic_args_t@1@$$QEAM@Z
	??$?0M@?$_Compressed_pair@U?$equal_to@V?$array@I$03@std@@@std@@M$00@std@@QEAA@U_Zero_then_variadic_args_t@1@$$QEAM@Z
	??$?0M@?$_Compressed_pair@U?$equal_to@V?$basic_string@DU?$char_traits@D@std@@V?$allocator@D@2@@std@@@std@@M$00@std@@QEAA@U_Zero_then_variadic_args_t@1@$$QEAM@Z
	??$?0M@?$allocator@U_Container_proxy@std@@@std@@QEAA@AEBV?$allocator@M@1@@Z
	??$?0N@EntryValue@draco@@QEAA@AEBN@Z
	??$?0N@EntryValue@draco@@QEAA@AEBV?$vector@NV?$allocator@N@std@@@std@@@Z
	??$?0P6A?AV?$unique_ptr@VFileReaderInterface@draco@@U?$default_delete@VFileReaderInterface@draco@@@std@@@std@@AEBV?$basic_string@DU?$char_traits@D@std@@V?$allocator@D@2@@1@@Z@?$allocator@U_Container_proxy@std@@@std@@QEAA@AEBV?$allocator@P6A?AV?$unique_ptr@VFileReaderInterface@draco@@U?$default_delete@VFileReaderInterface@draco@@@std@@@std@@AEBV?$basic_string@DU?$char_traits@D@std@@V?$allocator@D@2@@2@@Z@1@@Z
	??$?0P6A?AV?$unique_ptr@VFileWriterInterface@draco@@U?$default_delete@VFileWriterInterface@draco@@@std@@@std@@AEBV?$basic_string@DU?$char_traits@D@std@@V?$allocator@D@2@@1@@Z@?$allocator@U_Container_proxy@std@@@std@@QEAA@AEBV?$allocator@P6A?AV?$unique_ptr@VFileWriterInterface@draco@@U?$default_delete@VFileWriterInterface@draco@@@std@@@std@@AEBV?$basic_string@DU?$char_traits@D@std@@V?$allocator@D@2@@2@@Z@1@@Z
	??$?0PEACU?$default_delete@$$BY0A@C@std@@$0A@$0A@@?$unique_ptr@$$BY0A@CU?$default_delete@$$BY0A@C@std@@@std@@QEAA@PEAC@Z
	??$?0PEAD$0A@@?$basic_string@DU?$char_traits@D@std@@V?$allocator@D@2@@std@@QEAA@PEAD0AEBV?$allocator@D@1@@Z
	??$?0PEAEU?$default_delete@$$BY0A@E@std@@$0A@$0A@@?$unique_ptr@$$BY0A@EU?$default_delete@$$BY0A@E@std@@@std@@QEAA@PEAE@Z
	??$?0PEAFU?$default_delete@$$BY0A@F@std@@$0A@$0A@@?$unique_ptr@$$BY0A@FU?$default_delete@$$BY0A@F@std@@@std@@QEAA@PEAF@Z
	??$?0PEAGU?$default_delete@$$BY0A@G@std@@$0A@$0A@@?$unique_ptr@$$BY0A@GU?$default_delete@$$BY0A@G@std@@@std@@QEAA@PEAG@Z
	??$?0PEAHAEA_J$0A@@?$pair@PEAH_J@std@@QEAA@$$QEAPEAHAEA_J@Z
	??$?0PEAHU?$default_delete@$$BY0A@H@std@@$0A@$0A@@?$unique_ptr@$$BY0A@HU?$default_delete@$$BY0A@H@std@@@std@@QEAA@PEAH@Z
	??$?0PEAIU?$default_delete@$$BY0A@I@std@@$0A@$0A@@?$unique_ptr@$$BY0A@IU?$default_delete@$$BY0A@I@std@@@std@@QEAA@PEAI@Z
	??$?0PEAMU?$default_delete@$$BY0A@M@std@@$0A@$0A@@?$unique_ptr@$$BY0A@MU?$default_delete@$$BY0A@M@std@@@std@@QEAA@PEAM@Z
	??$?0PEAU?$_List_node@U?$pair@$$CBHH@std@@PEAX@std@@_N$0A@@?$pair@PEAU?$_List_node@U?$pair@$$CBHH@std@@PEAX@std@@_N@std@@QEAA@$$QEAPEAU?$_List_node@U?$pair@$$CBHH@std@@PEAX@1@$$QEA_N@Z
	??$?0PEAU?$_List_node@U?$pair@$$CBHV?$IndexType@IUCornerIndex_tag_type_@draco@@@draco@@@std@@PEAX@std@@_N$0A@@?$pair@PEAU?$_List_node@U?$pair@$$CBHV?$IndexType@IUCornerIndex_tag_type_@draco@@@draco@@@std@@PEAX@std@@_N@std@@QEAA@$$QEAPEAU?$_List_node@U?$pair@$$CBHV?$IndexType@IUCornerIndex_tag_type_@draco@@@draco@@@std@@PEAX@1@$$QEA_N@Z
	??$?0PEAU?$_List_node@U?$pair@$$CBHV?$basic_string@DU?$char_traits@D@std@@V?$allocator@D@2@@std@@@std@@PEAX@std@@_N$0A@@?$pair@PEAU?$_List_node@U?$pair@$$CBHV?$basic_string@DU?$char_traits@D@std@@V?$allocator@D@2@@std@@@std@@PEAX@std@@_N@std@@QEAA@$$QEAPEAU?$_List_node@U?$pair@$$CBHV?$basic_string@DU?$char_traits@D@std@@V?$allocator@D@2@@std@@@std@@PEAX@1@$$QEA_N@Z
	??$?0PEAU?$_List_node@U?$pair@$$CBV?$basic_string@DU?$char_traits@D@std@@V?$allocator@D@2@@std@@H@std@@PEAX@std@@_N$0A@@?$pair@PEAU?$_List_node@U?$pair@$$CBV?$basic_string@DU?$char_traits@D@std@@V?$allocator@D@2@@std@@H@std@@PEAX@std@@_N@std@@QEAA@$$QEAPEAU?$_List_node@U?$pair@$$CBV?$basic_string@DU?$char_traits@D@std@@V?$allocator@D@2@@std@@H@std@@PEAX@1@$$QEA_N@Z
	??$?0PEAU?$_Tree_node@U?$pair@$$CBHVOptions@draco@@@std@@PEAX@std@@_N$0A@@?$pair@PEAU?$_Tree_node@U?$pair@$$CBHVOptions@draco@@@std@@PEAX@std@@_N@std@@QEAA@$$QEAPEAU?$_Tree_node@U?$pair@$$CBHVOptions@draco@@@std@@PEAX@1@$$QEA_N@Z
	??$?0PEAU?$_Tree_node@U?$pair@$$CBV?$IndexType@IUAttributeValueIndex_tag_type_@draco@@@draco@@V?$IndexType@IUPointIndex_tag_type_@draco@@@2@@std@@PEAX@std@@_N$0A@@?$pair@PEAU?$_Tree_node@U?$pair@$$CBV?$IndexType@IUAttributeValueIndex_tag_type_@draco@@@draco@@V?$IndexType@IUPointIndex_tag_type_@draco@@@2@@std@@PEAX@std@@_N@std@@QEAA@$$QEAPEAU?$_Tree_node@U?$pair@$$CBV?$IndexType@IUAttributeValueIndex_tag_type_@draco@@@draco@@V?$IndexType@IUPointIndex_tag_type_@draco@@@2@@std@@PEAX@1@$$QEA_N@Z
	??$?0PEAU?$_Tree_node@U?$pair@$$CBV?$basic_string@DU?$char_traits@D@std@@V?$allocator@D@2@@std@@H@std@@PEAX@std@@_N$0A@@?$pair@PEAU?$_Tree_node@U?$pair@$$CBV?$basic_string@DU?$char_traits@D@std@@V?$allocator@D@2@@std@@H@std@@PEAX@std@@_N@std@@QEAA@$$QEAPEAU?$_Tree_node@U?$pair@$$CBV?$basic_string@DU?$char_traits@D@std@@V?$allocator@D@2@@std@@H@std@@PEAX@1@$$QEA_N@Z
	??$?0PEAU?$_Tree_node@U?$pair@$$CBV?$basic_string@DU?$char_traits@D@std@@V?$allocator@D@2@@std@@V12@@std@@PEAX@std@@_N$0A@@?$pair@PEAU?$_Tree_node@U?$pair@$$CBV?$basic_string@DU?$char_traits@D@std@@V?$allocator@D@2@@std@@V12@@std@@PEAX@std@@_N@std@@QEAA@$$QEAPEAU?$_Tree_node@U?$pair@$$CBV?$basic_string@DU?$char_traits@D@std@@V?$allocator@D@2@@std@@V12@@std@@PEAX@1@$$QEA_N@Z
	??$?0PEAU?$_Tree_node@U?$pair@$$CBV?$basic_string@DU?$char_traits@D@std@@V?$allocator@D@2@@std@@V?$unique_ptr@VMetadata@draco@@U?$default_delete@VMetadata@draco@@@std@@@2@@std@@PEAX@std@@_N$0A@@?$pair@PEAU?$_Tree_node@U?$pair@$$CBV?$basic_string@DU?$char_traits@D@std@@V?$allocator@D@2@@std@@V?$unique_ptr@VMetadata@draco@@U?$default_delete@VMetadata@draco@@@std@@@2@@std@@PEAX@std@@_N@std@@QEAA@$$QEAPEAU?$_Tree_node@U?$pair@$$CBV?$basic_string@DU?$char_traits@D@std@@V?$allocator@D@2@@std@@V?$unique_ptr@VMetadata@draco@@U?$default_delete@VMetadata@draco@@@std@@@2@@std@@PEAX@1@$$QEA_N@Z
	??$?0PEAU?$_Tree_node@U?$pair@$$CBV?$basic_string@DU?$char_traits@D@std@@V?$allocator@D@2@@std@@VEntryValue@draco@@@std@@PEAX@std@@_N$0A@@?$pair@PEAU?$_Tree_node@U?$pair@$$CBV?$basic_string@DU?$char_traits@D@std@@V?$allocator@D@2@@std@@VEntryValue@draco@@@std@@PEAX@std@@_N@std@@QEAA@$$QEAPEAU?$_Tree_node@U?$pair@$$CBV?$basic_string@DU?$char_traits@D@std@@V?$allocator@D@2@@std@@VEntryValue@draco@@@std@@PEAX@1@$$QEA_N@Z
	??$?0PEAU?$_Tree_node@U?$pair@$$CBW4Type@GeometryAttribute@draco@@VOptions@3@@std@@PEAX@std@@_N$0A@@?$pair@PEAU?$_Tree_node@U?$pair@$$CBW4Type@GeometryAttribute@draco@@VOptions@3@@std@@PEAX@std@@_N@std@@QEAA@$$QEAPEAU?$_Tree_node@U?$pair@$$CBW4Type@GeometryAttribute@draco@@VOptions@3@@std@@PEAX@1@$$QEA_N@Z
	??$?0PEAVPointAttribute@draco@@$0A@@?$tuple@PEAVPointAttribute@draco@@IW4DataType@2@II@std@@QEAA@XZ
	??$?0PEAVRAnsBitDecoder@draco@@U?$default_delete@$$BY0A@VRAnsBitDecoder@draco@@@std@@$0A@$0A@@?$unique_ptr@$$BY0A@VRAnsBitDecoder@draco@@U?$default_delete@$$BY0A@VRAnsBitDecoder@draco@@@std@@@std@@QEAA@PEAVRAnsBitDecoder@draco@@@Z
	??$?0PEAVRAnsBitEncoder@draco@@U?$default_delete@$$BY0A@VRAnsBitEncoder@draco@@@std@@$0A@$0A@@?$unique_ptr@$$BY0A@VRAnsBitEncoder@draco@@U?$default_delete@$$BY0A@VRAnsBitEncoder@draco@@@std@@@std@@QEAA@PEAVRAnsBitEncoder@draco@@@Z
	??$?0PEBVMeshAttributeCornerTable@draco@@@?$allocator@U_Container_proxy@std@@@std@@QEAA@AEBV?$allocator@PEBVMeshAttributeCornerTable@draco@@@1@@Z
	??$?0PEBVPlyProperty@draco@@@?$allocator@U_Container_proxy@std@@@std@@QEAA@AEBV?$allocator@PEBVPlyProperty@draco@@@1@@Z
	??$?0U?$EncodingStatus@V?$_Vector_iterator@V?$_Vector_val@U?$_Simple_types@V?$VectorD@I$02@draco@@@std@@@std@@@std@@@?$DynamicIntegerPointsKdTreeEncoder@$00@draco@@@?$allocator@PEAU?$EncodingStatus@V?$_Vector_iterator@V?$_Vector_val@U?$_Simple_types@V?$VectorD@I$02@draco@@@std@@@std@@@std@@@?$DynamicIntegerPointsKdTreeEncoder@$00@draco@@@std@@QEAA@AEBV?$allocator@U?$EncodingStatus@V?$_Vector_iterator@V?$_Vector_val@U?$_Simple_types@V?$VectorD@I$02@draco@@@std@@@std@@@std@@@?$DynamicIntegerPointsKdTreeEncoder@$00@draco@@@1@@Z
	??$?0U?$EncodingStatus@V?$_Vector_iterator@V?$_Vector_val@U?$_Simple_types@V?$VectorD@I$02@draco@@@std@@@std@@@std@@@?$DynamicIntegerPointsKdTreeEncoder@$00@draco@@@?$allocator@U_Container_proxy@std@@@std@@QEAA@AEBV?$allocator@U?$EncodingStatus@V?$_Vector_iterator@V?$_Vector_val@U?$_Simple_types@V?$VectorD@I$02@draco@@@std@@@std@@@std@@@?$DynamicIntegerPointsKdTreeEncoder@$00@draco@@@1@@Z
	??$?0U?$EncodingStatus@V?$_Vector_iterator@V?$_Vector_val@U?$_Simple_types@V?$VectorD@I$02@draco@@@std@@@std@@@std@@@?$DynamicIntegerPointsKdTreeEncoder@$01@draco@@@?$allocator@PEAU?$EncodingStatus@V?$_Vector_iterator@V?$_Vector_val@U?$_Simple_types@V?$VectorD@I$02@draco@@@std@@@std@@@std@@@?$DynamicIntegerPointsKdTreeEncoder@$01@draco@@@std@@QEAA@AEBV?$allocator@U?$EncodingStatus@V?$_Vector_iterator@V?$_Vector_val@U?$_Simple_types@V?$VectorD@I$02@draco@@@std@@@std@@@std@@@?$DynamicIntegerPointsKdTreeEncoder@$01@draco@@@1@@Z
	??$?0U?$EncodingStatus@V?$_Vector_iterator@V?$_Vector_val@U?$_Simple_types@V?$VectorD@I$02@draco@@@std@@@std@@@std@@@?$DynamicIntegerPointsKdTreeEncoder@$01@draco@@@?$allocator@U_Container_proxy@std@@@std@@QEAA@AEBV?$allocator@U?$EncodingStatus@V?$_Vector_iterator@V?$_Vector_val@U?$_Simple_types@V?$VectorD@I$02@draco@@@std@@@std@@@std@@@?$DynamicIntegerPointsKdTreeEncoder@$01@draco@@@1@@Z
	??$?0U?$EncodingStatus@V?$_Vector_iterator@V?$_Vector_val@U?$_Simple_types@V?$VectorD@I$02@draco@@@std@@@std@@@std@@@?$DynamicIntegerPointsKdTreeEncoder@$02@draco@@@?$allocator@PEAU?$EncodingStatus@V?$_Vector_iterator@V?$_Vector_val@U?$_Simple_types@V?$VectorD@I$02@draco@@@std@@@std@@@std@@@?$DynamicIntegerPointsKdTreeEncoder@$02@draco@@@std@@QEAA@AEBV?$allocator@U?$EncodingStatus@V?$_Vector_iterator@V?$_Vector_val@U?$_Simple_types@V?$VectorD@I$02@draco@@@std@@@std@@@std@@@?$DynamicIntegerPointsKdTreeEncoder@$02@draco@@@1@@Z
	??$?0U?$EncodingStatus@V?$_Vector_iterator@V?$_Vector_val@U?$_Simple_types@V?$VectorD@I$02@draco@@@std@@@std@@@std@@@?$DynamicIntegerPointsKdTreeEncoder@$02@draco@@@?$allocator@U_Container_proxy@std@@@std@@QEAA@AEBV?$allocator@U?$EncodingStatus@V?$_Vector_iterator@V?$_Vector_val@U?$_Simple_types@V?$VectorD@I$02@draco@@@std@@@std@@@std@@@?$DynamicIntegerPointsKdTreeEncoder@$02@draco@@@1@@Z
	??$?0U?$EncodingStatus@V?$_Vector_iterator@V?$_Vector_val@U?$_Simple_types@V?$VectorD@I$02@draco@@@std@@@std@@@std@@@?$DynamicIntegerPointsKdTreeEncoder@$03@draco@@@?$allocator@PEAU?$EncodingStatus@V?$_Vector_iterator@V?$_Vector_val@U?$_Simple_types@V?$VectorD@I$02@draco@@@std@@@std@@@std@@@?$DynamicIntegerPointsKdTreeEncoder@$03@draco@@@std@@QEAA@AEBV?$allocator@U?$EncodingStatus@V?$_Vector_iterator@V?$_Vector_val@U?$_Simple_types@V?$VectorD@I$02@draco@@@std@@@std@@@std@@@?$DynamicIntegerPointsKdTreeEncoder@$03@draco@@@1@@Z
	??$?0U?$EncodingStatus@V?$_Vector_iterator@V?$_Vector_val@U?$_Simple_types@V?$VectorD@I$02@draco@@@std@@@std@@@std@@@?$DynamicIntegerPointsKdTreeEncoder@$03@draco@@@?$allocator@U_Container_proxy@std@@@std@@QEAA@AEBV?$allocator@U?$EncodingStatus@V?$_Vector_iterator@V?$_Vector_val@U?$_Simple_types@V?$VectorD@I$02@draco@@@std@@@std@@@std@@@?$DynamicIntegerPointsKdTreeEncoder@$03@draco@@@1@@Z
	??$?0U?$EncodingStatus@V?$_Vector_iterator@V?$_Vector_val@U?$_Simple_types@V?$VectorD@I$02@draco@@@std@@@std@@@std@@@?$DynamicIntegerPointsKdTreeEncoder@$04@draco@@@?$allocator@PEAU?$EncodingStatus@V?$_Vector_iterator@V?$_Vector_val@U?$_Simple_types@V?$VectorD@I$02@draco@@@std@@@std@@@std@@@?$DynamicIntegerPointsKdTreeEncoder@$04@draco@@@std@@QEAA@AEBV?$allocator@U?$EncodingStatus@V?$_Vector_iterator@V?$_Vector_val@U?$_Simple_types@V?$VectorD@I$02@draco@@@std@@@std@@@std@@@?$DynamicIntegerPointsKdTreeEncoder@$04@draco@@@1@@Z
	??$?0U?$EncodingStatus@V?$_Vector_iterator@V?$_Vector_val@U?$_Simple_types@V?$VectorD@I$02@draco@@@std@@@std@@@std@@@?$DynamicIntegerPointsKdTreeEncoder@$04@draco@@@?$allocator@U_Container_proxy@std@@@std@@QEAA@AEBV?$allocator@U?$EncodingStatus@V?$_Vector_iterator@V?$_Vector_val@U?$_Simple_types@V?$VectorD@I$02@draco@@@std@@@std@@@std@@@?$DynamicIntegerPointsKdTreeEncoder@$04@draco@@@1@@Z
	??$?0U?$EncodingStatus@V?$_Vector_iterator@V?$_Vector_val@U?$_Simple_types@V?$VectorD@I$02@draco@@@std@@@std@@@std@@@?$DynamicIntegerPointsKdTreeEncoder@$05@draco@@@?$allocator@PEAU?$EncodingStatus@V?$_Vector_iterator@V?$_Vector_val@U?$_Simple_types@V?$VectorD@I$02@draco@@@std@@@std@@@std@@@?$DynamicIntegerPointsKdTreeEncoder@$05@draco@@@std@@QEAA@AEBV?$allocator@U?$EncodingStatus@V?$_Vector_iterator@V?$_Vector_val@U?$_Simple_types@V?$VectorD@I$02@draco@@@std@@@std@@@std@@@?$DynamicIntegerPointsKdTreeEncoder@$05@draco@@@1@@Z
	??$?0U?$EncodingStatus@V?$_Vector_iterator@V?$_Vector_val@U?$_Simple_types@V?$VectorD@I$02@draco@@@std@@@std@@@std@@@?$DynamicIntegerPointsKdTreeEncoder@$05@draco@@@?$allocator@U_Container_proxy@std@@@std@@QEAA@AEBV?$allocator@U?$EncodingStatus@V?$_Vector_iterator@V?$_Vector_val@U?$_Simple_types@V?$VectorD@I$02@draco@@@std@@@std@@@std@@@?$DynamicIntegerPointsKdTreeEncoder@$05@draco@@@1@@Z
	??$?0U?$EncodingStatus@V?$_Vector_iterator@V?$_Vector_val@U?$_Simple_types@V?$VectorD@I$02@draco@@@std@@@std@@@std@@@?$DynamicIntegerPointsKdTreeEncoder@$0A@@draco@@@?$allocator@PEAU?$EncodingStatus@V?$_Vector_iterator@V?$_Vector_val@U?$_Simple_types@V?$VectorD@I$02@draco@@@std@@@std@@@std@@@?$DynamicIntegerPointsKdTreeEncoder@$0A@@draco@@@std@@QEAA@AEBV?$allocator@U?$EncodingStatus@V?$_Vector_iterator@V?$_Vector_val@U?$_Simple_types@V?$VectorD@I$02@draco@@@std@@@std@@@std@@@?$DynamicIntegerPointsKdTreeEncoder@$0A@@draco@@@1@@Z
	??$?0U?$EncodingStatus@V?$_Vector_iterator@V?$_Vector_val@U?$_Simple_types@V?$VectorD@I$02@draco@@@std@@@std@@@std@@@?$DynamicIntegerPointsKdTreeEncoder@$0A@@draco@@@?$allocator@U_Container_proxy@std@@@std@@QEAA@AEBV?$allocator@U?$EncodingStatus@V?$_Vector_iterator@V?$_Vector_val@U?$_Simple_types@V?$VectorD@I$02@draco@@@std@@@std@@@std@@@?$DynamicIntegerPointsKdTreeEncoder@$0A@@draco@@@1@@Z
	??$?0U?$EncodingStatus@VPointDVectorIterator@?$PointDVector@I@draco@@@?$DynamicIntegerPointsKdTreeEncoder@$00@draco@@@?$allocator@PEAU?$EncodingStatus@VPointDVectorIterator@?$PointDVector@I@draco@@@?$DynamicIntegerPointsKdTreeEncoder@$00@draco@@@std@@QEAA@AEBV?$allocator@U?$EncodingStatus@VPointDVectorIterator@?$PointDVector@I@draco@@@?$DynamicIntegerPointsKdTreeEncoder@$00@draco@@@1@@Z
	??$?0U?$EncodingStatus@VPointDVectorIterator@?$PointDVector@I@draco@@@?$DynamicIntegerPointsKdTreeEncoder@$00@draco@@@?$allocator@U_Container_proxy@std@@@std@@QEAA@AEBV?$allocator@U?$EncodingStatus@VPointDVectorIterator@?$PointDVector@I@draco@@@?$DynamicIntegerPointsKdTreeEncoder@$00@draco@@@1@@Z
	??$?0U?$EncodingStatus@VPointDVectorIterator@?$PointDVector@I@draco@@@?$DynamicIntegerPointsKdTreeEncoder@$01@draco@@@?$allocator@PEAU?$EncodingStatus@VPointDVectorIterator@?$PointDVector@I@draco@@@?$DynamicIntegerPointsKdTreeEncoder@$01@draco@@@std@@QEAA@AEBV?$allocator@U?$EncodingStatus@VPointDVectorIterator@?$PointDVector@I@draco@@@?$DynamicIntegerPointsKdTreeEncoder@$01@draco@@@1@@Z
	??$?0U?$EncodingStatus@VPointDVectorIterator@?$PointDVector@I@draco@@@?$DynamicIntegerPointsKdTreeEncoder@$01@draco@@@?$allocator@U_Container_proxy@std@@@std@@QEAA@AEBV?$allocator@U?$EncodingStatus@VPointDVectorIterator@?$PointDVector@I@draco@@@?$DynamicIntegerPointsKdTreeEncoder@$01@draco@@@1@@Z
	??$?0U?$EncodingStatus@VPointDVectorIterator@?$PointDVector@I@draco@@@?$DynamicIntegerPointsKdTreeEncoder@$02@draco@@@?$allocator@PEAU?$EncodingStatus@VPointDVectorIterator@?$PointDVector@I@draco@@@?$DynamicIntegerPointsKdTreeEncoder@$02@draco@@@std@@QEAA@AEBV?$allocator@U?$EncodingStatus@VPointDVectorIterator@?$PointDVector@I@draco@@@?$DynamicIntegerPointsKdTreeEncoder@$02@draco@@@1@@Z
	??$?0U?$EncodingStatus@VPointDVectorIterator@?$PointDVector@I@draco@@@?$DynamicIntegerPointsKdTreeEncoder@$02@draco@@@?$allocator@U_Container_proxy@std@@@std@@QEAA@AEBV?$allocator@U?$EncodingStatus@VPointDVectorIterator@?$PointDVector@I@draco@@@?$DynamicIntegerPointsKdTreeEncoder@$02@draco@@@1@@Z
	??$?0U?$EncodingStatus@VPointDVectorIterator@?$PointDVector@I@draco@@@?$DynamicIntegerPointsKdTreeEncoder@$03@draco@@@?$allocator@PEAU?$EncodingStatus@VPointDVectorIterator@?$PointDVector@I@draco@@@?$DynamicIntegerPointsKdTreeEncoder@$03@draco@@@std@@QEAA@AEBV?$allocator@U?$EncodingStatus@VPointDVectorIterator@?$PointDVector@I@draco@@@?$DynamicIntegerPointsKdTreeEncoder@$03@draco@@@1@@Z
	??$?0U?$EncodingStatus@VPointDVectorIterator@?$PointDVector@I@draco@@@?$DynamicIntegerPointsKdTreeEncoder@$03@draco@@@?$allocator@U_Container_proxy@std@@@std@@QEAA@AEBV?$allocator@U?$EncodingStatus@VPointDVectorIterator@?$PointDVector@I@draco@@@?$DynamicIntegerPointsKdTreeEncoder@$03@draco@@@1@@Z
	??$?0U?$EncodingStatus@VPointDVectorIterator@?$PointDVector@I@draco@@@?$DynamicIntegerPointsKdTreeEncoder@$04@draco@@@?$allocator@PEAU?$EncodingStatus@VPointDVectorIterator@?$PointDVector@I@draco@@@?$DynamicIntegerPointsKdTreeEncoder@$04@draco@@@std@@QEAA@AEBV?$allocator@U?$EncodingStatus@VPointDVectorIterator@?$PointDVector@I@draco@@@?$DynamicIntegerPointsKdTreeEncoder@$04@draco@@@1@@Z
	??$?0U?$EncodingStatus@VPointDVectorIterator@?$PointDVector@I@draco@@@?$DynamicIntegerPointsKdTreeEncoder@$04@draco@@@?$allocator@U_Container_proxy@std@@@std@@QEAA@AEBV?$allocator@U?$EncodingStatus@VPointDVectorIterator@?$PointDVector@I@draco@@@?$DynamicIntegerPointsKdTreeEncoder@$04@draco@@@1@@Z
	??$?0U?$EncodingStatus@VPointDVectorIterator@?$PointDVector@I@draco@@@?$DynamicIntegerPointsKdTreeEncoder@$05@draco@@@?$allocator@PEAU?$EncodingStatus@VPointDVectorIterator@?$PointDVector@I@draco@@@?$DynamicIntegerPointsKdTreeEncoder@$05@draco@@@std@@QEAA@AEBV?$allocator@U?$EncodingStatus@VPointDVectorIterator@?$PointDVector@I@draco@@@?$DynamicIntegerPointsKdTreeEncoder@$05@draco@@@1@@Z
	??$?0U?$EncodingStatus@VPointDVectorIterator@?$PointDVector@I@draco@@@?$DynamicIntegerPointsKdTreeEncoder@$05@draco@@@?$allocator@U_Container_proxy@std@@@std@@QEAA@AEBV?$allocator@U?$EncodingStatus@VPointDVectorIterator@?$PointDVector@I@draco@@@?$DynamicIntegerPointsKdTreeEncoder@$05@draco@@@1@@Z
	??$?0U?$EncodingStatus@VPointDVectorIterator@?$PointDVector@I@draco@@@?$DynamicIntegerPointsKdTreeEncoder@$0A@@draco@@@?$allocator@PEAU?$EncodingStatus@VPointDVectorIterator@?$PointDVector@I@draco@@@?$DynamicIntegerPointsKdTreeEncoder@$0A@@draco@@@std@@QEAA@AEBV?$allocator@U?$EncodingStatus@VPointDVectorIterator@?$PointDVector@I@draco@@@?$DynamicIntegerPointsKdTreeEncoder@$0A@@draco@@@1@@Z
	??$?0U?$EncodingStatus@VPointDVectorIterator@?$PointDVector@I@draco@@@?$DynamicIntegerPointsKdTreeEncoder@$0A@@draco@@@?$allocator@U_Container_proxy@std@@@std@@QEAA@AEBV?$allocator@U?$EncodingStatus@VPointDVectorIterator@?$PointDVector@I@draco@@@?$DynamicIntegerPointsKdTreeEncoder@$0A@@draco@@@1@@Z
	??$?0U?$_List_node@U?$pair@$$CBHH@std@@PEAX@std@@@?$allocator@U_Container_proxy@std@@@std@@QEAA@AEBV?$allocator@U?$_List_node@U?$pair@$$CBHH@std@@PEAX@std@@@1@@Z
	??$?0U?$_List_node@U?$pair@$$CBHV?$IndexType@IUCornerIndex_tag_type_@draco@@@draco@@@std@@PEAX@std@@@?$allocator@U_Container_proxy@std@@@std@@QEAA@AEBV?$allocator@U?$_List_node@U?$pair@$$CBHV?$IndexType@IUCornerIndex_tag_type_@draco@@@draco@@@std@@PEAX@std@@@1@@Z
	??$?0U?$_List_node@U?$pair@$$CBHV?$basic_string@DU?$char_traits@D@std@@V?$allocator@D@2@@std@@@std@@PEAX@std@@@?$allocator@U_Container_proxy@std@@@std@@QEAA@AEBV?$allocator@U?$_List_node@U?$pair@$$CBHV?$basic_string@DU?$char_traits@D@std@@V?$allocator@D@2@@std@@@std@@PEAX@std@@@1@@Z
	??$?0U?$_List_node@U?$pair@$$CBV?$IndexType@IUPointIndex_tag_type_@draco@@@draco@@V12@@std@@PEAX@std@@@?$allocator@U_Container_proxy@std@@@std@@QEAA@AEBV?$allocator@U?$_List_node@U?$pair@$$CBV?$IndexType@IUPointIndex_tag_type_@draco@@@draco@@V12@@std@@PEAX@std@@@1@@Z
	??$?0U?$_List_node@U?$pair@$$CBV?$array@E$00@std@@V?$IndexType@IUAttributeValueIndex_tag_type_@draco@@@draco@@@std@@PEAX@std@@@?$allocator@U_Container_proxy@std@@@std@@QEAA@AEBV?$allocator@U?$_List_node@U?$pair@$$CBV?$array@E$00@std@@V?$IndexType@IUAttributeValueIndex_tag_type_@draco@@@draco@@@std@@PEAX@std@@@1@@Z
	??$?0U?$_List_node@U?$pair@$$CBV?$array@E$01@std@@V?$IndexType@IUAttributeValueIndex_tag_type_@draco@@@draco@@@std@@PEAX@std@@@?$allocator@U_Container_proxy@std@@@std@@QEAA@AEBV?$allocator@U?$_List_node@U?$pair@$$CBV?$array@E$01@std@@V?$IndexType@IUAttributeValueIndex_tag_type_@draco@@@draco@@@std@@PEAX@std@@@1@@Z
	??$?0U?$_List_node@U?$pair@$$CBV?$array@E$02@std@@V?$IndexType@IUAttributeValueIndex_tag_type_@draco@@@draco@@@std@@PEAX@std@@@?$allocator@U_Container_proxy@std@@@std@@QEAA@AEBV?$allocator@U?$_List_node@U?$pair@$$CBV?$array@E$02@std@@V?$IndexType@IUAttributeValueIndex_tag_type_@draco@@@draco@@@std@@PEAX@std@@@1@@Z
	??$?0U?$_List_node@U?$pair@$$CBV?$array@E$03@std@@V?$IndexType@IUAttributeValueIndex_tag_type_@draco@@@draco@@@std@@PEAX@std@@@?$allocator@U_Container_proxy@std@@@std@@QEAA@AEBV?$allocator@U?$_List_node@U?$pair@$$CBV?$array@E$03@std@@V?$IndexType@IUAttributeValueIndex_tag_type_@draco@@@draco@@@std@@PEAX@std@@@1@@Z
	??$?0U?$_List_node@U?$pair@$$CBV?$array@G$00@std@@V?$IndexType@IUAttributeValueIndex_tag_type_@draco@@@draco@@@std@@PEAX@std@@@?$allocator@U_Container_proxy@std@@@std@@QEAA@AEBV?$allocator@U?$_List_node@U?$pair@$$CBV?$array@G$00@std@@V?$IndexType@IUAttributeValueIndex_tag_type_@draco@@@draco@@@std@@PEAX@std@@@1@@Z
	??$?0U?$_List_node@U?$pair@$$CBV?$array@G$01@std@@V?$IndexType@IUAttributeValueIndex_tag_type_@draco@@@draco@@@std@@PEAX@std@@@?$allocator@U_Container_proxy@std@@@std@@QEAA@AEBV?$allocator@U?$_List_node@U?$pair@$$CBV?$array@G$01@std@@V?$IndexType@IUAttributeValueIndex_tag_type_@draco@@@draco@@@std@@PEAX@std@@@1@@Z
	??$?0U?$_List_node@U?$pair@$$CBV?$array@G$02@std@@V?$IndexType@IUAttributeValueIndex_tag_type_@draco@@@draco@@@std@@PEAX@std@@@?$allocator@U_Container_proxy@std@@@std@@QEAA@AEBV?$allocator@U?$_List_node@U?$pair@$$CBV?$array@G$02@std@@V?$IndexType@IUAttributeValueIndex_tag_type_@draco@@@draco@@@std@@PEAX@std@@@1@@Z
	??$?0U?$_List_node@U?$pair@$$CBV?$array@G$03@std@@V?$IndexType@IUAttributeValueIndex_tag_type_@draco@@@draco@@@std@@PEAX@std@@@?$allocator@U_Container_proxy@std@@@std@@QEAA@AEBV?$allocator@U?$_List_node@U?$pair@$$CBV?$array@G$03@std@@V?$IndexType@IUAttributeValueIndex_tag_type_@draco@@@draco@@@std@@PEAX@std@@@1@@Z
	??$?0U?$_List_node@U?$pair@$$CBV?$array@I$00@std@@V?$IndexType@IUAttributeValueIndex_tag_type_@draco@@@draco@@@std@@PEAX@std@@@?$allocator@U_Container_proxy@std@@@std@@QEAA@AEBV?$allocator@U?$_List_node@U?$pair@$$CBV?$array@I$00@std@@V?$IndexType@IUAttributeValueIndex_tag_type_@draco@@@draco@@@std@@PEAX@std@@@1@@Z
	??$?0U?$_List_node@U?$pair@$$CBV?$array@I$01@std@@V?$IndexType@IUAttributeValueIndex_tag_type_@draco@@@draco@@@std@@PEAX@std@@@?$allocator@U_Container_proxy@std@@@std@@QEAA@AEBV?$allocator@U?$_List_node@U?$pair@$$CBV?$array@I$01@std@@V?$IndexType@IUAttributeValueIndex_tag_type_@draco@@@draco@@@std@@PEAX@std@@@1@@Z
	??$?0U?$_List_node@U?$pair@$$CBV?$array@I$02@std@@V?$IndexType@IUAttributeValueIndex_tag_type_@draco@@@draco@@@std@@PEAX@std@@@?$allocator@U_Container_proxy@std@@@std@@QEAA@AEBV?$allocator@U?$_List_node@U?$pair@$$CBV?$array@I$02@std@@V?$IndexType@IUAttributeValueIndex_tag_type_@draco@@@draco@@@std@@PEAX@std@@@1@@Z
	??$?0U?$_List_node@U?$pair@$$CBV?$array@I$03@std@@V?$IndexType@IUAttributeValueIndex_tag_type_@draco@@@draco@@@std@@PEAX@std@@@?$allocator@U_Container_proxy@std@@@std@@QEAA@AEBV?$allocator@U?$_List_node@U?$pair@$$CBV?$array@I$03@std@@V?$IndexType@IUAttributeValueIndex_tag_type_@draco@@@draco@@@std@@PEAX@std@@@1@@Z
	??$?0U?$_List_node@U?$pair@$$CBV?$basic_string@DU?$char_traits@D@std@@V?$allocator@D@2@@std@@H@std@@PEAX@std@@@?$allocator@U_Container_proxy@std@@@std@@QEAA@AEBV?$allocator@U?$_List_node@U?$pair@$$CBV?$basic_string@DU?$char_traits@D@std@@V?$allocator@D@2@@std@@H@std@@PEAX@std@@@1@@Z
	??$?0U?$_List_node@V?$array@I$02@std@@PEAX@std@@@?$allocator@U_Container_proxy@std@@@std@@QEAA@AEBV?$allocator@U?$_List_node@V?$array@I$02@std@@PEAX@std@@@1@@Z
	??$?0U?$_Tree_node@U?$pair@$$CBHVOptions@draco@@@std@@PEAX@std@@@?$allocator@U_Container_proxy@std@@@std@@QEAA@AEBV?$allocator@U?$_Tree_node@U?$pair@$$CBHVOptions@draco@@@std@@PEAX@std@@@1@@Z
	??$?0U?$_Tree_node@U?$pair@$$CBV?$IndexType@IUAttributeValueIndex_tag_type_@draco@@@draco@@V?$IndexType@IUPointIndex_tag_type_@draco@@@2@@std@@PEAX@std@@@?$allocator@U_Container_proxy@std@@@std@@QEAA@AEBV?$allocator@U?$_Tree_node@U?$pair@$$CBV?$IndexType@IUAttributeValueIndex_tag_type_@draco@@@draco@@V?$IndexType@IUPointIndex_tag_type_@draco@@@2@@std@@PEAX@std@@@1@@Z
	??$?0U?$_Tree_node@U?$pair@$$CBV?$basic_string@DU?$char_traits@D@std@@V?$allocator@D@2@@std@@H@std@@PEAX@std@@@?$allocator@U_Container_proxy@std@@@std@@QEAA@AEBV?$allocator@U?$_Tree_node@U?$pair@$$CBV?$basic_string@DU?$char_traits@D@std@@V?$allocator@D@2@@std@@H@std@@PEAX@std@@@1@@Z
	??$?0U?$_Tree_node@U?$pair@$$CBV?$basic_string@DU?$char_traits@D@std@@V?$allocator@D@2@@std@@V12@@std@@PEAX@std@@@?$allocator@U_Container_proxy@std@@@std@@QEAA@AEBV?$allocator@U?$_Tree_node@U?$pair@$$CBV?$basic_string@DU?$char_traits@D@std@@V?$allocator@D@2@@std@@V12@@std@@PEAX@std@@@1@@Z
	??$?0U?$_Tree_node@U?$pair@$$CBV?$basic_string@DU?$char_traits@D@std@@V?$allocator@D@2@@std@@V?$unique_ptr@VMetadata@draco@@U?$default_delete@VMetadata@draco@@@std@@@2@@std@@PEAX@std@@@?$allocator@U_Container_proxy@std@@@std@@QEAA@AEBV?$allocator@U?$_Tree_node@U?$pair@$$CBV?$basic_string@DU?$char_traits@D@std@@V?$allocator@D@2@@std@@V?$unique_ptr@VMetadata@draco@@U?$default_delete@VMetadata@draco@@@std@@@2@@std@@PEAX@std@@@1@@Z
	??$?0U?$_Tree_node@U?$pair@$$CBV?$basic_string@DU?$char_traits@D@std@@V?$allocator@D@2@@std@@VEntryValue@draco@@@std@@PEAX@std@@@?$allocator@U_Container_proxy@std@@@std@@QEAA@AEBV?$allocator@U?$_Tree_node@U?$pair@$$CBV?$basic_string@DU?$char_traits@D@std@@V?$allocator@D@2@@std@@VEntryValue@draco@@@std@@PEAX@std@@@1@@Z
	??$?0U?$_Tree_node@U?$pair@$$CBW4Type@GeometryAttribute@draco@@VOptions@3@@std@@PEAX@std@@@?$allocator@U_Container_proxy@std@@@std@@QEAA@AEBV?$allocator@U?$_Tree_node@U?$pair@$$CBW4Type@GeometryAttribute@draco@@VOptions@3@@std@@PEAX@std@@@1@@Z
	??$?0U?$default_delete@$$BY0A@H@std@@$0A@@?$unique_ptr@$$BY0A@HU?$default_delete@$$BY0A@H@std@@@std@@QEAA@XZ
	??$?0U?$default_delete@$$BY0A@VRAnsBitDecoder@draco@@@std@@$0A@@?$unique_ptr@$$BY0A@VRAnsBitDecoder@draco@@U?$default_delete@$$BY0A@VRAnsBitDecoder@draco@@@std@@@std@@QEAA@$$T@Z
	??$?0U?$default_delete@$$BY0A@VRAnsBitEncoder@draco@@@std@@$0A@@?$unique_ptr@$$BY0A@VRAnsBitEncoder@draco@@U?$default_delete@$$BY0A@VRAnsBitEncoder@draco@@@std@@@std@@QEAA@$$T@Z
	??$?0U?$default_delete@V?$MeshTraversalSequencer@V?$DepthFirstTraverser@VCornerTable@draco@@V?$MeshAttributeIndicesEncodingObserver@VCornerTable@draco@@@2@@draco@@@draco@@@std@@$0A@@?$unique_ptr@V?$MeshTraversalSequencer@V?$DepthFirstTraverser@VCornerTable@draco@@V?$MeshAttributeIndicesEncodingObserver@VCornerTable@draco@@@2@@draco@@@draco@@U?$default_delete@V?$MeshTraversalSequencer@V?$DepthFirstTraverser@VCornerTable@draco@@V?$MeshAttributeIndicesEncodingObserver@VCornerTable@draco@@@2@@draco@@@draco@@@std@@@std@@QEAA@PEAV?$MeshTraversalSequencer@V?$DepthFirstTraverser@VCornerTable@draco@@V?$MeshAttributeIndicesEncodingObserver@VCornerTable@draco@@@2@@draco@@@draco@@@Z
	??$?0U?$default_delete@V?$MeshTraversalSequencer@V?$DepthFirstTraverser@VCornerTable@draco@@V?$MeshAttributeIndicesEncodingObserver@VCornerTable@draco@@@2@@draco@@@draco@@@std@@PEAV?$MeshTraversalSequencer@V?$DepthFirstTraverser@VCornerTable@draco@@V?$MeshAttributeIndicesEncodingObserver@VCornerTable@draco@@@2@@draco@@@draco@@@?$_Compressed_pair@U?$default_delete@VPointsSequencer@draco@@@std@@PEAVPointsSequencer@draco@@$00@std@@QEAA@U_One_then_variadic_args_t@1@$$QEAU?$default_delete@V?$MeshTraversalSequencer@V?$DepthFirstTraverser@VCornerTable@draco@@V?$MeshAttributeIndicesEncodingObserver@VCornerTable@draco@@@2@@draco@@@draco@@@1@$$QEAPEAV?$MeshTraversalSequencer@V?$DepthFirstTraverser@VCornerTable@draco@@V?$MeshAttributeIndicesEncodingObserver@VCornerTable@draco@@@2@@draco@@@draco@@@Z
	??$?0U?$default_delete@V?$MeshTraversalSequencer@V?$DepthFirstTraverser@VMeshAttributeCornerTable@draco@@V?$MeshAttributeIndicesEncodingObserver@VMeshAttributeCornerTable@draco@@@2@@draco@@@draco@@@std@@$0A@@?$unique_ptr@V?$MeshTraversalSequencer@V?$DepthFirstTraverser@VMeshAttributeCornerTable@draco@@V?$MeshAttributeIndicesEncodingObserver@VMeshAttributeCornerTable@draco@@@2@@draco@@@draco@@U?$default_delete@V?$MeshTraversalSequencer@V?$DepthFirstTraverser@VMeshAttributeCornerTable@draco@@V?$MeshAttributeIndicesEncodingObserver@VMeshAttributeCornerTable@draco@@@2@@draco@@@draco@@@std@@@std@@QEAA@PEAV?$MeshTraversalSequencer@V?$DepthFirstTraverser@VMeshAttributeCornerTable@draco@@V?$MeshAttributeIndicesEncodingObserver@VMeshAttributeCornerTable@draco@@@2@@draco@@@draco@@@Z
	??$?0U?$default_delete@V?$MeshTraversalSequencer@V?$MaxPredictionDegreeTraverser@VCornerTable@draco@@V?$MeshAttributeIndicesEncodingObserver@VCornerTable@draco@@@2@@draco@@@draco@@@std@@$0A@@?$unique_ptr@V?$MeshTraversalSequencer@V?$MaxPredictionDegreeTraverser@VCornerTable@draco@@V?$MeshAttributeIndicesEncodingObserver@VCornerTable@draco@@@2@@draco@@@draco@@U?$default_delete@V?$MeshTraversalSequencer@V?$MaxPredictionDegreeTraverser@VCornerTable@draco@@V?$MeshAttributeIndicesEncodingObserver@VCornerTable@draco@@@2@@draco@@@draco@@@std@@@std@@QEAA@PEAV?$MeshTraversalSequencer@V?$MaxPredictionDegreeTraverser@VCornerTable@draco@@V?$MeshAttributeIndicesEncodingObserver@VCornerTable@draco@@@2@@draco@@@draco@@@Z
	??$?0U?$default_delete@V?$MeshTraversalSequencer@V?$MaxPredictionDegreeTraverser@VCornerTable@draco@@V?$MeshAttributeIndicesEncodingObserver@VCornerTable@draco@@@2@@draco@@@draco@@@std@@PEAV?$MeshTraversalSequencer@V?$MaxPredictionDegreeTraverser@VCornerTable@draco@@V?$MeshAttributeIndicesEncodingObserver@VCornerTable@draco@@@2@@draco@@@draco@@@?$_Compressed_pair@U?$default_delete@VPointsSequencer@draco@@@std@@PEAVPointsSequencer@draco@@$00@std@@QEAA@U_One_then_variadic_args_t@1@$$QEAU?$default_delete@V?$MeshTraversalSequencer@V?$MaxPredictionDegreeTraverser@VCornerTable@draco@@V?$MeshAttributeIndicesEncodingObserver@VCornerTable@draco@@@2@@draco@@@draco@@@1@$$QEAPEAV?$MeshTraversalSequencer@V?$MaxPredictionDegreeTraverser@VCornerTable@draco@@V?$MeshAttributeIndicesEncodingObserver@VCornerTable@draco@@@2@@draco@@@draco@@@Z
	??$?0U?$default_delete@V?$PlyPropertyReader@E@draco@@@std@@$0A@@?$unique_ptr@V?$PlyPropertyReader@E@draco@@U?$default_delete@V?$PlyPropertyReader@E@draco@@@std@@@std@@QEAA@$$QEAV01@@Z
	??$?0U?$default_delete@V?$PlyPropertyReader@E@draco@@@std@@$0A@@?$unique_ptr@V?$PlyPropertyReader@E@draco@@U?$default_delete@V?$PlyPropertyReader@E@draco@@@std@@@std@@QEAA@PEAV?$PlyPropertyReader@E@draco@@@Z
	??$?0U?$default_delete@V?$PlyPropertyReader@E@draco@@@std@@PEAV?$PlyPropertyReader@E@draco@@@?$_Compressed_pair@U?$default_delete@V?$PlyPropertyReader@E@draco@@@std@@PEAV?$PlyPropertyReader@E@draco@@$00@std@@QEAA@U_One_then_variadic_args_t@1@$$QEAU?$default_delete@V?$PlyPropertyReader@E@draco@@@1@$$QEAPEAV?$PlyPropertyReader@E@draco@@@Z
	??$?0U?$default_delete@V?$PlyPropertyReader@H@draco@@@std@@$0A@@?$unique_ptr@V?$PlyPropertyReader@H@draco@@U?$default_delete@V?$PlyPropertyReader@H@draco@@@std@@@std@@QEAA@$$QEAV01@@Z
	??$?0U?$default_delete@V?$PlyPropertyReader@H@draco@@@std@@$0A@@?$unique_ptr@V?$PlyPropertyReader@H@draco@@U?$default_delete@V?$PlyPropertyReader@H@draco@@@std@@@std@@QEAA@PEAV?$PlyPropertyReader@H@draco@@@Z
	??$?0U?$default_delete@V?$PlyPropertyReader@H@draco@@@std@@PEAV?$PlyPropertyReader@H@draco@@@?$_Compressed_pair@U?$default_delete@V?$PlyPropertyReader@H@draco@@@std@@PEAV?$PlyPropertyReader@H@draco@@$00@std@@QEAA@U_One_then_variadic_args_t@1@$$QEAU?$default_delete@V?$PlyPropertyReader@H@draco@@@1@$$QEAPEAV?$PlyPropertyReader@H@draco@@@Z
	??$?0U?$default_delete@V?$PlyPropertyReader@M@draco@@@std@@$0A@@?$unique_ptr@V?$PlyPropertyReader@M@draco@@U?$default_delete@V?$PlyPropertyReader@M@draco@@@std@@@std@@QEAA@$$QEAV01@@Z
	??$?0U?$default_delete@V?$PlyPropertyReader@M@draco@@@std@@$0A@@?$unique_ptr@V?$PlyPropertyReader@M@draco@@U?$default_delete@V?$PlyPropertyReader@M@draco@@@std@@@std@@QEAA@PEAV?$PlyPropertyReader@M@draco@@@Z
	??$?0U?$default_delete@V?$PlyPropertyReader@M@draco@@@std@@PEAV?$PlyPropertyReader@M@draco@@@?$_Compressed_pair@U?$default_delete@V?$PlyPropertyReader@M@draco@@@std@@PEAV?$PlyPropertyReader@M@draco@@$00@std@@QEAA@U_One_then_variadic_args_t@1@$$QEAU?$default_delete@V?$PlyPropertyReader@M@draco@@@1@$$QEAPEAV?$PlyPropertyReader@M@draco@@@Z
	??$?0U?$default_delete@V?$PredictionSchemeDecoder@HV?$PredictionSchemeNormalOctahedronCanonicalizedDecodingTransform@H@draco@@@draco@@@std@@$0A@@?$unique_ptr@V?$PredictionSchemeDecoder@HV?$PredictionSchemeNormalOctahedronCanonicalizedDecodingTransform@H@draco@@@draco@@U?$default_delete@V?$PredictionSchemeDecoder@HV?$PredictionSchemeNormalOctahedronCanonicalizedDecodingTransform@H@draco@@@draco@@@std@@@std@@QEAA@$$QEAV01@@Z
	??$?0U?$default_delete@V?$PredictionSchemeDecoder@HV?$PredictionSchemeNormalOctahedronCanonicalizedDecodingTransform@H@draco@@@draco@@@std@@$0A@@?$unique_ptr@V?$PredictionSchemeDecoder@HV?$PredictionSchemeNormalOctahedronCanonicalizedDecodingTransform@H@draco@@@draco@@U?$default_delete@V?$PredictionSchemeDecoder@HV?$PredictionSchemeNormalOctahedronCanonicalizedDecodingTransform@H@draco@@@draco@@@std@@@std@@QEAA@$$T@Z
	??$?0U?$default_delete@V?$PredictionSchemeDecoder@HV?$PredictionSchemeNormalOctahedronCanonicalizedDecodingTransform@H@draco@@@draco@@@std@@$0A@@?$unique_ptr@V?$PredictionSchemeDecoder@HV?$PredictionSchemeNormalOctahedronCanonicalizedDecodingTransform@H@draco@@@draco@@U?$default_delete@V?$PredictionSchemeDecoder@HV?$PredictionSchemeNormalOctahedronCanonicalizedDecodingTransform@H@draco@@@draco@@@std@@@std@@QEAA@PEAV?$PredictionSchemeDecoder@HV?$PredictionSchemeNormalOctahedronCanonicalizedDecodingTransform@H@draco@@@draco@@@Z
	??$?0U?$default_delete@V?$PredictionSchemeDecoder@HV?$PredictionSchemeNormalOctahedronCanonicalizedDecodingTransform@H@draco@@@draco@@@std@@PEAV?$PredictionSchemeDecoder@HV?$PredictionSchemeNormalOctahedronCanonicalizedDecodingTransform@H@draco@@@draco@@@?$_Compressed_pair@U?$default_delete@V?$PredictionSchemeDecoder@HV?$PredictionSchemeNormalOctahedronCanonicalizedDecodingTransform@H@draco@@@draco@@@std@@PEAV?$PredictionSchemeDecoder@HV?$PredictionSchemeNormalOctahedronCanonicalizedDecodingTransform@H@draco@@@draco@@$00@std@@QEAA@U_One_then_variadic_args_t@1@$$QEAU?$default_delete@V?$PredictionSchemeDecoder@HV?$PredictionSchemeNormalOctahedronCanonicalizedDecodingTransform@H@draco@@@draco@@@1@$$QEAPEAV?$PredictionSchemeDecoder@HV?$PredictionSchemeNormalOctahedronCanonicalizedDecodingTransform@H@draco@@@draco@@@Z
	??$?0U?$default_delete@V?$PredictionSchemeDecoder@HV?$PredictionSchemeNormalOctahedronCanonicalizedDecodingTransform@H@draco@@@draco@@@std@@PEAV?$PredictionSchemeDecoder@HV?$PredictionSchemeNormalOctahedronCanonicalizedDecodingTransform@H@draco@@@draco@@@?$_Compressed_pair@U?$default_delete@V?$PredictionSchemeTypedDecoderInterface@HH@draco@@@std@@PEAV?$PredictionSchemeTypedDecoderInterface@HH@draco@@$00@std@@QEAA@U_One_then_variadic_args_t@1@$$QEAU?$default_delete@V?$PredictionSchemeDecoder@HV?$PredictionSchemeNormalOctahedronCanonicalizedDecodingTransform@H@draco@@@draco@@@1@$$QEAPEAV?$PredictionSchemeDecoder@HV?$PredictionSchemeNormalOctahedronCanonicalizedDecodingTransform@H@draco@@@draco@@@Z
	??$?0U?$default_delete@V?$PredictionSchemeDecoder@HV?$PredictionSchemeNormalOctahedronDecodingTransform@H@draco@@@draco@@@std@@$0A@@?$unique_ptr@V?$PredictionSchemeDecoder@HV?$PredictionSchemeNormalOctahedronDecodingTransform@H@draco@@@draco@@U?$default_delete@V?$PredictionSchemeDecoder@HV?$PredictionSchemeNormalOctahedronDecodingTransform@H@draco@@@draco@@@std@@@std@@QEAA@$$QEAV01@@Z
	??$?0U?$default_delete@V?$PredictionSchemeDecoder@HV?$PredictionSchemeNormalOctahedronDecodingTransform@H@draco@@@draco@@@std@@$0A@@?$unique_ptr@V?$PredictionSchemeDecoder@HV?$PredictionSchemeNormalOctahedronDecodingTransform@H@draco@@@draco@@U?$default_delete@V?$PredictionSchemeDecoder@HV?$PredictionSchemeNormalOctahedronDecodingTransform@H@draco@@@draco@@@std@@@std@@QEAA@$$T@Z
	??$?0U?$default_delete@V?$PredictionSchemeDecoder@HV?$PredictionSchemeNormalOctahedronDecodingTransform@H@draco@@@draco@@@std@@$0A@@?$unique_ptr@V?$PredictionSchemeDecoder@HV?$PredictionSchemeNormalOctahedronDecodingTransform@H@draco@@@draco@@U?$default_delete@V?$PredictionSchemeDecoder@HV?$PredictionSchemeNormalOctahedronDecodingTransform@H@draco@@@draco@@@std@@@std@@QEAA@PEAV?$PredictionSchemeDecoder@HV?$PredictionSchemeNormalOctahedronDecodingTransform@H@draco@@@draco@@@Z
	??$?0U?$default_delete@V?$PredictionSchemeDecoder@HV?$PredictionSchemeNormalOctahedronDecodingTransform@H@draco@@@draco@@@std@@PEAV?$PredictionSchemeDecoder@HV?$PredictionSchemeNormalOctahedronDecodingTransform@H@draco@@@draco@@@?$_Compressed_pair@U?$default_delete@V?$PredictionSchemeDecoder@HV?$PredictionSchemeNormalOctahedronDecodingTransform@H@draco@@@draco@@@std@@PEAV?$PredictionSchemeDecoder@HV?$PredictionSchemeNormalOctahedronDecodingTransform@H@draco@@@draco@@$00@std@@QEAA@U_One_then_variadic_args_t@1@$$QEAU?$default_delete@V?$PredictionSchemeDecoder@HV?$PredictionSchemeNormalOctahedronDecodingTransform@H@draco@@@draco@@@1@$$QEAPEAV?$PredictionSchemeDecoder@HV?$PredictionSchemeNormalOctahedronDecodingTransform@H@draco@@@draco@@@Z
	??$?0U?$default_delete@V?$PredictionSchemeDecoder@HV?$PredictionSchemeNormalOctahedronDecodingTransform@H@draco@@@draco@@@std@@PEAV?$PredictionSchemeDecoder@HV?$PredictionSchemeNormalOctahedronDecodingTransform@H@draco@@@draco@@@?$_Compressed_pair@U?$default_delete@V?$PredictionSchemeTypedDecoderInterface@HH@draco@@@std@@PEAV?$PredictionSchemeTypedDecoderInterface@HH@draco@@$00@std@@QEAA@U_One_then_variadic_args_t@1@$$QEAU?$default_delete@V?$PredictionSchemeDecoder@HV?$PredictionSchemeNormalOctahedronDecodingTransform@H@draco@@@draco@@@1@$$QEAPEAV?$PredictionSchemeDecoder@HV?$PredictionSchemeNormalOctahedronDecodingTransform@H@draco@@@draco@@@Z
	??$?0U?$default_delete@V?$PredictionSchemeDecoder@HV?$PredictionSchemeWrapDecodingTransform@HH@draco@@@draco@@@std@@$0A@@?$unique_ptr@V?$PredictionSchemeDecoder@HV?$PredictionSchemeWrapDecodingTransform@HH@draco@@@draco@@U?$default_delete@V?$PredictionSchemeDecoder@HV?$PredictionSchemeWrapDecodingTransform@HH@draco@@@draco@@@std@@@std@@QEAA@$$QEAV01@@Z
	??$?0U?$default_delete@V?$PredictionSchemeDecoder@HV?$PredictionSchemeWrapDecodingTransform@HH@draco@@@draco@@@std@@$0A@@?$unique_ptr@V?$PredictionSchemeDecoder@HV?$PredictionSchemeWrapDecodingTransform@HH@draco@@@draco@@U?$default_delete@V?$PredictionSchemeDecoder@HV?$PredictionSchemeWrapDecodingTransform@HH@draco@@@draco@@@std@@@std@@QEAA@$$T@Z
	??$?0U?$default_delete@V?$PredictionSchemeDecoder@HV?$PredictionSchemeWrapDecodingTransform@HH@draco@@@draco@@@std@@$0A@@?$unique_ptr@V?$PredictionSchemeDecoder@HV?$PredictionSchemeWrapDecodingTransform@HH@draco@@@draco@@U?$default_delete@V?$PredictionSchemeDecoder@HV?$PredictionSchemeWrapDecodingTransform@HH@draco@@@draco@@@std@@@std@@QEAA@PEAV?$PredictionSchemeDecoder@HV?$PredictionSchemeWrapDecodingTransform@HH@draco@@@draco@@@Z
	??$?0U?$default_delete@V?$PredictionSchemeDecoder@HV?$PredictionSchemeWrapDecodingTransform@HH@draco@@@draco@@@std@@PEAV?$PredictionSchemeDecoder@HV?$PredictionSchemeWrapDecodingTransform@HH@draco@@@draco@@@?$_Compressed_pair@U?$default_delete@V?$PredictionSchemeDecoder@HV?$PredictionSchemeWrapDecodingTransform@HH@draco@@@draco@@@std@@PEAV?$PredictionSchemeDecoder@HV?$PredictionSchemeWrapDecodingTransform@HH@draco@@@draco@@$00@std@@QEAA@U_One_then_variadic_args_t@1@$$QEAU?$default_delete@V?$PredictionSchemeDecoder@HV?$PredictionSchemeWrapDecodingTransform@HH@draco@@@draco@@@1@$$QEAPEAV?$PredictionSchemeDecoder@HV?$PredictionSchemeWrapDecodingTransform@HH@draco@@@draco@@@Z
	??$?0U?$default_delete@V?$PredictionSchemeDecoder@HV?$PredictionSchemeWrapDecodingTransform@HH@draco@@@draco@@@std@@PEAV?$PredictionSchemeDecoder@HV?$PredictionSchemeWrapDecodingTransform@HH@draco@@@draco@@@?$_Compressed_pair@U?$default_delete@V?$PredictionSchemeTypedDecoderInterface@HH@draco@@@std@@PEAV?$PredictionSchemeTypedDecoderInterface@HH@draco@@$00@std@@QEAA@U_One_then_variadic_args_t@1@$$QEAU?$default_delete@V?$PredictionSchemeDecoder@HV?$PredictionSchemeWrapDecodingTransform@HH@draco@@@draco@@@1@$$QEAPEAV?$PredictionSchemeDecoder@HV?$PredictionSchemeWrapDecodingTransform@HH@draco@@@draco@@@Z
	??$?0U?$default_delete@V?$PredictionSchemeEncoder@HV?$PredictionSchemeNormalOctahedronCanonicalizedEncodingTransform@H@draco@@@draco@@@std@@$0A@@?$unique_ptr@V?$PredictionSchemeEncoder@HV?$PredictionSchemeNormalOctahedronCanonicalizedEncodingTransform@H@draco@@@draco@@U?$default_delete@V?$PredictionSchemeEncoder@HV?$PredictionSchemeNormalOctahedronCanonicalizedEncodingTransform@H@draco@@@draco@@@std@@@std@@QEAA@$$QEAV01@@Z
	??$?0U?$default_delete@V?$PredictionSchemeEncoder@HV?$PredictionSchemeNormalOctahedronCanonicalizedEncodingTransform@H@draco@@@draco@@@std@@$0A@@?$unique_ptr@V?$PredictionSchemeEncoder@HV?$PredictionSchemeNormalOctahedronCanonicalizedEncodingTransform@H@draco@@@draco@@U?$default_delete@V?$PredictionSchemeEncoder@HV?$PredictionSchemeNormalOctahedronCanonicalizedEncodingTransform@H@draco@@@draco@@@std@@@std@@QEAA@$$T@Z
	??$?0U?$default_delete@V?$PredictionSchemeEncoder@HV?$PredictionSchemeNormalOctahedronCanonicalizedEncodingTransform@H@draco@@@draco@@@std@@$0A@@?$unique_ptr@V?$PredictionSchemeEncoder@HV?$PredictionSchemeNormalOctahedronCanonicalizedEncodingTransform@H@draco@@@draco@@U?$default_delete@V?$PredictionSchemeEncoder@HV?$PredictionSchemeNormalOctahedronCanonicalizedEncodingTransform@H@draco@@@draco@@@std@@@std@@QEAA@PEAV?$PredictionSchemeEncoder@HV?$PredictionSchemeNormalOctahedronCanonicalizedEncodingTransform@H@draco@@@draco@@@Z
	??$?0U?$default_delete@V?$PredictionSchemeEncoder@HV?$PredictionSchemeNormalOctahedronCanonicalizedEncodingTransform@H@draco@@@draco@@@std@@PEAV?$PredictionSchemeEncoder@HV?$PredictionSchemeNormalOctahedronCanonicalizedEncodingTransform@H@draco@@@draco@@@?$_Compressed_pair@U?$default_delete@V?$PredictionSchemeEncoder@HV?$PredictionSchemeNormalOctahedronCanonicalizedEncodingTransform@H@draco@@@draco@@@std@@PEAV?$PredictionSchemeEncoder@HV?$PredictionSchemeNormalOctahedronCanonicalizedEncodingTransform@H@draco@@@draco@@$00@std@@QEAA@U_One_then_variadic_args_t@1@$$QEAU?$default_delete@V?$PredictionSchemeEncoder@HV?$PredictionSchemeNormalOctahedronCanonicalizedEncodingTransform@H@draco@@@draco@@@1@$$QEAPEAV?$PredictionSchemeEncoder@HV?$PredictionSchemeNormalOctahedronCanonicalizedEncodingTransform@H@draco@@@draco@@@Z
	??$?0U?$default_delete@V?$PredictionSchemeEncoder@HV?$PredictionSchemeNormalOctahedronCanonicalizedEncodingTransform@H@draco@@@draco@@@std@@PEAV?$PredictionSchemeEncoder@HV?$PredictionSchemeNormalOctahedronCanonicalizedEncodingTransform@H@draco@@@draco@@@?$_Compressed_pair@U?$default_delete@V?$PredictionSchemeTypedEncoderInterface@HH@draco@@@std@@PEAV?$PredictionSchemeTypedEncoderInterface@HH@draco@@$00@std@@QEAA@U_One_then_variadic_args_t@1@$$QEAU?$default_delete@V?$PredictionSchemeEncoder@HV?$PredictionSchemeNormalOctahedronCanonicalizedEncodingTransform@H@draco@@@draco@@@1@$$QEAPEAV?$PredictionSchemeEncoder@HV?$PredictionSchemeNormalOctahedronCanonicalizedEncodingTransform@H@draco@@@draco@@@Z
	??$?0U?$default_delete@V?$PredictionSchemeEncoder@HV?$PredictionSchemeWrapEncodingTransform@HH@draco@@@draco@@@std@@$0A@@?$unique_ptr@V?$PredictionSchemeEncoder@HV?$PredictionSchemeWrapEncodingTransform@HH@draco@@@draco@@U?$default_delete@V?$PredictionSchemeEncoder@HV?$PredictionSchemeWrapEncodingTransform@HH@draco@@@draco@@@std@@@std@@QEAA@$$QEAV01@@Z
	??$?0U?$default_delete@V?$PredictionSchemeEncoder@HV?$PredictionSchemeWrapEncodingTransform@HH@draco@@@draco@@@std@@$0A@@?$unique_ptr@V?$PredictionSchemeEncoder@HV?$PredictionSchemeWrapEncodingTransform@HH@draco@@@draco@@U?$default_delete@V?$PredictionSchemeEncoder@HV?$PredictionSchemeWrapEncodingTransform@HH@draco@@@draco@@@std@@@std@@QEAA@$$T@Z
	??$?0U?$default_delete@V?$PredictionSchemeEncoder@HV?$PredictionSchemeWrapEncodingTransform@HH@draco@@@draco@@@std@@$0A@@?$unique_ptr@V?$PredictionSchemeEncoder@HV?$PredictionSchemeWrapEncodingTransform@HH@draco@@@draco@@U?$default_delete@V?$PredictionSchemeEncoder@HV?$PredictionSchemeWrapEncodingTransform@HH@draco@@@draco@@@std@@@std@@QEAA@PEAV?$PredictionSchemeEncoder@HV?$PredictionSchemeWrapEncodingTransform@HH@draco@@@draco@@@Z
	??$?0U?$default_delete@V?$PredictionSchemeEncoder@HV?$PredictionSchemeWrapEncodingTransform@HH@draco@@@draco@@@std@@PEAV?$PredictionSchemeEncoder@HV?$PredictionSchemeWrapEncodingTransform@HH@draco@@@draco@@@?$_Compressed_pair@U?$default_delete@V?$PredictionSchemeEncoder@HV?$PredictionSchemeWrapEncodingTransform@HH@draco@@@draco@@@std@@PEAV?$PredictionSchemeEncoder@HV?$PredictionSchemeWrapEncodingTransform@HH@draco@@@draco@@$00@std@@QEAA@U_One_then_variadic_args_t@1@$$QEAU?$default_delete@V?$PredictionSchemeEncoder@HV?$PredictionSchemeWrapEncodingTransform@HH@draco@@@draco@@@1@$$QEAPEAV?$PredictionSchemeEncoder@HV?$PredictionSchemeWrapEncodingTransform@HH@draco@@@draco@@@Z
	??$?0U?$default_delete@V?$PredictionSchemeEncoder@HV?$PredictionSchemeWrapEncodingTransform@HH@draco@@@draco@@@std@@PEAV?$PredictionSchemeEncoder@HV?$PredictionSchemeWrapEncodingTransform@HH@draco@@@draco@@@?$_Compressed_pair@U?$default_delete@V?$PredictionSchemeTypedEncoderInterface@HH@draco@@@std@@PEAV?$PredictionSchemeTypedEncoderInterface@HH@draco@@$00@std@@QEAA@U_One_then_variadic_args_t@1@$$QEAU?$default_delete@V?$PredictionSchemeEncoder@HV?$PredictionSchemeWrapEncodingTransform@HH@draco@@@draco@@@1@$$QEAPEAV?$PredictionSchemeEncoder@HV?$PredictionSchemeWrapEncodingTransform@HH@draco@@@draco@@@Z
	??$?0U?$default_delete@V?$PredictionSchemeTypedDecoderInterface@HH@draco@@@std@@$0A@@?$unique_ptr@V?$PredictionSchemeTypedDecoderInterface@HH@draco@@U?$default_delete@V?$PredictionSchemeTypedDecoderInterface@HH@draco@@@std@@@std@@QEAA@$$T@Z
	??$?0U?$default_delete@V?$PredictionSchemeTypedDecoderInterface@HH@draco@@@std@@$0A@@?$unique_ptr@V?$PredictionSchemeTypedDecoderInterface@HH@draco@@U?$default_delete@V?$PredictionSchemeTypedDecoderInterface@HH@draco@@@std@@@std@@QEAA@XZ
	??$?0U?$default_delete@V?$PredictionSchemeTypedEncoderInterface@HH@draco@@@std@@$0A@@?$unique_ptr@V?$PredictionSchemeTypedEncoderInterface@HH@draco@@U?$default_delete@V?$PredictionSchemeTypedEncoderInterface@HH@draco@@@std@@@std@@QEAA@$$T@Z
	??$?0U?$default_delete@V?$PredictionSchemeTypedEncoderInterface@HH@draco@@@std@@$0A@@?$unique_ptr@V?$PredictionSchemeTypedEncoderInterface@HH@draco@@U?$default_delete@V?$PredictionSchemeTypedEncoderInterface@HH@draco@@@std@@@std@@QEAA@XZ
	??$?0U?$default_delete@VAttributeMetadata@draco@@@std@@$0A@@?$unique_ptr@VAttributeMetadata@draco@@U?$default_delete@VAttributeMetadata@draco@@@std@@@std@@QEAA@$$QEAV01@@Z
	??$?0U?$default_delete@VAttributeMetadata@draco@@@std@@$0A@@?$unique_ptr@VAttributeMetadata@draco@@U?$default_delete@VAttributeMetadata@draco@@@std@@@std@@QEAA@PEAVAttributeMetadata@draco@@@Z
	??$?0U?$default_delete@VAttributeMetadata@draco@@@std@@PEAVAttributeMetadata@draco@@@?$_Compressed_pair@U?$default_delete@VAttributeMetadata@draco@@@std@@PEAVAttributeMetadata@draco@@$00@std@@QEAA@U_One_then_variadic_args_t@1@$$QEAU?$default_delete@VAttributeMetadata@draco@@@1@$$QEAPEAVAttributeMetadata@draco@@@Z
	??$?0U?$default_delete@VAttributeTransformData@draco@@@std@@$0A@@?$unique_ptr@VAttributeTransformData@draco@@U?$default_delete@VAttributeTransformData@draco@@@std@@@std@@QEAA@$$QEAV01@@Z
	??$?0U?$default_delete@VAttributeTransformData@draco@@@std@@$0A@@?$unique_ptr@VAttributeTransformData@draco@@U?$default_delete@VAttributeTransformData@draco@@@std@@@std@@QEAA@PEAVAttributeTransformData@draco@@@Z
	??$?0U?$default_delete@VAttributeTransformData@draco@@@std@@$0A@@?$unique_ptr@VAttributeTransformData@draco@@U?$default_delete@VAttributeTransformData@draco@@@std@@@std@@QEAA@XZ
	??$?0U?$default_delete@VAttributeTransformData@draco@@@std@@PEAVAttributeTransformData@draco@@@?$_Compressed_pair@U?$default_delete@VAttributeTransformData@draco@@@std@@PEAVAttributeTransformData@draco@@$00@std@@QEAA@U_One_then_variadic_args_t@1@$$QEAU?$default_delete@VAttributeTransformData@draco@@@1@$$QEAPEAVAttributeTransformData@draco@@@Z
	??$?0U?$default_delete@VAttributesDecoder@draco@@@std@@$0A@@?$unique_ptr@VAttributesDecoder@draco@@U?$default_delete@VAttributesDecoder@draco@@@std@@@std@@QEAA@PEAVAttributesDecoder@draco@@@Z
	??$?0U?$default_delete@VAttributesDecoder@draco@@@std@@PEAVAttributesDecoder@draco@@@?$_Compressed_pair@U?$default_delete@VAttributesDecoderInterface@draco@@@std@@PEAVAttributesDecoderInterface@draco@@$00@std@@QEAA@U_One_then_variadic_args_t@1@$$QEAU?$default_delete@VAttributesDecoder@draco@@@1@$$QEAPEAVAttributesDecoder@draco@@@Z
	??$?0U?$default_delete@VAttributesDecoderInterface@draco@@@std@@$0A@@?$unique_ptr@VAttributesDecoderInterface@draco@@U?$default_delete@VAttributesDecoderInterface@draco@@@std@@@std@@QEAA@$$QEAV01@@Z
	??$?0U?$default_delete@VAttributesDecoderInterface@draco@@@std@@$0A@@?$unique_ptr@VAttributesDecoderInterface@draco@@U?$default_delete@VAttributesDecoderInterface@draco@@@std@@@std@@QEAA@XZ
	??$?0U?$default_delete@VAttributesDecoderInterface@draco@@@std@@PEAVAttributesDecoderInterface@draco@@@?$_Compressed_pair@U?$default_delete@VAttributesDecoderInterface@draco@@@std@@PEAVAttributesDecoderInterface@draco@@$00@std@@QEAA@U_One_then_variadic_args_t@1@$$QEAU?$default_delete@VAttributesDecoderInterface@draco@@@1@$$QEAPEAVAttributesDecoderInterface@draco@@@Z
	??$?0U?$default_delete@VAttributesEncoder@draco@@@std@@$0A@@?$unique_ptr@VAttributesEncoder@draco@@U?$default_delete@VAttributesEncoder@draco@@@std@@@std@@QEAA@$$QEAV01@@Z
	??$?0U?$default_delete@VAttributesEncoder@draco@@@std@@$0A@@?$unique_ptr@VAttributesEncoder@draco@@U?$default_delete@VAttributesEncoder@draco@@@std@@@std@@QEAA@PEAVAttributesEncoder@draco@@@Z
	??$?0U?$default_delete@VAttributesEncoder@draco@@@std@@PEAVAttributesEncoder@draco@@@?$_Compressed_pair@U?$default_delete@VAttributesEncoder@draco@@@std@@PEAVAttributesEncoder@draco@@$00@std@@QEAA@U_One_then_variadic_args_t@1@$$QEAU?$default_delete@VAttributesEncoder@draco@@@1@$$QEAPEAVAttributesEncoder@draco@@@Z
	??$?0U?$default_delete@VBitEncoder@EncoderBuffer@draco@@@std@@$0A@@?$unique_ptr@VBitEncoder@EncoderBuffer@draco@@U?$default_delete@VBitEncoder@EncoderBuffer@draco@@@std@@@std@@QEAA@PEAVBitEncoder@EncoderBuffer@draco@@@Z
	??$?0U?$default_delete@VBitEncoder@EncoderBuffer@draco@@@std@@$0A@@?$unique_ptr@VBitEncoder@EncoderBuffer@draco@@U?$default_delete@VBitEncoder@EncoderBuffer@draco@@@std@@@std@@QEAA@XZ
	??$?0U?$default_delete@VCornerTable@draco@@@std@@$0A@@?$unique_ptr@VCornerTable@draco@@U?$default_delete@VCornerTable@draco@@@std@@@std@@QEAA@$$QEAV01@@Z
	??$?0U?$default_delete@VCornerTable@draco@@@std@@$0A@@?$unique_ptr@VCornerTable@draco@@U?$default_delete@VCornerTable@draco@@@std@@@std@@QEAA@$$T@Z
	??$?0U?$default_delete@VCornerTable@draco@@@std@@$0A@@?$unique_ptr@VCornerTable@draco@@U?$default_delete@VCornerTable@draco@@@std@@@std@@QEAA@PEAVCornerTable@draco@@@Z
	??$?0U?$default_delete@VCornerTable@draco@@@std@@$0A@@?$unique_ptr@VCornerTable@draco@@U?$default_delete@VCornerTable@draco@@@std@@@std@@QEAA@XZ
	??$?0U?$default_delete@VCornerTable@draco@@@std@@PEAVCornerTable@draco@@@?$_Compressed_pair@U?$default_delete@VCornerTable@draco@@@std@@PEAVCornerTable@draco@@$00@std@@QEAA@U_One_then_variadic_args_t@1@$$QEAU?$default_delete@VCornerTable@draco@@@1@$$QEAPEAVCornerTable@draco@@@Z
	??$?0U?$default_delete@VDataBuffer@draco@@@std@@$0A@@?$unique_ptr@VDataBuffer@draco@@U?$default_delete@VDataBuffer@draco@@@std@@@std@@QEAA@PEAVDataBuffer@draco@@@Z
	??$?0U?$default_delete@VDataBuffer@draco@@@std@@$0A@@?$unique_ptr@VDataBuffer@draco@@U?$default_delete@VDataBuffer@draco@@@std@@@std@@QEAA@XZ
	??$?0U?$default_delete@VFileReaderInterface@draco@@@std@@$0A@@?$unique_ptr@VFileReaderInterface@draco@@U?$default_delete@VFileReaderInterface@draco@@@std@@@std@@QEAA@$$QEAV01@@Z
	??$?0U?$default_delete@VFileReaderInterface@draco@@@std@@$0A@@?$unique_ptr@VFileReaderInterface@draco@@U?$default_delete@VFileReaderInterface@draco@@@std@@@std@@QEAA@$$T@Z
	??$?0U?$default_delete@VFileReaderInterface@draco@@@std@@$0A@@?$unique_ptr@VFileReaderInterface@draco@@U?$default_delete@VFileReaderInterface@draco@@@std@@@std@@QEAA@PEAVFileReaderInterface@draco@@@Z
	??$?0U?$default_delete@VFileReaderInterface@draco@@@std@@PEAVFileReaderInterface@draco@@@?$_Compressed_pair@U?$default_delete@VFileReaderInterface@draco@@@std@@PEAVFileReaderInterface@draco@@$00@std@@QEAA@U_One_then_variadic_args_t@1@$$QEAU?$default_delete@VFileReaderInterface@draco@@@1@$$QEAPEAVFileReaderInterface@draco@@@Z
	??$?0U?$default_delete@VFileWriterInterface@draco@@@std@@$0A@@?$unique_ptr@VFileWriterInterface@draco@@U?$default_delete@VFileWriterInterface@draco@@@std@@@std@@QEAA@$$QEAV01@@Z
	??$?0U?$default_delete@VFileWriterInterface@draco@@@std@@$0A@@?$unique_ptr@VFileWriterInterface@draco@@U?$default_delete@VFileWriterInterface@draco@@@std@@@std@@QEAA@$$T@Z
	??$?0U?$default_delete@VFileWriterInterface@draco@@@std@@PEAVFileWriterInterface@draco@@@?$_Compressed_pair@U?$default_delete@VFileWriterInterface@draco@@@std@@PEAVFileWriterInterface@draco@@$00@std@@QEAA@U_One_then_variadic_args_t@1@$$QEAU?$default_delete@VFileWriterInterface@draco@@@1@$$QEAPEAVFileWriterInterface@draco@@@Z
	??$?0U?$default_delete@VGeometryMetadata@draco@@@std@@$0A@@?$unique_ptr@VGeometryMetadata@draco@@U?$default_delete@VGeometryMetadata@draco@@@std@@@std@@QEAA@$$QEAV01@@Z
	??$?0U?$default_delete@VGeometryMetadata@draco@@@std@@$0A@@?$unique_ptr@VGeometryMetadata@draco@@U?$default_delete@VGeometryMetadata@draco@@@std@@@std@@QEAA@PEAVGeometryMetadata@draco@@@Z
	??$?0U?$default_delete@VGeometryMetadata@draco@@@std@@$0A@@?$unique_ptr@VGeometryMetadata@draco@@U?$default_delete@VGeometryMetadata@draco@@@std@@@std@@QEAA@XZ
	??$?0U?$default_delete@VGeometryMetadata@draco@@@std@@PEAVGeometryMetadata@draco@@@?$_Compressed_pair@U?$default_delete@VGeometryMetadata@draco@@@std@@PEAVGeometryMetadata@draco@@$00@std@@QEAA@U_One_then_variadic_args_t@1@$$QEAU?$default_delete@VGeometryMetadata@draco@@@1@$$QEAPEAVGeometryMetadata@draco@@@Z
	??$?0U?$default_delete@VMesh@draco@@@std@@$0A@@?$unique_ptr@VMesh@draco@@U?$default_delete@VMesh@draco@@@std@@@std@@QEAA@$$QEAV01@@Z
	??$?0U?$default_delete@VMesh@draco@@@std@@$0A@@?$unique_ptr@VMesh@draco@@U?$default_delete@VMesh@draco@@@std@@@std@@QEAA@$$T@Z
	??$?0U?$default_delete@VMesh@draco@@@std@@$0A@@?$unique_ptr@VMesh@draco@@U?$default_delete@VMesh@draco@@@std@@@std@@QEAA@PEAVMesh@draco@@@Z
	??$?0U?$default_delete@VMesh@draco@@@std@@$0A@@?$unique_ptr@VMesh@draco@@U?$default_delete@VMesh@draco@@@std@@@std@@QEAA@XZ
	??$?0U?$default_delete@VMesh@draco@@@std@@PEAVMesh@draco@@@?$_Compressed_pair@U?$default_delete@VMesh@draco@@@std@@PEAVMesh@draco@@$00@std@@QEAA@U_One_then_variadic_args_t@1@$$QEAU?$default_delete@VMesh@draco@@@1@$$QEAPEAVMesh@draco@@@Z
	??$?0U?$default_delete@VMesh@draco@@@std@@PEAVMesh@draco@@@?$_Compressed_pair@U?$default_delete@VPointCloud@draco@@@std@@PEAVPointCloud@draco@@$00@std@@QEAA@U_One_then_variadic_args_t@1@$$QEAU?$default_delete@VMesh@draco@@@1@$$QEAPEAVMesh@draco@@@Z
	??$?0U?$default_delete@VMeshDecoder@draco@@@std@@$0A@@?$unique_ptr@VMeshDecoder@draco@@U?$default_delete@VMeshDecoder@draco@@@std@@@std@@QEAA@$$QEAV01@@Z
	??$?0U?$default_delete@VMeshDecoder@draco@@@std@@$0A@@?$unique_ptr@VMeshDecoder@draco@@U?$default_delete@VMeshDecoder@draco@@@std@@@std@@QEAA@PEAVMeshDecoder@draco@@@Z
	??$?0U?$default_delete@VMeshDecoder@draco@@@std@@$0A@@?$unique_ptr@VMeshDecoder@draco@@U?$default_delete@VMeshDecoder@draco@@@std@@@std@@QEAA@XZ
	??$?0U?$default_delete@VMeshDecoder@draco@@@std@@PEAVMeshDecoder@draco@@@?$_Compressed_pair@U?$default_delete@VMeshDecoder@draco@@@std@@PEAVMeshDecoder@draco@@$00@std@@QEAA@U_One_then_variadic_args_t@1@$$QEAU?$default_delete@VMeshDecoder@draco@@@1@$$QEAPEAVMeshDecoder@draco@@@Z
	??$?0U?$default_delete@VMeshEdgebreakerDecoderImplInterface@draco@@@std@@$0A@@?$unique_ptr@VMeshEdgebreakerDecoderImplInterface@draco@@U?$default_delete@VMeshEdgebreakerDecoderImplInterface@draco@@@std@@@std@@QEAA@PEAVMeshEdgebreakerDecoderImplInterface@draco@@@Z
	??$?0U?$default_delete@VMeshEdgebreakerDecoderImplInterface@draco@@@std@@$0A@@?$unique_ptr@VMeshEdgebreakerDecoderImplInterface@draco@@U?$default_delete@VMeshEdgebreakerDecoderImplInterface@draco@@@std@@@std@@QEAA@XZ
	??$?0U?$default_delete@VMeshEdgebreakerEncoderImplInterface@draco@@@std@@$0A@@?$unique_ptr@VMeshEdgebreakerEncoderImplInterface@draco@@U?$default_delete@VMeshEdgebreakerEncoderImplInterface@draco@@@std@@@std@@QEAA@PEAVMeshEdgebreakerEncoderImplInterface@draco@@@Z
	??$?0U?$default_delete@VMeshEdgebreakerEncoderImplInterface@draco@@@std@@$0A@@?$unique_ptr@VMeshEdgebreakerEncoderImplInterface@draco@@U?$default_delete@VMeshEdgebreakerEncoderImplInterface@draco@@@std@@@std@@QEAA@XZ
	??$?0U?$default_delete@VMeshEncoder@draco@@@std@@$0A@@?$unique_ptr@VMeshEncoder@draco@@U?$default_delete@VMeshEncoder@draco@@@std@@@std@@QEAA@PEAVMeshEncoder@draco@@@Z
	??$?0U?$default_delete@VMeshEncoder@draco@@@std@@$0A@@?$unique_ptr@VMeshEncoder@draco@@U?$default_delete@VMeshEncoder@draco@@@std@@@std@@QEAA@XZ
	??$?0U?$default_delete@VMetadata@draco@@@std@@$0A@@?$unique_ptr@VMetadata@draco@@U?$default_delete@VMetadata@draco@@@std@@@std@@QEAA@$$QEAV01@@Z
	??$?0U?$default_delete@VMetadata@draco@@@std@@$0A@@?$unique_ptr@VMetadata@draco@@U?$default_delete@VMetadata@draco@@@std@@@std@@QEAA@PEAVMetadata@draco@@@Z
	??$?0U?$default_delete@VMetadata@draco@@@std@@$0A@@?$unique_ptr@VMetadata@draco@@U?$default_delete@VMetadata@draco@@@std@@@std@@QEAA@XZ
	??$?0U?$default_delete@VMetadata@draco@@@std@@PEAVMetadata@draco@@@?$_Compressed_pair@U?$default_delete@VMetadata@draco@@@std@@PEAVMetadata@draco@@$00@std@@QEAA@U_One_then_variadic_args_t@1@$$QEAU?$default_delete@VMetadata@draco@@@1@$$QEAPEAVMetadata@draco@@@Z
	??$?0U?$default_delete@VPointAttribute@draco@@@std@@$0A@@?$unique_ptr@VPointAttribute@draco@@U?$default_delete@VPointAttribute@draco@@@std@@@std@@QEAA@$$QEAV01@@Z
	??$?0U?$default_delete@VPointAttribute@draco@@@std@@$0A@@?$unique_ptr@VPointAttribute@draco@@U?$default_delete@VPointAttribute@draco@@@std@@@std@@QEAA@$$T@Z
	??$?0U?$default_delete@VPointAttribute@draco@@@std@@$0A@@?$unique_ptr@VPointAttribute@draco@@U?$default_delete@VPointAttribute@draco@@@std@@@std@@QEAA@PEAVPointAttribute@draco@@@Z
	??$?0U?$default_delete@VPointAttribute@draco@@@std@@$0A@@?$unique_ptr@VPointAttribute@draco@@U?$default_delete@VPointAttribute@draco@@@std@@@std@@QEAA@XZ
	??$?0U?$default_delete@VPointAttribute@draco@@@std@@PEAVPointAttribute@draco@@@?$_Compressed_pair@U?$default_delete@VPointAttribute@draco@@@std@@PEAVPointAttribute@draco@@$00@std@@QEAA@U_One_then_variadic_args_t@1@$$QEAU?$default_delete@VPointAttribute@draco@@@1@$$QEAPEAVPointAttribute@draco@@@Z
	??$?0U?$default_delete@VPointCloud@draco@@@std@@$0A@@?$unique_ptr@VPointCloud@draco@@U?$default_delete@VPointCloud@draco@@@std@@@std@@QEAA@$$QEAV01@@Z
	??$?0U?$default_delete@VPointCloud@draco@@@std@@$0A@@?$unique_ptr@VPointCloud@draco@@U?$default_delete@VPointCloud@draco@@@std@@@std@@QEAA@PEAVPointCloud@draco@@@Z
	??$?0U?$default_delete@VPointCloud@draco@@@std@@$0A@@?$unique_ptr@VPointCloud@draco@@U?$default_delete@VPointCloud@draco@@@std@@@std@@QEAA@XZ
	??$?0U?$default_delete@VPointCloud@draco@@@std@@PEAVPointCloud@draco@@@?$_Compressed_pair@U?$default_delete@VPointCloud@draco@@@std@@PEAVPointCloud@draco@@$00@std@@QEAA@U_One_then_variadic_args_t@1@$$QEAU?$default_delete@VPointCloud@draco@@@1@$$QEAPEAVPointCloud@draco@@@Z
	??$?0U?$default_delete@VPointCloudDecoder@draco@@@std@@$0A@@?$unique_ptr@VPointCloudDecoder@draco@@U?$default_delete@VPointCloudDecoder@draco@@@std@@@std@@QEAA@$$QEAV01@@Z
	??$?0U?$default_delete@VPointCloudDecoder@draco@@@std@@$0A@@?$unique_ptr@VPointCloudDecoder@draco@@U?$default_delete@VPointCloudDecoder@draco@@@std@@@std@@QEAA@PEAVPointCloudDecoder@draco@@@Z
	??$?0U?$default_delete@VPointCloudDecoder@draco@@@std@@$0A@@?$unique_ptr@VPointCloudDecoder@draco@@U?$default_delete@VPointCloudDecoder@draco@@@std@@@std@@QEAA@XZ
	??$?0U?$default_delete@VPointCloudDecoder@draco@@@std@@PEAVPointCloudDecoder@draco@@@?$_Compressed_pair@U?$default_delete@VPointCloudDecoder@draco@@@std@@PEAVPointCloudDecoder@draco@@$00@std@@QEAA@U_One_then_variadic_args_t@1@$$QEAU?$default_delete@VPointCloudDecoder@draco@@@1@$$QEAPEAVPointCloudDecoder@draco@@@Z
	??$?0U?$default_delete@VPointCloudEncoder@draco@@@std@@$0A@@?$unique_ptr@VPointCloudEncoder@draco@@U?$default_delete@VPointCloudEncoder@draco@@@std@@@std@@QEAA@XZ
	??$?0U?$default_delete@VPointsSequencer@draco@@@std@@$0A@@?$unique_ptr@VPointsSequencer@draco@@U?$default_delete@VPointsSequencer@draco@@@std@@@std@@QEAA@$$QEAV01@@Z
	??$?0U?$default_delete@VPointsSequencer@draco@@@std@@$0A@@?$unique_ptr@VPointsSequencer@draco@@U?$default_delete@VPointsSequencer@draco@@@std@@@std@@QEAA@PEAVPointsSequencer@draco@@@Z
	??$?0U?$default_delete@VPointsSequencer@draco@@@std@@$0A@@?$unique_ptr@VPointsSequencer@draco@@U?$default_delete@VPointsSequencer@draco@@@std@@@std@@QEAA@XZ
	??$?0U?$default_delete@VPointsSequencer@draco@@@std@@PEAVPointsSequencer@draco@@@?$_Compressed_pair@U?$default_delete@VPointsSequencer@draco@@@std@@PEAVPointsSequencer@draco@@$00@std@@QEAA@U_One_then_variadic_args_t@1@$$QEAU?$default_delete@VPointsSequencer@draco@@@1@$$QEAPEAVPointsSequencer@draco@@@Z
	??$?0U?$default_delete@VSequentialAttributeDecoder@draco@@@std@@$0A@@?$unique_ptr@VSequentialAttributeDecoder@draco@@U?$default_delete@VSequentialAttributeDecoder@draco@@@std@@@std@@QEAA@$$QEAV01@@Z
	??$?0U?$default_delete@VSequentialAttributeDecoder@draco@@@std@@$0A@@?$unique_ptr@VSequentialAttributeDecoder@draco@@U?$default_delete@VSequentialAttributeDecoder@draco@@@std@@@std@@QEAA@$$T@Z
	??$?0U?$default_delete@VSequentialAttributeDecoder@draco@@@std@@$0A@@?$unique_ptr@VSequentialAttributeDecoder@draco@@U?$default_delete@VSequentialAttributeDecoder@draco@@@std@@@std@@QEAA@PEAVSequentialAttributeDecoder@draco@@@Z
	??$?0U?$default_delete@VSequentialAttributeDecoder@draco@@@std@@$0A@@?$unique_ptr@VSequentialAttributeDecoder@draco@@U?$default_delete@VSequentialAttributeDecoder@draco@@@std@@@std@@QEAA@XZ
	??$?0U?$default_delete@VSequentialAttributeDecoder@draco@@@std@@PEAVSequentialAttributeDecoder@draco@@@?$_Compressed_pair@U?$default_delete@VSequentialAttributeDecoder@draco@@@std@@PEAVSequentialAttributeDecoder@draco@@$00@std@@QEAA@U_One_then_variadic_args_t@1@$$QEAU?$default_delete@VSequentialAttributeDecoder@draco@@@1@$$QEAPEAVSequentialAttributeDecoder@draco@@@Z
	??$?0U?$default_delete@VSequentialAttributeDecodersController@draco@@@std@@$0A@@?$unique_ptr@VSequentialAttributeDecodersController@draco@@U?$default_delete@VSequentialAttributeDecodersController@draco@@@std@@@std@@QEAA@PEAVSequentialAttributeDecodersController@draco@@@Z
	??$?0U?$default_delete@VSequentialAttributeDecodersController@draco@@@std@@PEAVSequentialAttributeDecodersController@draco@@@?$_Compressed_pair@U?$default_delete@VAttributesDecoderInterface@draco@@@std@@PEAVAttributesDecoderInterface@draco@@$00@std@@QEAA@U_One_then_variadic_args_t@1@$$QEAU?$default_delete@VSequentialAttributeDecodersController@draco@@@1@$$QEAPEAVSequentialAttributeDecodersController@draco@@@Z
	??$?0U?$default_delete@VSequentialAttributeEncoder@draco@@@std@@$0A@@?$unique_ptr@VSequentialAttributeEncoder@draco@@U?$default_delete@VSequentialAttributeEncoder@draco@@@std@@@std@@QEAA@$$QEAV01@@Z
	??$?0U?$default_delete@VSequentialAttributeEncoder@draco@@@std@@$0A@@?$unique_ptr@VSequentialAttributeEncoder@draco@@U?$default_delete@VSequentialAttributeEncoder@draco@@@std@@@std@@QEAA@PEAVSequentialAttributeEncoder@draco@@@Z
	??$?0U?$default_delete@VSequentialAttributeEncoder@draco@@@std@@$0A@@?$unique_ptr@VSequentialAttributeEncoder@draco@@U?$default_delete@VSequentialAttributeEncoder@draco@@@std@@@std@@QEAA@XZ
	??$?0U?$default_delete@VSequentialAttributeEncoder@draco@@@std@@PEAVSequentialAttributeEncoder@draco@@@?$_Compressed_pair@U?$default_delete@VSequentialAttributeEncoder@draco@@@std@@PEAVSequentialAttributeEncoder@draco@@$00@std@@QEAA@U_One_then_variadic_args_t@1@$$QEAU?$default_delete@VSequentialAttributeEncoder@draco@@@1@$$QEAPEAVSequentialAttributeEncoder@draco@@@Z
	??$?0U?$default_delete@VSequentialAttributeEncodersController@draco@@@std@@$0A@@?$unique_ptr@VSequentialAttributeEncodersController@draco@@U?$default_delete@VSequentialAttributeEncodersController@draco@@@std@@@std@@QEAA@PEAVSequentialAttributeEncodersController@draco@@@Z
	??$?0U?$default_delete@VSequentialAttributeEncodersController@draco@@@std@@PEAVSequentialAttributeEncodersController@draco@@@?$_Compressed_pair@U?$default_delete@VAttributesEncoder@draco@@@std@@PEAVAttributesEncoder@draco@@$00@std@@QEAA@U_One_then_variadic_args_t@1@$$QEAU?$default_delete@VSequentialAttributeEncodersController@draco@@@1@$$QEAPEAVSequentialAttributeEncodersController@draco@@@Z
	??$?0U?$default_delete@VSequentialNormalAttributeDecoder@draco@@@std@@$0A@@?$unique_ptr@VSequentialNormalAttributeDecoder@draco@@U?$default_delete@VSequentialNormalAttributeDecoder@draco@@@std@@@std@@QEAA@PEAVSequentialNormalAttributeDecoder@draco@@@Z
	??$?0U?$default_delete@VSequentialNormalAttributeDecoder@draco@@@std@@PEAVSequentialNormalAttributeDecoder@draco@@@?$_Compressed_pair@U?$default_delete@VSequentialAttributeDecoder@draco@@@std@@PEAVSequentialAttributeDecoder@draco@@$00@std@@QEAA@U_One_then_variadic_args_t@1@$$QEAU?$default_delete@VSequentialNormalAttributeDecoder@draco@@@1@$$QEAPEAVSequentialNormalAttributeDecoder@draco@@@Z
	??$?0U?$default_delete@VStdioFileWriter@draco@@@std@@$0A@@?$unique_ptr@VStdioFileWriter@draco@@U?$default_delete@VStdioFileWriter@draco@@@std@@@std@@QEAA@PEAVStdioFileWriter@draco@@@Z
	??$?0U?$default_delete@VStdioFileWriter@draco@@@std@@PEAVStdioFileWriter@draco@@@?$_Compressed_pair@U?$default_delete@VFileWriterInterface@draco@@@std@@PEAVFileWriterInterface@draco@@$00@std@@QEAA@U_One_then_variadic_args_t@1@$$QEAU?$default_delete@VStdioFileWriter@draco@@@1@$$QEAPEAVStdioFileWriter@draco@@@Z
	??$?0U?$less@H@std@@U_One_then_variadic_args_t@1@V?$allocator@U?$_Tree_node@U?$pair@$$CBHVOptions@draco@@@std@@PEAX@std@@@1@@?$_Compressed_pair@U?$less@H@std@@V?$_Compressed_pair@V?$allocator@U?$_Tree_node@U?$pair@$$CBHVOptions@draco@@@std@@PEAX@std@@@std@@V?$_Tree_val@U?$_Tree_simple_types@U?$pair@$$CBHVOptions@draco@@@std@@@std@@@2@$00@2@$00@std@@QEAA@U_One_then_variadic_args_t@1@$$QEAU?$less@H@1@$$QEAU21@$$QEAV?$allocator@U?$_Tree_node@U?$pair@$$CBHVOptions@draco@@@std@@PEAX@std@@@1@@Z
	??$?0U?$less@V?$basic_string@DU?$char_traits@D@std@@V?$allocator@D@2@@std@@@std@@U_One_then_variadic_args_t@1@V?$allocator@U?$_Tree_node@U?$pair@$$CBV?$basic_string@DU?$char_traits@D@std@@V?$allocator@D@2@@std@@H@std@@PEAX@std@@@1@@?$_Compressed_pair@U?$less@V?$basic_string@DU?$char_traits@D@std@@V?$allocator@D@2@@std@@@std@@V?$_Compressed_pair@V?$allocator@U?$_Tree_node@U?$pair@$$CBV?$basic_string@DU?$char_traits@D@std@@V?$allocator@D@2@@std@@H@std@@PEAX@std@@@std@@V?$_Tree_val@U?$_Tree_simple_types@U?$pair@$$CBV?$basic_string@DU?$char_traits@D@std@@V?$allocator@D@2@@std@@H@std@@@std@@@2@$00@2@$00@std@@QEAA@U_One_then_variadic_args_t@1@$$QEAU?$less@V?$basic_string@DU?$char_traits@D@std@@V?$allocator@D@2@@std@@@1@$$QEAU21@$$QEAV?$allocator@U?$_Tree_node@U?$pair@$$CBV?$basic_string@DU?$char_traits@D@std@@V?$allocator@D@2@@std@@H@std@@PEAX@std@@@1@@Z
	??$?0U?$less@V?$basic_string@DU?$char_traits@D@std@@V?$allocator@D@2@@std@@@std@@U_One_then_variadic_args_t@1@V?$allocator@U?$_Tree_node@U?$pair@$$CBV?$basic_string@DU?$char_traits@D@std@@V?$allocator@D@2@@std@@V12@@std@@PEAX@std@@@1@@?$_Compressed_pair@U?$less@V?$basic_string@DU?$char_traits@D@std@@V?$allocator@D@2@@std@@@std@@V?$_Compressed_pair@V?$allocator@U?$_Tree_node@U?$pair@$$CBV?$basic_string@DU?$char_traits@D@std@@V?$allocator@D@2@@std@@V12@@std@@PEAX@std@@@std@@V?$_Tree_val@U?$_Tree_simple_types@U?$pair@$$CBV?$basic_string@DU?$char_traits@D@std@@V?$allocator@D@2@@std@@V12@@std@@@std@@@2@$00@2@$00@std@@QEAA@U_One_then_variadic_args_t@1@$$QEAU?$less@V?$basic_string@DU?$char_traits@D@std@@V?$allocator@D@2@@std@@@1@$$QEAU21@$$QEAV?$allocator@U?$_Tree_node@U?$pair@$$CBV?$basic_string@DU?$char_traits@D@std@@V?$allocator@D@2@@std@@V12@@std@@PEAX@std@@@1@@Z
	??$?0U?$less@W4Type@GeometryAttribute@draco@@@std@@U_One_then_variadic_args_t@1@V?$allocator@U?$_Tree_node@U?$pair@$$CBW4Type@GeometryAttribute@draco@@VOptions@3@@std@@PEAX@std@@@1@@?$_Compressed_pair@U?$less@W4Type@GeometryAttribute@draco@@@std@@V?$_Compressed_pair@V?$allocator@U?$_Tree_node@U?$pair@$$CBW4Type@GeometryAttribute@draco@@VOptions@3@@std@@PEAX@std@@@std@@V?$_Tree_val@U?$_Tree_simple_types@U?$pair@$$CBW4Type@GeometryAttribute@draco@@VOptions@3@@std@@@std@@@2@$00@2@$00@std@@QEAA@U_One_then_variadic_args_t@1@$$QEAU?$less@W4Type@GeometryAttribute@draco@@@1@$$QEAU21@$$QEAV?$allocator@U?$_Tree_node@U?$pair@$$CBW4Type@GeometryAttribute@draco@@VOptions@3@@std@@PEAX@std@@@1@@Z
	??$?0U?$pair@$$CBHH@std@@@?$allocator@U?$_List_node@U?$pair@$$CBHH@std@@PEAX@std@@@std@@QEAA@AEBV?$allocator@U?$pair@$$CBHH@std@@@1@@Z
	??$?0U?$pair@$$CBHH@std@@@?$allocator@V?$_List_unchecked_iterator@V?$_List_val@U?$_List_simple_types@U?$pair@$$CBHH@std@@@std@@@std@@@std@@@std@@QEAA@AEBV?$allocator@U?$pair@$$CBHH@std@@@1@@Z
	??$?0U?$pair@$$CBHV?$IndexType@IUCornerIndex_tag_type_@draco@@@draco@@@std@@@?$allocator@U?$_List_node@U?$pair@$$CBHV?$IndexType@IUCornerIndex_tag_type_@draco@@@draco@@@std@@PEAX@std@@@std@@QEAA@AEBV?$allocator@U?$pair@$$CBHV?$IndexType@IUCornerIndex_tag_type_@draco@@@draco@@@std@@@1@@Z
	??$?0U?$pair@$$CBHV?$IndexType@IUCornerIndex_tag_type_@draco@@@draco@@@std@@@?$allocator@V?$_List_unchecked_iterator@V?$_List_val@U?$_List_simple_types@U?$pair@$$CBHV?$IndexType@IUCornerIndex_tag_type_@draco@@@draco@@@std@@@std@@@std@@@std@@@std@@QEAA@AEBV?$allocator@U?$pair@$$CBHV?$IndexType@IUCornerIndex_tag_type_@draco@@@draco@@@std@@@1@@Z
	??$?0U?$pair@$$CBHV?$basic_string@DU?$char_traits@D@std@@V?$allocator@D@2@@std@@@std@@@?$allocator@U?$_List_node@U?$pair@$$CBHV?$basic_string@DU?$char_traits@D@std@@V?$allocator@D@2@@std@@@std@@PEAX@std@@@std@@QEAA@AEBV?$allocator@U?$pair@$$CBHV?$basic_string@DU?$char_traits@D@std@@V?$allocator@D@2@@std@@@std@@@1@@Z
	??$?0U?$pair@$$CBHV?$basic_string@DU?$char_traits@D@std@@V?$allocator@D@2@@std@@@std@@@?$allocator@V?$_List_unchecked_iterator@V?$_List_val@U?$_List_simple_types@U?$pair@$$CBHV?$basic_string@DU?$char_traits@D@std@@V?$allocator@D@2@@std@@@std@@@std@@@std@@@std@@@std@@QEAA@AEBV?$allocator@U?$pair@$$CBHV?$basic_string@DU?$char_traits@D@std@@V?$allocator@D@2@@std@@@std@@@1@@Z
	??$?0U?$pair@$$CBV?$IndexType@IUAttributeValueIndex_tag_type_@draco@@@draco@@V?$IndexType@IUPointIndex_tag_type_@draco@@@2@@std@@@?$_Tree_temp_node@V?$allocator@U?$_Tree_node@U?$pair@$$CBV?$IndexType@IUAttributeValueIndex_tag_type_@draco@@@draco@@V?$IndexType@IUPointIndex_tag_type_@draco@@@2@@std@@PEAX@std@@@std@@@std@@QEAA@AEAV?$allocator@U?$_Tree_node@U?$pair@$$CBV?$IndexType@IUAttributeValueIndex_tag_type_@draco@@@draco@@V?$IndexType@IUPointIndex_tag_type_@draco@@@2@@std@@PEAX@std@@@1@PEAU?$_Tree_node@U?$pair@$$CBV?$IndexType@IUAttributeValueIndex_tag_type_@draco@@@draco@@V?$IndexType@IUPointIndex_tag_type_@draco@@@2@@std@@PEAX@1@$$QEAU?$pair@$$CBV?$IndexType@IUAttributeValueIndex_tag_type_@draco@@@draco@@V?$IndexType@IUPointIndex_tag_type_@draco@@@2@@1@@Z
	??$?0U?$pair@$$CBV?$IndexType@IUPointIndex_tag_type_@draco@@@draco@@V12@@std@@@?$allocator@U?$_List_node@U?$pair@$$CBV?$IndexType@IUPointIndex_tag_type_@draco@@@draco@@V12@@std@@PEAX@std@@@std@@QEAA@AEBV?$allocator@U?$pair@$$CBV?$IndexType@IUPointIndex_tag_type_@draco@@@draco@@V12@@std@@@1@@Z
	??$?0U?$pair@$$CBV?$IndexType@IUPointIndex_tag_type_@draco@@@draco@@V12@@std@@@?$allocator@V?$_List_unchecked_iterator@V?$_List_val@U?$_List_simple_types@U?$pair@$$CBV?$IndexType@IUPointIndex_tag_type_@draco@@@draco@@V12@@std@@@std@@@std@@@std@@@std@@QEAA@AEBV?$allocator@U?$pair@$$CBV?$IndexType@IUPointIndex_tag_type_@draco@@@draco@@V12@@std@@@1@@Z
	??$?0U?$pair@$$CBV?$array@E$00@std@@V?$IndexType@IUAttributeValueIndex_tag_type_@draco@@@draco@@@std@@@?$allocator@U?$_List_node@U?$pair@$$CBV?$array@E$00@std@@V?$IndexType@IUAttributeValueIndex_tag_type_@draco@@@draco@@@std@@PEAX@std@@@std@@QEAA@AEBV?$allocator@U?$pair@$$CBV?$array@E$00@std@@V?$IndexType@IUAttributeValueIndex_tag_type_@draco@@@draco@@@std@@@1@@Z
	??$?0U?$pair@$$CBV?$array@E$00@std@@V?$IndexType@IUAttributeValueIndex_tag_type_@draco@@@draco@@@std@@@?$allocator@V?$_List_unchecked_iterator@V?$_List_val@U?$_List_simple_types@U?$pair@$$CBV?$array@E$00@std@@V?$IndexType@IUAttributeValueIndex_tag_type_@draco@@@draco@@@std@@@std@@@std@@@std@@@std@@QEAA@AEBV?$allocator@U?$pair@$$CBV?$array@E$00@std@@V?$IndexType@IUAttributeValueIndex_tag_type_@draco@@@draco@@@std@@@1@@Z
	??$?0U?$pair@$$CBV?$array@E$01@std@@V?$IndexType@IUAttributeValueIndex_tag_type_@draco@@@draco@@@std@@@?$allocator@U?$_List_node@U?$pair@$$CBV?$array@E$01@std@@V?$IndexType@IUAttributeValueIndex_tag_type_@draco@@@draco@@@std@@PEAX@std@@@std@@QEAA@AEBV?$allocator@U?$pair@$$CBV?$array@E$01@std@@V?$IndexType@IUAttributeValueIndex_tag_type_@draco@@@draco@@@std@@@1@@Z
	??$?0U?$pair@$$CBV?$array@E$01@std@@V?$IndexType@IUAttributeValueIndex_tag_type_@draco@@@draco@@@std@@@?$allocator@V?$_List_unchecked_iterator@V?$_List_val@U?$_List_simple_types@U?$pair@$$CBV?$array@E$01@std@@V?$IndexType@IUAttributeValueIndex_tag_type_@draco@@@draco@@@std@@@std@@@std@@@std@@@std@@QEAA@AEBV?$allocator@U?$pair@$$CBV?$array@E$01@std@@V?$IndexType@IUAttributeValueIndex_tag_type_@draco@@@draco@@@std@@@1@@Z
	??$?0U?$pair@$$CBV?$array@E$02@std@@V?$IndexType@IUAttributeValueIndex_tag_type_@draco@@@draco@@@std@@@?$allocator@U?$_List_node@U?$pair@$$CBV?$array@E$02@std@@V?$IndexType@IUAttributeValueIndex_tag_type_@draco@@@draco@@@std@@PEAX@std@@@std@@QEAA@AEBV?$allocator@U?$pair@$$CBV?$array@E$02@std@@V?$IndexType@IUAttributeValueIndex_tag_type_@draco@@@draco@@@std@@@1@@Z
	??$?0U?$pair@$$CBV?$array@E$02@std@@V?$IndexType@IUAttributeValueIndex_tag_type_@draco@@@draco@@@std@@@?$allocator@V?$_List_unchecked_iterator@V?$_List_val@U?$_List_simple_types@U?$pair@$$CBV?$array@E$02@std@@V?$IndexType@IUAttributeValueIndex_tag_type_@draco@@@draco@@@std@@@std@@@std@@@std@@@std@@QEAA@AEBV?$allocator@U?$pair@$$CBV?$array@E$02@std@@V?$IndexType@IUAttributeValueIndex_tag_type_@draco@@@draco@@@std@@@1@@Z
	??$?0U?$pair@$$CBV?$array@E$03@std@@V?$IndexType@IUAttributeValueIndex_tag_type_@draco@@@draco@@@std@@@?$allocator@U?$_List_node@U?$pair@$$CBV?$array@E$03@std@@V?$IndexType@IUAttributeValueIndex_tag_type_@draco@@@draco@@@std@@PEAX@std@@@std@@QEAA@AEBV?$allocator@U?$pair@$$CBV?$array@E$03@std@@V?$IndexType@IUAttributeValueIndex_tag_type_@draco@@@draco@@@std@@@1@@Z
	??$?0U?$pair@$$CBV?$array@E$03@std@@V?$IndexType@IUAttributeValueIndex_tag_type_@draco@@@draco@@@std@@@?$allocator@V?$_List_unchecked_iterator@V?$_List_val@U?$_List_simple_types@U?$pair@$$CBV?$array@E$03@std@@V?$IndexType@IUAttributeValueIndex_tag_type_@draco@@@draco@@@std@@@std@@@std@@@std@@@std@@QEAA@AEBV?$allocator@U?$pair@$$CBV?$array@E$03@std@@V?$IndexType@IUAttributeValueIndex_tag_type_@draco@@@draco@@@std@@@1@@Z
	??$?0U?$pair@$$CBV?$array@G$00@std@@V?$IndexType@IUAttributeValueIndex_tag_type_@draco@@@draco@@@std@@@?$allocator@U?$_List_node@U?$pair@$$CBV?$array@G$00@std@@V?$IndexType@IUAttributeValueIndex_tag_type_@draco@@@draco@@@std@@PEAX@std@@@std@@QEAA@AEBV?$allocator@U?$pair@$$CBV?$array@G$00@std@@V?$IndexType@IUAttributeValueIndex_tag_type_@draco@@@draco@@@std@@@1@@Z
	??$?0U?$pair@$$CBV?$array@G$00@std@@V?$IndexType@IUAttributeValueIndex_tag_type_@draco@@@draco@@@std@@@?$allocator@V?$_List_unchecked_iterator@V?$_List_val@U?$_List_simple_types@U?$pair@$$CBV?$array@G$00@std@@V?$IndexType@IUAttributeValueIndex_tag_type_@draco@@@draco@@@std@@@std@@@std@@@std@@@std@@QEAA@AEBV?$allocator@U?$pair@$$CBV?$array@G$00@std@@V?$IndexType@IUAttributeValueIndex_tag_type_@draco@@@draco@@@std@@@1@@Z
	??$?0U?$pair@$$CBV?$array@G$01@std@@V?$IndexType@IUAttributeValueIndex_tag_type_@draco@@@draco@@@std@@@?$allocator@U?$_List_node@U?$pair@$$CBV?$array@G$01@std@@V?$IndexType@IUAttributeValueIndex_tag_type_@draco@@@draco@@@std@@PEAX@std@@@std@@QEAA@AEBV?$allocator@U?$pair@$$CBV?$array@G$01@std@@V?$IndexType@IUAttributeValueIndex_tag_type_@draco@@@draco@@@std@@@1@@Z
	??$?0U?$pair@$$CBV?$array@G$01@std@@V?$IndexType@IUAttributeValueIndex_tag_type_@draco@@@draco@@@std@@@?$allocator@V?$_List_unchecked_iterator@V?$_List_val@U?$_List_simple_types@U?$pair@$$CBV?$array@G$01@std@@V?$IndexType@IUAttributeValueIndex_tag_type_@draco@@@draco@@@std@@@std@@@std@@@std@@@std@@QEAA@AEBV?$allocator@U?$pair@$$CBV?$array@G$01@std@@V?$IndexType@IUAttributeValueIndex_tag_type_@draco@@@draco@@@std@@@1@@Z
	??$?0U?$pair@$$CBV?$array@G$02@std@@V?$IndexType@IUAttributeValueIndex_tag_type_@draco@@@draco@@@std@@@?$allocator@U?$_List_node@U?$pair@$$CBV?$array@G$02@std@@V?$IndexType@IUAttributeValueIndex_tag_type_@draco@@@draco@@@std@@PEAX@std@@@std@@QEAA@AEBV?$allocator@U?$pair@$$CBV?$array@G$02@std@@V?$IndexType@IUAttributeValueIndex_tag_type_@draco@@@draco@@@std@@@1@@Z
	??$?0U?$pair@$$CBV?$array@G$02@std@@V?$IndexType@IUAttributeValueIndex_tag_type_@draco@@@draco@@@std@@@?$allocator@V?$_List_unchecked_iterator@V?$_List_val@U?$_List_simple_types@U?$pair@$$CBV?$array@G$02@std@@V?$IndexType@IUAttributeValueIndex_tag_type_@draco@@@draco@@@std@@@std@@@std@@@std@@@std@@QEAA@AEBV?$allocator@U?$pair@$$CBV?$array@G$02@std@@V?$IndexType@IUAttributeValueIndex_tag_type_@draco@@@draco@@@std@@@1@@Z
	??$?0U?$pair@$$CBV?$array@G$03@std@@V?$IndexType@IUAttributeValueIndex_tag_type_@draco@@@draco@@@std@@@?$allocator@U?$_List_node@U?$pair@$$CBV?$array@G$03@std@@V?$IndexType@IUAttributeValueIndex_tag_type_@draco@@@draco@@@std@@PEAX@std@@@std@@QEAA@AEBV?$allocator@U?$pair@$$CBV?$array@G$03@std@@V?$IndexType@IUAttributeValueIndex_tag_type_@draco@@@draco@@@std@@@1@@Z
	??$?0U?$pair@$$CBV?$array@G$03@std@@V?$IndexType@IUAttributeValueIndex_tag_type_@draco@@@draco@@@std@@@?$allocator@V?$_List_unchecked_iterator@V?$_List_val@U?$_List_simple_types@U?$pair@$$CBV?$array@G$03@std@@V?$IndexType@IUAttributeValueIndex_tag_type_@draco@@@draco@@@std@@@std@@@std@@@std@@@std@@QEAA@AEBV?$allocator@U?$pair@$$CBV?$array@G$03@std@@V?$IndexType@IUAttributeValueIndex_tag_type_@draco@@@draco@@@std@@@1@@Z
	??$?0U?$pair@$$CBV?$array@I$00@std@@V?$IndexType@IUAttributeValueIndex_tag_type_@draco@@@draco@@@std@@@?$allocator@U?$_List_node@U?$pair@$$CBV?$array@I$00@std@@V?$IndexType@IUAttributeValueIndex_tag_type_@draco@@@draco@@@std@@PEAX@std@@@std@@QEAA@AEBV?$allocator@U?$pair@$$CBV?$array@I$00@std@@V?$IndexType@IUAttributeValueIndex_tag_type_@draco@@@draco@@@std@@@1@@Z
	??$?0U?$pair@$$CBV?$array@I$00@std@@V?$IndexType@IUAttributeValueIndex_tag_type_@draco@@@draco@@@std@@@?$allocator@V?$_List_unchecked_iterator@V?$_List_val@U?$_List_simple_types@U?$pair@$$CBV?$array@I$00@std@@V?$IndexType@IUAttributeValueIndex_tag_type_@draco@@@draco@@@std@@@std@@@std@@@std@@@std@@QEAA@AEBV?$allocator@U?$pair@$$CBV?$array@I$00@std@@V?$IndexType@IUAttributeValueIndex_tag_type_@draco@@@draco@@@std@@@1@@Z
	??$?0U?$pair@$$CBV?$array@I$01@std@@V?$IndexType@IUAttributeValueIndex_tag_type_@draco@@@draco@@@std@@@?$allocator@U?$_List_node@U?$pair@$$CBV?$array@I$01@std@@V?$IndexType@IUAttributeValueIndex_tag_type_@draco@@@draco@@@std@@PEAX@std@@@std@@QEAA@AEBV?$allocator@U?$pair@$$CBV?$array@I$01@std@@V?$IndexType@IUAttributeValueIndex_tag_type_@draco@@@draco@@@std@@@1@@Z
	??$?0U?$pair@$$CBV?$array@I$01@std@@V?$IndexType@IUAttributeValueIndex_tag_type_@draco@@@draco@@@std@@@?$allocator@V?$_List_unchecked_iterator@V?$_List_val@U?$_List_simple_types@U?$pair@$$CBV?$array@I$01@std@@V?$IndexType@IUAttributeValueIndex_tag_type_@draco@@@draco@@@std@@@std@@@std@@@std@@@std@@QEAA@AEBV?$allocator@U?$pair@$$CBV?$array@I$01@std@@V?$IndexType@IUAttributeValueIndex_tag_type_@draco@@@draco@@@std@@@1@@Z
	??$?0U?$pair@$$CBV?$array@I$02@std@@V?$IndexType@IUAttributeValueIndex_tag_type_@draco@@@draco@@@std@@@?$allocator@U?$_List_node@U?$pair@$$CBV?$array@I$02@std@@V?$IndexType@IUAttributeValueIndex_tag_type_@draco@@@draco@@@std@@PEAX@std@@@std@@QEAA@AEBV?$allocator@U?$pair@$$CBV?$array@I$02@std@@V?$IndexType@IUAttributeValueIndex_tag_type_@draco@@@draco@@@std@@@1@@Z
	??$?0U?$pair@$$CBV?$array@I$02@std@@V?$IndexType@IUAttributeValueIndex_tag_type_@draco@@@draco@@@std@@@?$allocator@V?$_List_unchecked_iterator@V?$_List_val@U?$_List_simple_types@U?$pair@$$CBV?$array@I$02@std@@V?$IndexType@IUAttributeValueIndex_tag_type_@draco@@@draco@@@std@@@std@@@std@@@std@@@std@@QEAA@AEBV?$allocator@U?$pair@$$CBV?$array@I$02@std@@V?$IndexType@IUAttributeValueIndex_tag_type_@draco@@@draco@@@std@@@1@@Z
	??$?0U?$pair@$$CBV?$array@I$03@std@@V?$IndexType@IUAttributeValueIndex_tag_type_@draco@@@draco@@@std@@@?$allocator@U?$_List_node@U?$pair@$$CBV?$array@I$03@std@@V?$IndexType@IUAttributeValueIndex_tag_type_@draco@@@draco@@@std@@PEAX@std@@@std@@QEAA@AEBV?$allocator@U?$pair@$$CBV?$array@I$03@std@@V?$IndexType@IUAttributeValueIndex_tag_type_@draco@@@draco@@@std@@@1@@Z
	??$?0U?$pair@$$CBV?$array@I$03@std@@V?$IndexType@IUAttributeValueIndex_tag_type_@draco@@@draco@@@std@@@?$allocator@V?$_List_unchecked_iterator@V?$_List_val@U?$_List_simple_types@U?$pair@$$CBV?$array@I$03@std@@V?$IndexType@IUAttributeValueIndex_tag_type_@draco@@@draco@@@std@@@std@@@std@@@std@@@std@@QEAA@AEBV?$allocator@U?$pair@$$CBV?$array@I$03@std@@V?$IndexType@IUAttributeValueIndex_tag_type_@draco@@@draco@@@std@@@1@@Z
	??$?0U?$pair@$$CBV?$basic_string@DU?$char_traits@D@std@@V?$allocator@D@2@@std@@H@std@@@?$allocator@U?$_List_node@U?$pair@$$CBV?$basic_string@DU?$char_traits@D@std@@V?$allocator@D@2@@std@@H@std@@PEAX@std@@@std@@QEAA@AEBV?$allocator@U?$pair@$$CBV?$basic_string@DU?$char_traits@D@std@@V?$allocator@D@2@@std@@H@std@@@1@@Z
	??$?0U?$pair@$$CBV?$basic_string@DU?$char_traits@D@std@@V?$allocator@D@2@@std@@H@std@@@?$allocator@V?$_List_unchecked_iterator@V?$_List_val@U?$_List_simple_types@U?$pair@$$CBV?$basic_string@DU?$char_traits@D@std@@V?$allocator@D@2@@std@@H@std@@@std@@@std@@@std@@@std@@QEAA@AEBV?$allocator@U?$pair@$$CBV?$basic_string@DU?$char_traits@D@std@@V?$allocator@D@2@@std@@H@std@@@1@@Z
	??$?0U?$pair@HVOptions@draco@@@std@@@?$_Tree_temp_node@V?$allocator@U?$_Tree_node@U?$pair@$$CBHVOptions@draco@@@std@@PEAX@std@@@std@@@std@@QEAA@AEAV?$allocator@U?$_Tree_node@U?$pair@$$CBHVOptions@draco@@@std@@PEAX@std@@@1@PEAU?$_Tree_node@U?$pair@$$CBHVOptions@draco@@@std@@PEAX@1@$$QEAU?$pair@HVOptions@draco@@@1@@Z
	??$?0U?$pair@V?$IndexType@IUPointIndex_tag_type_@draco@@@draco@@V12@@std@@@?$_List_node_emplace_op2@V?$allocator@U?$_List_node@U?$pair@$$CBV?$IndexType@IUPointIndex_tag_type_@draco@@@draco@@V12@@std@@PEAX@std@@@std@@@std@@QEAA@AEAV?$allocator@U?$_List_node@U?$pair@$$CBV?$IndexType@IUPointIndex_tag_type_@draco@@@draco@@V12@@std@@PEAX@std@@@1@$$QEAU?$pair@V?$IndexType@IUPointIndex_tag_type_@draco@@@draco@@V12@@1@@Z
	??$?0U?$pair@V?$IndexType@IUVertexIndex_tag_type_@draco@@@draco@@V?$IndexType@IUCornerIndex_tag_type_@draco@@@2@@std@@@?$allocator@U_Container_proxy@std@@@std@@QEAA@AEBV?$allocator@U?$pair@V?$IndexType@IUVertexIndex_tag_type_@draco@@@draco@@V?$IndexType@IUCornerIndex_tag_type_@draco@@@2@@std@@@1@@Z
	??$?0U?$pair@V?$array@E$00@std@@V?$IndexType@IUAttributeValueIndex_tag_type_@draco@@@draco@@@std@@@?$_List_node_emplace_op2@V?$allocator@U?$_List_node@U?$pair@$$CBV?$array@E$00@std@@V?$IndexType@IUAttributeValueIndex_tag_type_@draco@@@draco@@@std@@PEAX@std@@@std@@@std@@QEAA@AEAV?$allocator@U?$_List_node@U?$pair@$$CBV?$array@E$00@std@@V?$IndexType@IUAttributeValueIndex_tag_type_@draco@@@draco@@@std@@PEAX@std@@@1@$$QEAU?$pair@V?$array@E$00@std@@V?$IndexType@IUAttributeValueIndex_tag_type_@draco@@@draco@@@1@@Z
	??$?0U?$pair@V?$array@E$01@std@@V?$IndexType@IUAttributeValueIndex_tag_type_@draco@@@draco@@@std@@@?$_List_node_emplace_op2@V?$allocator@U?$_List_node@U?$pair@$$CBV?$array@E$01@std@@V?$IndexType@IUAttributeValueIndex_tag_type_@draco@@@draco@@@std@@PEAX@std@@@std@@@std@@QEAA@AEAV?$allocator@U?$_List_node@U?$pair@$$CBV?$array@E$01@std@@V?$IndexType@IUAttributeValueIndex_tag_type_@draco@@@draco@@@std@@PEAX@std@@@1@$$QEAU?$pair@V?$array@E$01@std@@V?$IndexType@IUAttributeValueIndex_tag_type_@draco@@@draco@@@1@@Z
	??$?0U?$pair@V?$array@E$02@std@@V?$IndexType@IUAttributeValueIndex_tag_type_@draco@@@draco@@@std@@@?$_List_node_emplace_op2@V?$allocator@U?$_List_node@U?$pair@$$CBV?$array@E$02@std@@V?$IndexType@IUAttributeValueIndex_tag_type_@draco@@@draco@@@std@@PEAX@std@@@std@@@std@@QEAA@AEAV?$allocator@U?$_List_node@U?$pair@$$CBV?$array@E$02@std@@V?$IndexType@IUAttributeValueIndex_tag_type_@draco@@@draco@@@std@@PEAX@std@@@1@$$QEAU?$pair@V?$array@E$02@std@@V?$IndexType@IUAttributeValueIndex_tag_type_@draco@@@draco@@@1@@Z
	??$?0U?$pair@V?$array@E$03@std@@V?$IndexType@IUAttributeValueIndex_tag_type_@draco@@@draco@@@std@@@?$_List_node_emplace_op2@V?$allocator@U?$_List_node@U?$pair@$$CBV?$array@E$03@std@@V?$IndexType@IUAttributeValueIndex_tag_type_@draco@@@draco@@@std@@PEAX@std@@@std@@@std@@QEAA@AEAV?$allocator@U?$_List_node@U?$pair@$$CBV?$array@E$03@std@@V?$IndexType@IUAttributeValueIndex_tag_type_@draco@@@draco@@@std@@PEAX@std@@@1@$$QEAU?$pair@V?$array@E$03@std@@V?$IndexType@IUAttributeValueIndex_tag_type_@draco@@@draco@@@1@@Z
	??$?0U?$pair@V?$array@G$00@std@@V?$IndexType@IUAttributeValueIndex_tag_type_@draco@@@draco@@@std@@@?$_List_node_emplace_op2@V?$allocator@U?$_List_node@U?$pair@$$CBV?$array@G$00@std@@V?$IndexType@IUAttributeValueIndex_tag_type_@draco@@@draco@@@std@@PEAX@std@@@std@@@std@@QEAA@AEAV?$allocator@U?$_List_node@U?$pair@$$CBV?$array@G$00@std@@V?$IndexType@IUAttributeValueIndex_tag_type_@draco@@@draco@@@std@@PEAX@std@@@1@$$QEAU?$pair@V?$array@G$00@std@@V?$IndexType@IUAttributeValueIndex_tag_type_@draco@@@draco@@@1@@Z
	??$?0U?$pair@V?$array@G$01@std@@V?$IndexType@IUAttributeValueIndex_tag_type_@draco@@@draco@@@std@@@?$_List_node_emplace_op2@V?$allocator@U?$_List_node@U?$pair@$$CBV?$array@G$01@std@@V?$IndexType@IUAttributeValueIndex_tag_type_@draco@@@draco@@@std@@PEAX@std@@@std@@@std@@QEAA@AEAV?$allocator@U?$_List_node@U?$pair@$$CBV?$array@G$01@std@@V?$IndexType@IUAttributeValueIndex_tag_type_@draco@@@draco@@@std@@PEAX@std@@@1@$$QEAU?$pair@V?$array@G$01@std@@V?$IndexType@IUAttributeValueIndex_tag_type_@draco@@@draco@@@1@@Z
	??$?0U?$pair@V?$array@G$02@std@@V?$IndexType@IUAttributeValueIndex_tag_type_@draco@@@draco@@@std@@@?$_List_node_emplace_op2@V?$allocator@U?$_List_node@U?$pair@$$CBV?$array@G$02@std@@V?$IndexType@IUAttributeValueIndex_tag_type_@draco@@@draco@@@std@@PEAX@std@@@std@@@std@@QEAA@AEAV?$allocator@U?$_List_node@U?$pair@$$CBV?$array@G$02@std@@V?$IndexType@IUAttributeValueIndex_tag_type_@draco@@@draco@@@std@@PEAX@std@@@1@$$QEAU?$pair@V?$array@G$02@std@@V?$IndexType@IUAttributeValueIndex_tag_type_@draco@@@draco@@@1@@Z
	??$?0U?$pair@V?$array@G$03@std@@V?$IndexType@IUAttributeValueIndex_tag_type_@draco@@@draco@@@std@@@?$_List_node_emplace_op2@V?$allocator@U?$_List_node@U?$pair@$$CBV?$array@G$03@std@@V?$IndexType@IUAttributeValueIndex_tag_type_@draco@@@draco@@@std@@PEAX@std@@@std@@@std@@QEAA@AEAV?$allocator@U?$_List_node@U?$pair@$$CBV?$array@G$03@std@@V?$IndexType@IUAttributeValueIndex_tag_type_@draco@@@draco@@@std@@PEAX@std@@@1@$$QEAU?$pair@V?$array@G$03@std@@V?$IndexType@IUAttributeValueIndex_tag_type_@draco@@@draco@@@1@@Z
	??$?0U?$pair@V?$array@I$00@std@@V?$IndexType@IUAttributeValueIndex_tag_type_@draco@@@draco@@@std@@@?$_List_node_emplace_op2@V?$allocator@U?$_List_node@U?$pair@$$CBV?$array@I$00@std@@V?$IndexType@IUAttributeValueIndex_tag_type_@draco@@@draco@@@std@@PEAX@std@@@std@@@std@@QEAA@AEAV?$allocator@U?$_List_node@U?$pair@$$CBV?$array@I$00@std@@V?$IndexType@IUAttributeValueIndex_tag_type_@draco@@@draco@@@std@@PEAX@std@@@1@$$QEAU?$pair@V?$array@I$00@std@@V?$IndexType@IUAttributeValueIndex_tag_type_@draco@@@draco@@@1@@Z
	??$?0U?$pair@V?$array@I$01@std@@V?$IndexType@IUAttributeValueIndex_tag_type_@draco@@@draco@@@std@@@?$_List_node_emplace_op2@V?$allocator@U?$_List_node@U?$pair@$$CBV?$array@I$01@std@@V?$IndexType@IUAttributeValueIndex_tag_type_@draco@@@draco@@@std@@PEAX@std@@@std@@@std@@QEAA@AEAV?$allocator@U?$_List_node@U?$pair@$$CBV?$array@I$01@std@@V?$IndexType@IUAttributeValueIndex_tag_type_@draco@@@draco@@@std@@PEAX@std@@@1@$$QEAU?$pair@V?$array@I$01@std@@V?$IndexType@IUAttributeValueIndex_tag_type_@draco@@@draco@@@1@@Z
	??$?0U?$pair@V?$array@I$02@std@@V?$IndexType@IUAttributeValueIndex_tag_type_@draco@@@draco@@@std@@@?$_List_node_emplace_op2@V?$allocator@U?$_List_node@U?$pair@$$CBV?$array@I$02@std@@V?$IndexType@IUAttributeValueIndex_tag_type_@draco@@@draco@@@std@@PEAX@std@@@std@@@std@@QEAA@AEAV?$allocator@U?$_List_node@U?$pair@$$CBV?$array@I$02@std@@V?$IndexType@IUAttributeValueIndex_tag_type_@draco@@@draco@@@std@@PEAX@std@@@1@$$QEAU?$pair@V?$array@I$02@std@@V?$IndexType@IUAttributeValueIndex_tag_type_@draco@@@draco@@@1@@Z
	??$?0U?$pair@V?$array@I$03@std@@V?$IndexType@IUAttributeValueIndex_tag_type_@draco@@@draco@@@std@@@?$_List_node_emplace_op2@V?$allocator@U?$_List_node@U?$pair@$$CBV?$array@I$03@std@@V?$IndexType@IUAttributeValueIndex_tag_type_@draco@@@draco@@@std@@PEAX@std@@@std@@@std@@QEAA@AEAV?$allocator@U?$_List_node@U?$pair@$$CBV?$array@I$03@std@@V?$IndexType@IUAttributeValueIndex_tag_type_@draco@@@draco@@@std@@PEAX@std@@@1@$$QEAU?$pair@V?$array@I$03@std@@V?$IndexType@IUAttributeValueIndex_tag_type_@draco@@@draco@@@1@@Z
	??$?0U?$pair@V?$basic_string@DU?$char_traits@D@std@@V?$allocator@D@2@@std@@VEntryValue@draco@@@std@@@?$_Tree_temp_node@V?$allocator@U?$_Tree_node@U?$pair@$$CBV?$basic_string@DU?$char_traits@D@std@@V?$allocator@D@2@@std@@VEntryValue@draco@@@std@@PEAX@std@@@std@@@std@@QEAA@AEAV?$allocator@U?$_Tree_node@U?$pair@$$CBV?$basic_string@DU?$char_traits@D@std@@V?$allocator@D@2@@std@@VEntryValue@draco@@@std@@PEAX@std@@@1@PEAU?$_Tree_node@U?$pair@$$CBV?$basic_string@DU?$char_traits@D@std@@V?$allocator@D@2@@std@@VEntryValue@draco@@@std@@PEAX@1@$$QEAU?$pair@V?$basic_string@DU?$char_traits@D@std@@V?$allocator@D@2@@std@@VEntryValue@draco@@@1@@Z
	??$?0U?$pair@W4Type@GeometryAttribute@draco@@VOptions@3@@std@@@?$_Tree_temp_node@V?$allocator@U?$_Tree_node@U?$pair@$$CBW4Type@GeometryAttribute@draco@@VOptions@3@@std@@PEAX@std@@@std@@@std@@QEAA@AEAV?$allocator@U?$_Tree_node@U?$pair@$$CBW4Type@GeometryAttribute@draco@@VOptions@3@@std@@PEAX@std@@@1@PEAU?$_Tree_node@U?$pair@$$CBW4Type@GeometryAttribute@draco@@VOptions@3@@std@@PEAX@1@$$QEAU?$pair@W4Type@GeometryAttribute@draco@@VOptions@3@@1@@Z
	??$?0UAttributeData@?$MeshEdgebreakerDecoderImpl@VMeshEdgebreakerTraversalDecoder@draco@@@draco@@@?$allocator@U_Container_proxy@std@@@std@@QEAA@AEBV?$allocator@UAttributeData@?$MeshEdgebreakerDecoderImpl@VMeshEdgebreakerTraversalDecoder@draco@@@draco@@@1@@Z
	??$?0UAttributeData@?$MeshEdgebreakerDecoderImpl@VMeshEdgebreakerTraversalPredictiveDecoder@draco@@@draco@@@?$allocator@U_Container_proxy@std@@@std@@QEAA@AEBV?$allocator@UAttributeData@?$MeshEdgebreakerDecoderImpl@VMeshEdgebreakerTraversalPredictiveDecoder@draco@@@draco@@@1@@Z
	??$?0UAttributeData@?$MeshEdgebreakerDecoderImpl@VMeshEdgebreakerTraversalValenceDecoder@draco@@@draco@@@?$allocator@U_Container_proxy@std@@@std@@QEAA@AEBV?$allocator@UAttributeData@?$MeshEdgebreakerDecoderImpl@VMeshEdgebreakerTraversalValenceDecoder@draco@@@draco@@@1@@Z
	??$?0UAttributeData@?$MeshEdgebreakerEncoderImpl@VMeshEdgebreakerTraversalEncoder@draco@@@draco@@@?$allocator@U_Container_proxy@std@@@std@@QEAA@AEBV?$allocator@UAttributeData@?$MeshEdgebreakerEncoderImpl@VMeshEdgebreakerTraversalEncoder@draco@@@draco@@@1@@Z
	??$?0UAttributeData@?$MeshEdgebreakerEncoderImpl@VMeshEdgebreakerTraversalPredictiveEncoder@draco@@@draco@@@?$allocator@U_Container_proxy@std@@@std@@QEAA@AEBV?$allocator@UAttributeData@?$MeshEdgebreakerEncoderImpl@VMeshEdgebreakerTraversalPredictiveEncoder@draco@@@draco@@@1@@Z
	??$?0UAttributeData@?$MeshEdgebreakerEncoderImpl@VMeshEdgebreakerTraversalValenceEncoder@draco@@@draco@@@?$allocator@U_Container_proxy@std@@@std@@QEAA@AEBV?$allocator@UAttributeData@?$MeshEdgebreakerEncoderImpl@VMeshEdgebreakerTraversalValenceEncoder@draco@@@draco@@@1@@Z
	??$?0UAttributeData@Mesh@draco@@@?$allocator@U_Container_proxy@std@@@std@@QEAA@AEBV?$allocator@UAttributeData@Mesh@draco@@@1@@Z
	??$?0UDecodingStatus@?$DynamicIntegerPointsKdTreeDecoder@$00@draco@@@?$allocator@PEAUDecodingStatus@?$DynamicIntegerPointsKdTreeDecoder@$00@draco@@@std@@QEAA@AEBV?$allocator@UDecodingStatus@?$DynamicIntegerPointsKdTreeDecoder@$00@draco@@@1@@Z
	??$?0UDecodingStatus@?$DynamicIntegerPointsKdTreeDecoder@$00@draco@@@?$allocator@U_Container_proxy@std@@@std@@QEAA@AEBV?$allocator@UDecodingStatus@?$DynamicIntegerPointsKdTreeDecoder@$00@draco@@@1@@Z
	??$?0UDecodingStatus@?$DynamicIntegerPointsKdTreeDecoder@$01@draco@@@?$allocator@PEAUDecodingStatus@?$DynamicIntegerPointsKdTreeDecoder@$01@draco@@@std@@QEAA@AEBV?$allocator@UDecodingStatus@?$DynamicIntegerPointsKdTreeDecoder@$01@draco@@@1@@Z
	??$?0UDecodingStatus@?$DynamicIntegerPointsKdTreeDecoder@$01@draco@@@?$allocator@U_Container_proxy@std@@@std@@QEAA@AEBV?$allocator@UDecodingStatus@?$DynamicIntegerPointsKdTreeDecoder@$01@draco@@@1@@Z
	??$?0UDecodingStatus@?$DynamicIntegerPointsKdTreeDecoder@$02@draco@@@?$allocator@PEAUDecodingStatus@?$DynamicIntegerPointsKdTreeDecoder@$02@draco@@@std@@QEAA@AEBV?$allocator@UDecodingStatus@?$DynamicIntegerPointsKdTreeDecoder@$02@draco@@@1@@Z
	??$?0UDecodingStatus@?$DynamicIntegerPointsKdTreeDecoder@$02@draco@@@?$allocator@U_Container_proxy@std@@@std@@QEAA@AEBV?$allocator@UDecodingStatus@?$DynamicIntegerPointsKdTreeDecoder@$02@draco@@@1@@Z
	??$?0UDecodingStatus@?$DynamicIntegerPointsKdTreeDecoder@$03@draco@@@?$allocator@PEAUDecodingStatus@?$DynamicIntegerPointsKdTreeDecoder@$03@draco@@@std@@QEAA@AEBV?$allocator@UDecodingStatus@?$DynamicIntegerPointsKdTreeDecoder@$03@draco@@@1@@Z
	??$?0UDecodingStatus@?$DynamicIntegerPointsKdTreeDecoder@$03@draco@@@?$allocator@U_Container_proxy@std@@@std@@QEAA@AEBV?$allocator@UDecodingStatus@?$DynamicIntegerPointsKdTreeDecoder@$03@draco@@@1@@Z
	??$?0UDecodingStatus@?$DynamicIntegerPointsKdTreeDecoder@$04@draco@@@?$allocator@PEAUDecodingStatus@?$DynamicIntegerPointsKdTreeDecoder@$04@draco@@@std@@QEAA@AEBV?$allocator@UDecodingStatus@?$DynamicIntegerPointsKdTreeDecoder@$04@draco@@@1@@Z
	??$?0UDecodingStatus@?$DynamicIntegerPointsKdTreeDecoder@$04@draco@@@?$allocator@U_Container_proxy@std@@@std@@QEAA@AEBV?$allocator@UDecodingStatus@?$DynamicIntegerPointsKdTreeDecoder@$04@draco@@@1@@Z
	??$?0UDecodingStatus@?$DynamicIntegerPointsKdTreeDecoder@$05@draco@@@?$allocator@PEAUDecodingStatus@?$DynamicIntegerPointsKdTreeDecoder@$05@draco@@@std@@QEAA@AEBV?$allocator@UDecodingStatus@?$DynamicIntegerPointsKdTreeDecoder@$05@draco@@@1@@Z
	??$?0UDecodingStatus@?$DynamicIntegerPointsKdTreeDecoder@$05@draco@@@?$allocator@U_Container_proxy@std@@@std@@QEAA@AEBV?$allocator@UDecodingStatus@?$DynamicIntegerPointsKdTreeDecoder@$05@draco@@@1@@Z
	??$?0UDecodingStatus@?$DynamicIntegerPointsKdTreeDecoder@$0A@@draco@@@?$allocator@PEAUDecodingStatus@?$DynamicIntegerPointsKdTreeDecoder@$0A@@draco@@@std@@QEAA@AEBV?$allocator@UDecodingStatus@?$DynamicIntegerPointsKdTreeDecoder@$0A@@draco@@@1@@Z
	??$?0UDecodingStatus@?$DynamicIntegerPointsKdTreeDecoder@$0A@@draco@@@?$allocator@U_Container_proxy@std@@@std@@QEAA@AEBV?$allocator@UDecodingStatus@?$DynamicIntegerPointsKdTreeDecoder@$0A@@draco@@@1@@Z
	??$?0UHoleEventData@draco@@@?$allocator@U_Container_proxy@std@@@std@@QEAA@AEBV?$allocator@UHoleEventData@draco@@@1@@Z
	??$?0UTopologySplitEventData@draco@@@?$allocator@U_Container_proxy@std@@@std@@QEAA@AEBV?$allocator@UTopologySplitEventData@draco@@@1@@Z
	??$?0U_Exact_args_t@std@@$0A@@?$tuple@$$V@std@@QEAA@U_Exact_args_t@1@@Z
	??$?0U_Exact_args_t@std@@AEAIAEBW4DataType@draco@@AEBIAEBI$0A@@?$tuple@IW4DataType@draco@@II@std@@QEAA@U_Exact_args_t@1@AEAIAEBW4DataType@draco@@AEBI3@Z
	??$?0U_Exact_args_t@std@@AEAPEAVPointAttribute@draco@@AEAIAEBW4DataType@3@AEBIAEBI$0A@@?$tuple@PEAVPointAttribute@draco@@IW4DataType@2@II@std@@QEAA@U_Exact_args_t@1@AEAPEAVPointAttribute@draco@@AEAIAEBW4DataType@4@AEBI4@Z
	??$?0U_Exact_args_t@std@@AEBH$$V$0A@@?$tuple@AEBH@std@@QEAA@U_Exact_args_t@1@AEBH@Z
	??$?0U_Exact_args_t@std@@AEBI$$V$0A@@?$tuple@I@std@@QEAA@U_Exact_args_t@1@AEBI@Z
	??$?0U_Exact_args_t@std@@AEBIAEBI$0A@@?$tuple@II@std@@QEAA@U_Exact_args_t@1@AEBI1@Z
	??$?0U_Exact_args_t@std@@AEBQEAVPointAttribute@draco@@AEAIAEBW4DataType@3@AEBIAEBI$0A@@?$tuple@PEAVPointAttribute@draco@@IW4DataType@2@II@std@@QEAA@U_Exact_args_t@1@AEBQEAVPointAttribute@draco@@AEAIAEBW4DataType@4@AEBI4@Z
	??$?0U_Exact_args_t@std@@AEBV?$IndexType@IUAttributeValueIndex_tag_type_@draco@@@draco@@$$V$0A@@?$tuple@AEBV?$IndexType@IUAttributeValueIndex_tag_type_@draco@@@draco@@@std@@QEAA@U_Exact_args_t@1@AEBV?$IndexType@IUAttributeValueIndex_tag_type_@draco@@@draco@@@Z
	??$?0U_Exact_args_t@std@@AEBV?$basic_string@DU?$char_traits@D@std@@V?$allocator@D@2@@1@$$V$0A@@?$tuple@AEBV?$basic_string@DU?$char_traits@D@std@@V?$allocator@D@2@@std@@@std@@QEAA@U_Exact_args_t@1@AEBV?$basic_string@DU?$char_traits@D@std@@V?$allocator@D@2@@1@@Z
	??$?0U_Exact_args_t@std@@AEBW4DataType@draco@@AEBIAEBI$0A@@?$tuple@W4DataType@draco@@II@std@@QEAA@U_Exact_args_t@1@AEBW4DataType@draco@@AEBI2@Z
	??$?0U_Exact_args_t@std@@H$$V$0A@@?$tuple@$$QEAH@std@@QEAA@U_Exact_args_t@1@$$QEAH@Z
	??$?0U_Zero_then_variadic_args_t@std@@M@?$_Compressed_pair@U?$HashArray@V?$array@E$00@std@@@draco@@V?$_Compressed_pair@U?$equal_to@V?$array@E$00@std@@@std@@M$00@std@@$00@std@@QEAA@U_Zero_then_variadic_args_t@1@$$QEAU21@$$QEAM@Z
	??$?0U_Zero_then_variadic_args_t@std@@M@?$_Compressed_pair@U?$HashArray@V?$array@E$01@std@@@draco@@V?$_Compressed_pair@U?$equal_to@V?$array@E$01@std@@@std@@M$00@std@@$00@std@@QEAA@U_Zero_then_variadic_args_t@1@$$QEAU21@$$QEAM@Z
	??$?0U_Zero_then_variadic_args_t@std@@M@?$_Compressed_pair@U?$HashArray@V?$array@E$02@std@@@draco@@V?$_Compressed_pair@U?$equal_to@V?$array@E$02@std@@@std@@M$00@std@@$00@std@@QEAA@U_Zero_then_variadic_args_t@1@$$QEAU21@$$QEAM@Z
	??$?0U_Zero_then_variadic_args_t@std@@M@?$_Compressed_pair@U?$HashArray@V?$array@E$03@std@@@draco@@V?$_Compressed_pair@U?$equal_to@V?$array@E$03@std@@@std@@M$00@std@@$00@std@@QEAA@U_Zero_then_variadic_args_t@1@$$QEAU21@$$QEAM@Z
	??$?0U_Zero_then_variadic_args_t@std@@M@?$_Compressed_pair@U?$HashArray@V?$array@G$00@std@@@draco@@V?$_Compressed_pair@U?$equal_to@V?$array@G$00@std@@@std@@M$00@std@@$00@std@@QEAA@U_Zero_then_variadic_args_t@1@$$QEAU21@$$QEAM@Z
	??$?0U_Zero_then_variadic_args_t@std@@M@?$_Compressed_pair@U?$HashArray@V?$array@G$01@std@@@draco@@V?$_Compressed_pair@U?$equal_to@V?$array@G$01@std@@@std@@M$00@std@@$00@std@@QEAA@U_Zero_then_variadic_args_t@1@$$QEAU21@$$QEAM@Z
	??$?0U_Zero_then_variadic_args_t@std@@M@?$_Compressed_pair@U?$HashArray@V?$array@G$02@std@@@draco@@V?$_Compressed_pair@U?$equal_to@V?$array@G$02@std@@@std@@M$00@std@@$00@std@@QEAA@U_Zero_then_variadic_args_t@1@$$QEAU21@$$QEAM@Z
	??$?0U_Zero_then_variadic_args_t@std@@M@?$_Compressed_pair@U?$HashArray@V?$array@G$03@std@@@draco@@V?$_Compressed_pair@U?$equal_to@V?$array@G$03@std@@@std@@M$00@std@@$00@std@@QEAA@U_Zero_then_variadic_args_t@1@$$QEAU21@$$QEAM@Z
	??$?0U_Zero_then_variadic_args_t@std@@M@?$_Compressed_pair@U?$HashArray@V?$array@I$00@std@@@draco@@V?$_Compressed_pair@U?$equal_to@V?$array@I$00@std@@@std@@M$00@std@@$00@std@@QEAA@U_Zero_then_variadic_args_t@1@$$QEAU21@$$QEAM@Z
	??$?0U_Zero_then_variadic_args_t@std@@M@?$_Compressed_pair@U?$HashArray@V?$array@I$01@std@@@draco@@V?$_Compressed_pair@U?$equal_to@V?$array@I$01@std@@@std@@M$00@std@@$00@std@@QEAA@U_Zero_then_variadic_args_t@1@$$QEAU21@$$QEAM@Z
	??$?0U_Zero_then_variadic_args_t@std@@M@?$_Compressed_pair@U?$HashArray@V?$array@I$02@std@@@draco@@V?$_Compressed_pair@U?$equal_to@V?$array@I$02@std@@@std@@M$00@std@@$00@std@@QEAA@U_Zero_then_variadic_args_t@1@$$QEAU21@$$QEAM@Z
	??$?0U_Zero_then_variadic_args_t@std@@M@?$_Compressed_pair@U?$HashArray@V?$array@I$03@std@@@draco@@V?$_Compressed_pair@U?$equal_to@V?$array@I$03@std@@@std@@M$00@std@@$00@std@@QEAA@U_Zero_then_variadic_args_t@1@$$QEAU21@$$QEAM@Z
	??$?0U_Zero_then_variadic_args_t@std@@M@?$_Compressed_pair@U?$hash@H@std@@V?$_Compressed_pair@U?$equal_to@H@std@@M$00@2@$00@std@@QEAA@U_Zero_then_variadic_args_t@1@$$QEAU21@$$QEAM@Z
	??$?0U_Zero_then_variadic_args_t@std@@M@?$_Compressed_pair@U?$hash@V?$basic_string@DU?$char_traits@D@std@@V?$allocator@D@2@@std@@@std@@V?$_Compressed_pair@U?$equal_to@V?$basic_string@DU?$char_traits@D@std@@V?$allocator@D@2@@std@@@std@@M$00@2@$00@std@@QEAA@U_Zero_then_variadic_args_t@1@$$QEAU21@$$QEAM@Z
	??$?0Urans_sym@draco@@@?$allocator@U_Container_proxy@std@@@std@@QEAA@AEBV?$allocator@Urans_sym@draco@@@1@@Z
	??$?0V<lambda_07c71a731cdd852924c8b03369e08e45>@@$0A@@?$_Func_impl_no_alloc@V<lambda_07c71a731cdd852924c8b03369e08e45>@@EH@std@@QEAA@$$QEAV<lambda_07c71a731cdd852924c8b03369e08e45>@@@Z
	??$?0V<lambda_07c71a731cdd852924c8b03369e08e45>@@$0A@@?$function@$$A6AEH@Z@std@@QEAA@$$QEAV<lambda_07c71a731cdd852924c8b03369e08e45>@@@Z
	??$?0V<lambda_1182dc3d17cc3d42d0fa121687ca398f>@@$0A@@?$_Func_impl_no_alloc@V<lambda_1182dc3d17cc3d42d0fa121687ca398f>@@HH@std@@QEAA@$$QEAV<lambda_1182dc3d17cc3d42d0fa121687ca398f>@@@Z
	??$?0V<lambda_1182dc3d17cc3d42d0fa121687ca398f>@@$0A@@?$function@$$A6AHH@Z@std@@QEAA@$$QEAV<lambda_1182dc3d17cc3d42d0fa121687ca398f>@@@Z
	??$?0V<lambda_1afa04f1fbcac3f0220197bc7dc56e5c>@@$0A@@?$_Func_impl_no_alloc@V<lambda_1afa04f1fbcac3f0220197bc7dc56e5c>@@HH@std@@QEAA@$$QEAV<lambda_1afa04f1fbcac3f0220197bc7dc56e5c>@@@Z
	??$?0V<lambda_1afa04f1fbcac3f0220197bc7dc56e5c>@@$0A@@?$function@$$A6AHH@Z@std@@QEAA@$$QEAV<lambda_1afa04f1fbcac3f0220197bc7dc56e5c>@@@Z
	??$?0V<lambda_1fa42df75aa3f091931d838c6b29bf14>@@$0A@@?$_Func_impl_no_alloc@V<lambda_1fa42df75aa3f091931d838c6b29bf14>@@XN@std@@QEAA@$$QEAV<lambda_1fa42df75aa3f091931d838c6b29bf14>@@@Z
	??$?0V<lambda_1fa42df75aa3f091931d838c6b29bf14>@@$0A@@?$function@$$A6AXN@Z@std@@QEAA@$$QEAV<lambda_1fa42df75aa3f091931d838c6b29bf14>@@@Z
	??$?0V<lambda_22809532bb019f0daf6e1a3d5953fdfe>@@$0A@@?$_Func_impl_no_alloc@V<lambda_22809532bb019f0daf6e1a3d5953fdfe>@@HH@std@@QEAA@$$QEAV<lambda_22809532bb019f0daf6e1a3d5953fdfe>@@@Z
	??$?0V<lambda_22809532bb019f0daf6e1a3d5953fdfe>@@$0A@@?$function@$$A6AHH@Z@std@@QEAA@$$QEAV<lambda_22809532bb019f0daf6e1a3d5953fdfe>@@@Z
	??$?0V<lambda_2bdf57fc14ce3d1ee3d482d37e265481>@@$0A@@?$_Func_impl_no_alloc@V<lambda_2bdf57fc14ce3d1ee3d482d37e265481>@@HH@std@@QEAA@$$QEAV<lambda_2bdf57fc14ce3d1ee3d482d37e265481>@@@Z
	??$?0V<lambda_2bdf57fc14ce3d1ee3d482d37e265481>@@$0A@@?$function@$$A6AHH@Z@std@@QEAA@$$QEAV<lambda_2bdf57fc14ce3d1ee3d482d37e265481>@@@Z
	??$?0V<lambda_2fd5011b05d897d5926948a12d966e62>@@$0A@@?$_Func_impl_no_alloc@V<lambda_2fd5011b05d897d5926948a12d966e62>@@IH@std@@QEAA@$$QEAV<lambda_2fd5011b05d897d5926948a12d966e62>@@@Z
	??$?0V<lambda_2fd5011b05d897d5926948a12d966e62>@@$0A@@?$function@$$A6AIH@Z@std@@QEAA@$$QEAV<lambda_2fd5011b05d897d5926948a12d966e62>@@@Z
	??$?0V<lambda_30061e8242f4cac9beafded9d6029eb3>@@$0A@@?$_Func_impl_no_alloc@V<lambda_30061e8242f4cac9beafded9d6029eb3>@@EH@std@@QEAA@$$QEAV<lambda_30061e8242f4cac9beafded9d6029eb3>@@@Z
	??$?0V<lambda_30061e8242f4cac9beafded9d6029eb3>@@$0A@@?$function@$$A6AEH@Z@std@@QEAA@$$QEAV<lambda_30061e8242f4cac9beafded9d6029eb3>@@@Z
	??$?0V<lambda_33ae79e5c291bdedd0f51cabd2dfcd81>@@$0A@@?$_Func_impl_no_alloc@V<lambda_33ae79e5c291bdedd0f51cabd2dfcd81>@@EH@std@@QEAA@$$QEAV<lambda_33ae79e5c291bdedd0f51cabd2dfcd81>@@@Z
	??$?0V<lambda_33ae79e5c291bdedd0f51cabd2dfcd81>@@$0A@@?$function@$$A6AEH@Z@std@@QEAA@$$QEAV<lambda_33ae79e5c291bdedd0f51cabd2dfcd81>@@@Z
	??$?0V<lambda_35fdaef33dcdabfd718789213dcbe077>@@$0A@@?$_Func_impl_no_alloc@V<lambda_35fdaef33dcdabfd718789213dcbe077>@@EH@std@@QEAA@$$QEAV<lambda_35fdaef33dcdabfd718789213dcbe077>@@@Z
	??$?0V<lambda_35fdaef33dcdabfd718789213dcbe077>@@$0A@@?$function@$$A6AEH@Z@std@@QEAA@$$QEAV<lambda_35fdaef33dcdabfd718789213dcbe077>@@@Z
	??$?0V<lambda_3625be2549de29136342b6a0f47e0f94>@@$0A@@?$_Func_impl_no_alloc@V<lambda_3625be2549de29136342b6a0f47e0f94>@@IH@std@@QEAA@$$QEAV<lambda_3625be2549de29136342b6a0f47e0f94>@@@Z
	??$?0V<lambda_3625be2549de29136342b6a0f47e0f94>@@$0A@@?$function@$$A6AIH@Z@std@@QEAA@$$QEAV<lambda_3625be2549de29136342b6a0f47e0f94>@@@Z
	??$?0V<lambda_37ee8f263b4b300875f9c1a27d8bc1b7>@@$0A@@?$_Func_impl_no_alloc@V<lambda_37ee8f263b4b300875f9c1a27d8bc1b7>@@EH@std@@QEAA@$$QEAV<lambda_37ee8f263b4b300875f9c1a27d8bc1b7>@@@Z
	??$?0V<lambda_37ee8f263b4b300875f9c1a27d8bc1b7>@@$0A@@?$function@$$A6AEH@Z@std@@QEAA@$$QEAV<lambda_37ee8f263b4b300875f9c1a27d8bc1b7>@@@Z
	??$?0V<lambda_3846f1b54e820bbe9d9c8e168f510c30>@@$0A@@?$_Func_impl_no_alloc@V<lambda_3846f1b54e820bbe9d9c8e168f510c30>@@MH@std@@QEAA@$$QEAV<lambda_3846f1b54e820bbe9d9c8e168f510c30>@@@Z
	??$?0V<lambda_3846f1b54e820bbe9d9c8e168f510c30>@@$0A@@?$function@$$A6AMH@Z@std@@QEAA@$$QEAV<lambda_3846f1b54e820bbe9d9c8e168f510c30>@@@Z
	??$?0V<lambda_3ed9ecede0e2bd13072bb2eaa493856c>@@$0A@@?$_Func_impl_no_alloc@V<lambda_3ed9ecede0e2bd13072bb2eaa493856c>@@IH@std@@QEAA@$$QEAV<lambda_3ed9ecede0e2bd13072bb2eaa493856c>@@@Z
	??$?0V<lambda_3ed9ecede0e2bd13072bb2eaa493856c>@@$0A@@?$function@$$A6AIH@Z@std@@QEAA@$$QEAV<lambda_3ed9ecede0e2bd13072bb2eaa493856c>@@@Z
	??$?0V<lambda_46065660533fdd3e1d22f26ab5e7717a>@@$0A@@?$_Func_impl_no_alloc@V<lambda_46065660533fdd3e1d22f26ab5e7717a>@@MH@std@@QEAA@$$QEAV<lambda_46065660533fdd3e1d22f26ab5e7717a>@@@Z
	??$?0V<lambda_46065660533fdd3e1d22f26ab5e7717a>@@$0A@@?$function@$$A6AMH@Z@std@@QEAA@$$QEAV<lambda_46065660533fdd3e1d22f26ab5e7717a>@@@Z
	??$?0V<lambda_4668feae5e111d3fb1dac64215a23b38>@@$0A@@?$_Func_impl_no_alloc@V<lambda_4668feae5e111d3fb1dac64215a23b38>@@MH@std@@QEAA@$$QEAV<lambda_4668feae5e111d3fb1dac64215a23b38>@@@Z
	??$?0V<lambda_4668feae5e111d3fb1dac64215a23b38>@@$0A@@?$function@$$A6AMH@Z@std@@QEAA@$$QEAV<lambda_4668feae5e111d3fb1dac64215a23b38>@@@Z
	??$?0V<lambda_48cab4f9c41cfbb86e6ac601d995a377>@@$0A@@?$_Func_impl_no_alloc@V<lambda_48cab4f9c41cfbb86e6ac601d995a377>@@IH@std@@QEAA@$$QEAV<lambda_48cab4f9c41cfbb86e6ac601d995a377>@@@Z
	??$?0V<lambda_48cab4f9c41cfbb86e6ac601d995a377>@@$0A@@?$function@$$A6AIH@Z@std@@QEAA@$$QEAV<lambda_48cab4f9c41cfbb86e6ac601d995a377>@@@Z
	??$?0V<lambda_5115edcd92ffe93e8c764d8bd07fe511>@@$0A@@?$_Func_impl_no_alloc@V<lambda_5115edcd92ffe93e8c764d8bd07fe511>@@XN@std@@QEAA@$$QEAV<lambda_5115edcd92ffe93e8c764d8bd07fe511>@@@Z
	??$?0V<lambda_5115edcd92ffe93e8c764d8bd07fe511>@@$0A@@?$function@$$A6AXN@Z@std@@QEAA@$$QEAV<lambda_5115edcd92ffe93e8c764d8bd07fe511>@@@Z
	??$?0V<lambda_5aad107e1021c5cb0dab2355ffad4f11>@@$0A@@?$_Func_impl_no_alloc@V<lambda_5aad107e1021c5cb0dab2355ffad4f11>@@XN@std@@QEAA@$$QEAV<lambda_5aad107e1021c5cb0dab2355ffad4f11>@@@Z
	??$?0V<lambda_5aad107e1021c5cb0dab2355ffad4f11>@@$0A@@?$function@$$A6AXN@Z@std@@QEAA@$$QEAV<lambda_5aad107e1021c5cb0dab2355ffad4f11>@@@Z
	??$?0V<lambda_759ea76bbcc6dab599e99f646e253eec>@@$0A@@?$_Func_impl_no_alloc@V<lambda_759ea76bbcc6dab599e99f646e253eec>@@EH@std@@QEAA@$$QEAV<lambda_759ea76bbcc6dab599e99f646e253eec>@@@Z
	??$?0V<lambda_759ea76bbcc6dab599e99f646e253eec>@@$0A@@?$function@$$A6AEH@Z@std@@QEAA@$$QEAV<lambda_759ea76bbcc6dab599e99f646e253eec>@@@Z
	??$?0V<lambda_77b724ce3ffa2576d983c349b41d8769>@@$0A@@?$_Func_impl_no_alloc@V<lambda_77b724ce3ffa2576d983c349b41d8769>@@EH@std@@QEAA@$$QEAV<lambda_77b724ce3ffa2576d983c349b41d8769>@@@Z
	??$?0V<lambda_77b724ce3ffa2576d983c349b41d8769>@@$0A@@?$function@$$A6AEH@Z@std@@QEAA@$$QEAV<lambda_77b724ce3ffa2576d983c349b41d8769>@@@Z
	??$?0V<lambda_80812d815ceca467341606308b248d82>@@$0A@@?$_Func_impl_no_alloc@V<lambda_80812d815ceca467341606308b248d82>@@IH@std@@QEAA@$$QEAV<lambda_80812d815ceca467341606308b248d82>@@@Z
	??$?0V<lambda_80812d815ceca467341606308b248d82>@@$0A@@?$function@$$A6AIH@Z@std@@QEAA@$$QEAV<lambda_80812d815ceca467341606308b248d82>@@@Z
	??$?0V<lambda_86b608a84de436eb259f5506c600e5a7>@@$0A@@?$_Func_impl_no_alloc@V<lambda_86b608a84de436eb259f5506c600e5a7>@@XN@std@@QEAA@$$QEAV<lambda_86b608a84de436eb259f5506c600e5a7>@@@Z
	??$?0V<lambda_86b608a84de436eb259f5506c600e5a7>@@$0A@@?$function@$$A6AXN@Z@std@@QEAA@$$QEAV<lambda_86b608a84de436eb259f5506c600e5a7>@@@Z
	??$?0V<lambda_a2748b89a44b5f04cf00c20c2b12ef9f>@@$0A@@?$_Func_impl_no_alloc@V<lambda_a2748b89a44b5f04cf00c20c2b12ef9f>@@HH@std@@QEAA@$$QEAV<lambda_a2748b89a44b5f04cf00c20c2b12ef9f>@@@Z
	??$?0V<lambda_a2748b89a44b5f04cf00c20c2b12ef9f>@@$0A@@?$function@$$A6AHH@Z@std@@QEAA@$$QEAV<lambda_a2748b89a44b5f04cf00c20c2b12ef9f>@@@Z
	??$?0V<lambda_a41f49bf9c3387872c379e715d9fa2a7>@@$0A@@?$_Func_impl_no_alloc@V<lambda_a41f49bf9c3387872c379e715d9fa2a7>@@XN@std@@QEAA@$$QEAV<lambda_a41f49bf9c3387872c379e715d9fa2a7>@@@Z
	??$?0V<lambda_a41f49bf9c3387872c379e715d9fa2a7>@@$0A@@?$function@$$A6AXN@Z@std@@QEAA@$$QEAV<lambda_a41f49bf9c3387872c379e715d9fa2a7>@@@Z
	??$?0V<lambda_ad1ad2033536d5afe7481e140343dd0e>@@$0A@@?$_Func_impl_no_alloc@V<lambda_ad1ad2033536d5afe7481e140343dd0e>@@IH@std@@QEAA@$$QEAV<lambda_ad1ad2033536d5afe7481e140343dd0e>@@@Z
	??$?0V<lambda_ad1ad2033536d5afe7481e140343dd0e>@@$0A@@?$function@$$A6AIH@Z@std@@QEAA@$$QEAV<lambda_ad1ad2033536d5afe7481e140343dd0e>@@@Z
	??$?0V<lambda_b25d6381cf6527ae37a914fecce16155>@@$0A@@?$_Func_impl_no_alloc@V<lambda_b25d6381cf6527ae37a914fecce16155>@@IH@std@@QEAA@$$QEAV<lambda_b25d6381cf6527ae37a914fecce16155>@@@Z
	??$?0V<lambda_b25d6381cf6527ae37a914fecce16155>@@$0A@@?$function@$$A6AIH@Z@std@@QEAA@$$QEAV<lambda_b25d6381cf6527ae37a914fecce16155>@@@Z
	??$?0V<lambda_c9a6258327fe4c27aef484a179309302>@@$0A@@?$_Func_impl_no_alloc@V<lambda_c9a6258327fe4c27aef484a179309302>@@XN@std@@QEAA@$$QEAV<lambda_c9a6258327fe4c27aef484a179309302>@@@Z
	??$?0V<lambda_c9a6258327fe4c27aef484a179309302>@@$0A@@?$function@$$A6AXN@Z@std@@QEAA@$$QEAV<lambda_c9a6258327fe4c27aef484a179309302>@@@Z
	??$?0V<lambda_cc918ab4bf9f883e7aa788f0840d79eb>@@$0A@@?$_Func_impl_no_alloc@V<lambda_cc918ab4bf9f883e7aa788f0840d79eb>@@IH@std@@QEAA@$$QEAV<lambda_cc918ab4bf9f883e7aa788f0840d79eb>@@@Z
	??$?0V<lambda_cc918ab4bf9f883e7aa788f0840d79eb>@@$0A@@?$function@$$A6AIH@Z@std@@QEAA@$$QEAV<lambda_cc918ab4bf9f883e7aa788f0840d79eb>@@@Z
	??$?0V<lambda_d6b799d58678271dfd01570f177cbfef>@@$0A@@?$_Func_impl_no_alloc@V<lambda_d6b799d58678271dfd01570f177cbfef>@@EH@std@@QEAA@$$QEAV<lambda_d6b799d58678271dfd01570f177cbfef>@@@Z
	??$?0V<lambda_d6b799d58678271dfd01570f177cbfef>@@$0A@@?$function@$$A6AEH@Z@std@@QEAA@$$QEAV<lambda_d6b799d58678271dfd01570f177cbfef>@@@Z
	??$?0V<lambda_dd2dd9b3d707913969cb4c37b4af3c84>@@$0A@@?$_Func_impl_no_alloc@V<lambda_dd2dd9b3d707913969cb4c37b4af3c84>@@MH@std@@QEAA@$$QEAV<lambda_dd2dd9b3d707913969cb4c37b4af3c84>@@@Z
	??$?0V<lambda_dd2dd9b3d707913969cb4c37b4af3c84>@@$0A@@?$function@$$A6AMH@Z@std@@QEAA@$$QEAV<lambda_dd2dd9b3d707913969cb4c37b4af3c84>@@@Z
	??$?0V<lambda_e18d89c2faad06f10447820cd6771af8>@@$0A@@?$_Func_impl_no_alloc@V<lambda_e18d89c2faad06f10447820cd6771af8>@@HH@std@@QEAA@$$QEAV<lambda_e18d89c2faad06f10447820cd6771af8>@@@Z
	??$?0V<lambda_e18d89c2faad06f10447820cd6771af8>@@$0A@@?$function@$$A6AHH@Z@std@@QEAA@$$QEAV<lambda_e18d89c2faad06f10447820cd6771af8>@@@Z
	??$?0V<lambda_e24b4efda77a160baf50d70af9d2ff0d>@@$0A@@?$_Func_impl_no_alloc@V<lambda_e24b4efda77a160baf50d70af9d2ff0d>@@MH@std@@QEAA@$$QEAV<lambda_e24b4efda77a160baf50d70af9d2ff0d>@@@Z
	??$?0V<lambda_e24b4efda77a160baf50d70af9d2ff0d>@@$0A@@?$function@$$A6AMH@Z@std@@QEAA@$$QEAV<lambda_e24b4efda77a160baf50d70af9d2ff0d>@@@Z
	??$?0V<lambda_f17412dd2526a2a667a103262ec446e7>@@$0A@@?$_Func_impl_no_alloc@V<lambda_f17412dd2526a2a667a103262ec446e7>@@MH@std@@QEAA@$$QEAV<lambda_f17412dd2526a2a667a103262ec446e7>@@@Z
	??$?0V<lambda_f17412dd2526a2a667a103262ec446e7>@@$0A@@?$function@$$A6AMH@Z@std@@QEAA@$$QEAV<lambda_f17412dd2526a2a667a103262ec446e7>@@@Z
	??$?0V<lambda_f900a08328ddbf3bb2ed4ffc647ad76b>@@$0A@@?$_Func_impl_no_alloc@V<lambda_f900a08328ddbf3bb2ed4ffc647ad76b>@@XN@std@@QEAA@$$QEAV<lambda_f900a08328ddbf3bb2ed4ffc647ad76b>@@@Z
	??$?0V<lambda_f900a08328ddbf3bb2ed4ffc647ad76b>@@$0A@@?$function@$$A6AXN@Z@std@@QEAA@$$QEAV<lambda_f900a08328ddbf3bb2ed4ffc647ad76b>@@@Z
	??$?0V<lambda_f961c1a86b69bc1700502596fbde0b9e>@@$0A@@?$_Func_impl_no_alloc@V<lambda_f961c1a86b69bc1700502596fbde0b9e>@@MH@std@@QEAA@$$QEAV<lambda_f961c1a86b69bc1700502596fbde0b9e>@@@Z
	??$?0V<lambda_f961c1a86b69bc1700502596fbde0b9e>@@$0A@@?$function@$$A6AMH@Z@std@@QEAA@$$QEAV<lambda_f961c1a86b69bc1700502596fbde0b9e>@@@Z
	??$?0V<lambda_fbd46683e75ea7f41ee138a020a867bb>@@$0A@@?$_Func_impl_no_alloc@V<lambda_fbd46683e75ea7f41ee138a020a867bb>@@MH@std@@QEAA@$$QEAV<lambda_fbd46683e75ea7f41ee138a020a867bb>@@@Z
	??$?0V<lambda_fbd46683e75ea7f41ee138a020a867bb>@@$0A@@?$function@$$A6AMH@Z@std@@QEAA@$$QEAV<lambda_fbd46683e75ea7f41ee138a020a867bb>@@@Z
	??$?0V<lambda_fdb58fdca8c0f635ac95f3788f364eb9>@@$0A@@?$_Func_impl_no_alloc@V<lambda_fdb58fdca8c0f635ac95f3788f364eb9>@@XN@std@@QEAA@$$QEAV<lambda_fdb58fdca8c0f635ac95f3788f364eb9>@@@Z
	??$?0V<lambda_fdb58fdca8c0f635ac95f3788f364eb9>@@$0A@@?$function@$$A6AXN@Z@std@@QEAA@$$QEAV<lambda_fdb58fdca8c0f635ac95f3788f364eb9>@@@Z
	??$?0V<lambda_fde3d6b9ca0523f6d49e8eb5e1c4ba53>@@$0A@@?$_Func_impl_no_alloc@V<lambda_fde3d6b9ca0523f6d49e8eb5e1c4ba53>@@HH@std@@QEAA@$$QEAV<lambda_fde3d6b9ca0523f6d49e8eb5e1c4ba53>@@@Z
	??$?0V<lambda_fde3d6b9ca0523f6d49e8eb5e1c4ba53>@@$0A@@?$function@$$A6AHH@Z@std@@QEAA@$$QEAV<lambda_fde3d6b9ca0523f6d49e8eb5e1c4ba53>@@@Z
	??$?0V<lambda_ffff1cfe3e31e0319bc66d6bdc76e93b>@@$0A@@?$_Func_impl_no_alloc@V<lambda_ffff1cfe3e31e0319bc66d6bdc76e93b>@@HH@std@@QEAA@$$QEAV<lambda_ffff1cfe3e31e0319bc66d6bdc76e93b>@@@Z
	??$?0V<lambda_ffff1cfe3e31e0319bc66d6bdc76e93b>@@$0A@@?$function@$$A6AHH@Z@std@@QEAA@$$QEAV<lambda_ffff1cfe3e31e0319bc66d6bdc76e93b>@@@Z
	??$?0V?$IndexType@IUAttributeValueIndex_tag_type_@draco@@@draco@@@?$allocator@U_Container_proxy@std@@@std@@QEAA@AEBV?$allocator@V?$IndexType@IUAttributeValueIndex_tag_type_@draco@@@draco@@@1@@Z
	??$?0V?$IndexType@IUAttributeValueIndex_tag_type_@draco@@@draco@@AEBV?$IndexType@IUPointIndex_tag_type_@draco@@@1@$0A@@?$pair@$$CBV?$IndexType@IUAttributeValueIndex_tag_type_@draco@@@draco@@V?$IndexType@IUPointIndex_tag_type_@draco@@@2@@std@@QEAA@$$QEAV?$IndexType@IUAttributeValueIndex_tag_type_@draco@@@draco@@AEBV?$IndexType@IUPointIndex_tag_type_@draco@@@3@@Z
	??$?0V?$IndexType@IUCornerIndex_tag_type_@draco@@@draco@@@?$allocator@U_Container_proxy@std@@@std@@QEAA@AEBV?$allocator@V?$IndexType@IUCornerIndex_tag_type_@draco@@@draco@@@1@@Z
	??$?0V?$IndexType@IUFaceIndex_tag_type_@draco@@@draco@@@?$allocator@U_Container_proxy@std@@@std@@QEAA@AEBV?$allocator@V?$IndexType@IUFaceIndex_tag_type_@draco@@@draco@@@1@@Z
	??$?0V?$IndexType@IUPointIndex_tag_type_@draco@@@draco@@@?$allocator@U_Container_proxy@std@@@std@@QEAA@AEBV?$allocator@V?$IndexType@IUPointIndex_tag_type_@draco@@@draco@@@1@@Z
	??$?0V?$IndexType@IUPointIndex_tag_type_@draco@@@draco@@V01@$0A@@?$pair@$$CBV?$IndexType@IUPointIndex_tag_type_@draco@@@draco@@V12@@std@@QEAA@$$QEAU?$pair@V?$IndexType@IUPointIndex_tag_type_@draco@@@draco@@V12@@1@@Z
	??$?0V?$IndexType@IUVertexIndex_tag_type_@draco@@@draco@@@?$allocator@U_Container_proxy@std@@@std@@QEAA@AEBV?$allocator@V?$IndexType@IUVertexIndex_tag_type_@draco@@@draco@@@1@@Z
	??$?0V?$IndexType@IUVertexIndex_tag_type_@draco@@@draco@@V?$IndexType@IUCornerIndex_tag_type_@draco@@@1@$0A@@?$pair@V?$IndexType@IUVertexIndex_tag_type_@draco@@@draco@@V?$IndexType@IUCornerIndex_tag_type_@draco@@@2@@std@@QEAA@XZ
	??$?0V?$MeshTraversalSequencer@V?$DepthFirstTraverser@VCornerTable@draco@@V?$MeshAttributeIndicesEncodingObserver@VCornerTable@draco@@@2@@draco@@@draco@@$0A@@?$default_delete@VPointsSequencer@draco@@@std@@QEAA@AEBU?$default_delete@V?$MeshTraversalSequencer@V?$DepthFirstTraverser@VCornerTable@draco@@V?$MeshAttributeIndicesEncodingObserver@VCornerTable@draco@@@2@@draco@@@draco@@@1@@Z
	??$?0V?$MeshTraversalSequencer@V?$DepthFirstTraverser@VCornerTable@draco@@V?$MeshAttributeIndicesEncodingObserver@VCornerTable@draco@@@2@@draco@@@draco@@U?$default_delete@V?$MeshTraversalSequencer@V?$DepthFirstTraverser@VCornerTable@draco@@V?$MeshAttributeIndicesEncodingObserver@VCornerTable@draco@@@2@@draco@@@draco@@@std@@$0A@@?$unique_ptr@VPointsSequencer@draco@@U?$default_delete@VPointsSequencer@draco@@@std@@@std@@QEAA@$$QEAV?$unique_ptr@V?$MeshTraversalSequencer@V?$DepthFirstTraverser@VCornerTable@draco@@V?$MeshAttributeIndicesEncodingObserver@VCornerTable@draco@@@2@@draco@@@draco@@U?$default_delete@V?$MeshTraversalSequencer@V?$DepthFirstTraverser@VCornerTable@draco@@V?$MeshAttributeIndicesEncodingObserver@VCornerTable@draco@@@2@@draco@@@draco@@@std@@@1@@Z
	??$?0V?$MeshTraversalSequencer@V?$DepthFirstTraverser@VMeshAttributeCornerTable@draco@@V?$MeshAttributeIndicesEncodingObserver@VMeshAttributeCornerTable@draco@@@2@@draco@@@draco@@$0A@@?$default_delete@VPointsSequencer@draco@@@std@@QEAA@AEBU?$default_delete@V?$MeshTraversalSequencer@V?$DepthFirstTraverser@VMeshAttributeCornerTable@draco@@V?$MeshAttributeIndicesEncodingObserver@VMeshAttributeCornerTable@draco@@@2@@draco@@@draco@@@1@@Z
	??$?0V?$MeshTraversalSequencer@V?$MaxPredictionDegreeTraverser@VCornerTable@draco@@V?$MeshAttributeIndicesEncodingObserver@VCornerTable@draco@@@2@@draco@@@draco@@$0A@@?$default_delete@VPointsSequencer@draco@@@std@@QEAA@AEBU?$default_delete@V?$MeshTraversalSequencer@V?$MaxPredictionDegreeTraverser@VCornerTable@draco@@V?$MeshAttributeIndicesEncodingObserver@VCornerTable@draco@@@2@@draco@@@draco@@@1@@Z
	??$?0V?$MeshTraversalSequencer@V?$MaxPredictionDegreeTraverser@VCornerTable@draco@@V?$MeshAttributeIndicesEncodingObserver@VCornerTable@draco@@@2@@draco@@@draco@@U?$default_delete@V?$MeshTraversalSequencer@V?$MaxPredictionDegreeTraverser@VCornerTable@draco@@V?$MeshAttributeIndicesEncodingObserver@VCornerTable@draco@@@2@@draco@@@draco@@@std@@$0A@@?$unique_ptr@VPointsSequencer@draco@@U?$default_delete@VPointsSequencer@draco@@@std@@@std@@QEAA@$$QEAV?$unique_ptr@V?$MeshTraversalSequencer@V?$MaxPredictionDegreeTraverser@VCornerTable@draco@@V?$MeshAttributeIndicesEncodingObserver@VCornerTable@draco@@@2@@draco@@@draco@@U?$default_delete@V?$MeshTraversalSequencer@V?$MaxPredictionDegreeTraverser@VCornerTable@draco@@V?$MeshAttributeIndicesEncodingObserver@VCornerTable@draco@@@2@@draco@@@draco@@@std@@@1@@Z
	??$?0V?$PredictionSchemeDecoder@HV?$PredictionSchemeNormalOctahedronCanonicalizedDecodingTransform@H@draco@@@draco@@$0A@@?$default_delete@V?$PredictionSchemeTypedDecoderInterface@HH@draco@@@std@@QEAA@AEBU?$default_delete@V?$PredictionSchemeDecoder@HV?$PredictionSchemeNormalOctahedronCanonicalizedDecodingTransform@H@draco@@@draco@@@1@@Z
	??$?0V?$PredictionSchemeDecoder@HV?$PredictionSchemeNormalOctahedronCanonicalizedDecodingTransform@H@draco@@@draco@@U?$default_delete@V?$PredictionSchemeDecoder@HV?$PredictionSchemeNormalOctahedronCanonicalizedDecodingTransform@H@draco@@@draco@@@std@@$0A@@?$unique_ptr@V?$PredictionSchemeTypedDecoderInterface@HH@draco@@U?$default_delete@V?$PredictionSchemeTypedDecoderInterface@HH@draco@@@std@@@std@@QEAA@$$QEAV?$unique_ptr@V?$PredictionSchemeDecoder@HV?$PredictionSchemeNormalOctahedronCanonicalizedDecodingTransform@H@draco@@@draco@@U?$default_delete@V?$PredictionSchemeDecoder@HV?$PredictionSchemeNormalOctahedronCanonicalizedDecodingTransform@H@draco@@@draco@@@std@@@1@@Z
	??$?0V?$PredictionSchemeDecoder@HV?$PredictionSchemeNormalOctahedronDecodingTransform@H@draco@@@draco@@$0A@@?$default_delete@V?$PredictionSchemeTypedDecoderInterface@HH@draco@@@std@@QEAA@AEBU?$default_delete@V?$PredictionSchemeDecoder@HV?$PredictionSchemeNormalOctahedronDecodingTransform@H@draco@@@draco@@@1@@Z
	??$?0V?$PredictionSchemeDecoder@HV?$PredictionSchemeNormalOctahedronDecodingTransform@H@draco@@@draco@@U?$default_delete@V?$PredictionSchemeDecoder@HV?$PredictionSchemeNormalOctahedronDecodingTransform@H@draco@@@draco@@@std@@$0A@@?$unique_ptr@V?$PredictionSchemeTypedDecoderInterface@HH@draco@@U?$default_delete@V?$PredictionSchemeTypedDecoderInterface@HH@draco@@@std@@@std@@QEAA@$$QEAV?$unique_ptr@V?$PredictionSchemeDecoder@HV?$PredictionSchemeNormalOctahedronDecodingTransform@H@draco@@@draco@@U?$default_delete@V?$PredictionSchemeDecoder@HV?$PredictionSchemeNormalOctahedronDecodingTransform@H@draco@@@draco@@@std@@@1@@Z
	??$?0V?$PredictionSchemeDecoder@HV?$PredictionSchemeWrapDecodingTransform@HH@draco@@@draco@@$0A@@?$default_delete@V?$PredictionSchemeTypedDecoderInterface@HH@draco@@@std@@QEAA@AEBU?$default_delete@V?$PredictionSchemeDecoder@HV?$PredictionSchemeWrapDecodingTransform@HH@draco@@@draco@@@1@@Z
	??$?0V?$PredictionSchemeDecoder@HV?$PredictionSchemeWrapDecodingTransform@HH@draco@@@draco@@U?$default_delete@V?$PredictionSchemeDecoder@HV?$PredictionSchemeWrapDecodingTransform@HH@draco@@@draco@@@std@@$0A@@?$unique_ptr@V?$PredictionSchemeTypedDecoderInterface@HH@draco@@U?$default_delete@V?$PredictionSchemeTypedDecoderInterface@HH@draco@@@std@@@std@@QEAA@$$QEAV?$unique_ptr@V?$PredictionSchemeDecoder@HV?$PredictionSchemeWrapDecodingTransform@HH@draco@@@draco@@U?$default_delete@V?$PredictionSchemeDecoder@HV?$PredictionSchemeWrapDecodingTransform@HH@draco@@@draco@@@std@@@1@@Z
	??$?0V?$PredictionSchemeEncoder@HV?$PredictionSchemeNormalOctahedronCanonicalizedEncodingTransform@H@draco@@@draco@@$0A@@?$default_delete@V?$PredictionSchemeTypedEncoderInterface@HH@draco@@@std@@QEAA@AEBU?$default_delete@V?$PredictionSchemeEncoder@HV?$PredictionSchemeNormalOctahedronCanonicalizedEncodingTransform@H@draco@@@draco@@@1@@Z
	??$?0V?$PredictionSchemeEncoder@HV?$PredictionSchemeNormalOctahedronCanonicalizedEncodingTransform@H@draco@@@draco@@U?$default_delete@V?$PredictionSchemeEncoder@HV?$PredictionSchemeNormalOctahedronCanonicalizedEncodingTransform@H@draco@@@draco@@@std@@$0A@@?$unique_ptr@V?$PredictionSchemeTypedEncoderInterface@HH@draco@@U?$default_delete@V?$PredictionSchemeTypedEncoderInterface@HH@draco@@@std@@@std@@QEAA@$$QEAV?$unique_ptr@V?$PredictionSchemeEncoder@HV?$PredictionSchemeNormalOctahedronCanonicalizedEncodingTransform@H@draco@@@draco@@U?$default_delete@V?$PredictionSchemeEncoder@HV?$PredictionSchemeNormalOctahedronCanonicalizedEncodingTransform@H@draco@@@draco@@@std@@@1@@Z
	??$?0V?$PredictionSchemeEncoder@HV?$PredictionSchemeWrapEncodingTransform@HH@draco@@@draco@@$0A@@?$default_delete@V?$PredictionSchemeTypedEncoderInterface@HH@draco@@@std@@QEAA@AEBU?$default_delete@V?$PredictionSchemeEncoder@HV?$PredictionSchemeWrapEncodingTransform@HH@draco@@@draco@@@1@@Z
	??$?0V?$PredictionSchemeEncoder@HV?$PredictionSchemeWrapEncodingTransform@HH@draco@@@draco@@U?$default_delete@V?$PredictionSchemeEncoder@HV?$PredictionSchemeWrapEncodingTransform@HH@draco@@@draco@@@std@@$0A@@?$unique_ptr@V?$PredictionSchemeTypedEncoderInterface@HH@draco@@U?$default_delete@V?$PredictionSchemeTypedEncoderInterface@HH@draco@@@std@@@std@@QEAA@$$QEAV?$unique_ptr@V?$PredictionSchemeEncoder@HV?$PredictionSchemeWrapEncodingTransform@HH@draco@@@draco@@U?$default_delete@V?$PredictionSchemeEncoder@HV?$PredictionSchemeWrapEncodingTransform@HH@draco@@@draco@@@std@@@1@@Z
	??$?0V?$VectorD@I$02@draco@@@?$allocator@U_Container_proxy@std@@@std@@QEAA@AEBV?$allocator@V?$VectorD@I$02@draco@@@1@@Z
	??$?0V?$_List_iterator@V?$_List_val@U?$_List_simple_types@U?$pair@$$CBV?$IndexType@IUPointIndex_tag_type_@draco@@@draco@@V12@@std@@@std@@@std@@@std@@_N$0A@@?$pair@V?$_List_iterator@V?$_List_val@U?$_List_simple_types@U?$pair@$$CBV?$IndexType@IUPointIndex_tag_type_@draco@@@draco@@V12@@std@@@std@@@std@@@std@@_N@std@@QEAA@$$QEAV?$_List_iterator@V?$_List_val@U?$_List_simple_types@U?$pair@$$CBV?$IndexType@IUPointIndex_tag_type_@draco@@@draco@@V12@@std@@@std@@@std@@@1@$$QEA_N@Z
	??$?0V?$_List_iterator@V?$_List_val@U?$_List_simple_types@U?$pair@$$CBV?$array@E$00@std@@V?$IndexType@IUAttributeValueIndex_tag_type_@draco@@@draco@@@std@@@std@@@std@@@std@@_N$0A@@?$pair@V?$_List_iterator@V?$_List_val@U?$_List_simple_types@U?$pair@$$CBV?$array@E$00@std@@V?$IndexType@IUAttributeValueIndex_tag_type_@draco@@@draco@@@std@@@std@@@std@@@std@@_N@std@@QEAA@$$QEAV?$_List_iterator@V?$_List_val@U?$_List_simple_types@U?$pair@$$CBV?$array@E$00@std@@V?$IndexType@IUAttributeValueIndex_tag_type_@draco@@@draco@@@std@@@std@@@std@@@1@$$QEA_N@Z
	??$?0V?$_List_iterator@V?$_List_val@U?$_List_simple_types@U?$pair@$$CBV?$array@E$01@std@@V?$IndexType@IUAttributeValueIndex_tag_type_@draco@@@draco@@@std@@@std@@@std@@@std@@_N$0A@@?$pair@V?$_List_iterator@V?$_List_val@U?$_List_simple_types@U?$pair@$$CBV?$array@E$01@std@@V?$IndexType@IUAttributeValueIndex_tag_type_@draco@@@draco@@@std@@@std@@@std@@@std@@_N@std@@QEAA@$$QEAV?$_List_iterator@V?$_List_val@U?$_List_simple_types@U?$pair@$$CBV?$array@E$01@std@@V?$IndexType@IUAttributeValueIndex_tag_type_@draco@@@draco@@@std@@@std@@@std@@@1@$$QEA_N@Z
	??$?0V?$_List_iterator@V?$_List_val@U?$_List_simple_types@U?$pair@$$CBV?$array@E$02@std@@V?$IndexType@IUAttributeValueIndex_tag_type_@draco@@@draco@@@std@@@std@@@std@@@std@@_N$0A@@?$pair@V?$_List_iterator@V?$_List_val@U?$_List_simple_types@U?$pair@$$CBV?$array@E$02@std@@V?$IndexType@IUAttributeValueIndex_tag_type_@draco@@@draco@@@std@@@std@@@std@@@std@@_N@std@@QEAA@$$QEAV?$_List_iterator@V?$_List_val@U?$_List_simple_types@U?$pair@$$CBV?$array@E$02@std@@V?$IndexType@IUAttributeValueIndex_tag_type_@draco@@@draco@@@std@@@std@@@std@@@1@$$QEA_N@Z
	??$?0V?$_List_iterator@V?$_List_val@U?$_List_simple_types@U?$pair@$$CBV?$array@E$03@std@@V?$IndexType@IUAttributeValueIndex_tag_type_@draco@@@draco@@@std@@@std@@@std@@@std@@_N$0A@@?$pair@V?$_List_iterator@V?$_List_val@U?$_List_simple_types@U?$pair@$$CBV?$array@E$03@std@@V?$IndexType@IUAttributeValueIndex_tag_type_@draco@@@draco@@@std@@@std@@@std@@@std@@_N@std@@QEAA@$$QEAV?$_List_iterator@V?$_List_val@U?$_List_simple_types@U?$pair@$$CBV?$array@E$03@std@@V?$IndexType@IUAttributeValueIndex_tag_type_@draco@@@draco@@@std@@@std@@@std@@@1@$$QEA_N@Z
	??$?0V?$_List_iterator@V?$_List_val@U?$_List_simple_types@U?$pair@$$CBV?$array@G$00@std@@V?$IndexType@IUAttributeValueIndex_tag_type_@draco@@@draco@@@std@@@std@@@std@@@std@@_N$0A@@?$pair@V?$_List_iterator@V?$_List_val@U?$_List_simple_types@U?$pair@$$CBV?$array@G$00@std@@V?$IndexType@IUAttributeValueIndex_tag_type_@draco@@@draco@@@std@@@std@@@std@@@std@@_N@std@@QEAA@$$QEAV?$_List_iterator@V?$_List_val@U?$_List_simple_types@U?$pair@$$CBV?$array@G$00@std@@V?$IndexType@IUAttributeValueIndex_tag_type_@draco@@@draco@@@std@@@std@@@std@@@1@$$QEA_N@Z
	??$?0V?$_List_iterator@V?$_List_val@U?$_List_simple_types@U?$pair@$$CBV?$array@G$01@std@@V?$IndexType@IUAttributeValueIndex_tag_type_@draco@@@draco@@@std@@@std@@@std@@@std@@_N$0A@@?$pair@V?$_List_iterator@V?$_List_val@U?$_List_simple_types@U?$pair@$$CBV?$array@G$01@std@@V?$IndexType@IUAttributeValueIndex_tag_type_@draco@@@draco@@@std@@@std@@@std@@@std@@_N@std@@QEAA@$$QEAV?$_List_iterator@V?$_List_val@U?$_List_simple_types@U?$pair@$$CBV?$array@G$01@std@@V?$IndexType@IUAttributeValueIndex_tag_type_@draco@@@draco@@@std@@@std@@@std@@@1@$$QEA_N@Z
	??$?0V?$_List_iterator@V?$_List_val@U?$_List_simple_types@U?$pair@$$CBV?$array@G$02@std@@V?$IndexType@IUAttributeValueIndex_tag_type_@draco@@@draco@@@std@@@std@@@std@@@std@@_N$0A@@?$pair@V?$_List_iterator@V?$_List_val@U?$_List_simple_types@U?$pair@$$CBV?$array@G$02@std@@V?$IndexType@IUAttributeValueIndex_tag_type_@draco@@@draco@@@std@@@std@@@std@@@std@@_N@std@@QEAA@$$QEAV?$_List_iterator@V?$_List_val@U?$_List_simple_types@U?$pair@$$CBV?$array@G$02@std@@V?$IndexType@IUAttributeValueIndex_tag_type_@draco@@@draco@@@std@@@std@@@std@@@1@$$QEA_N@Z
	??$?0V?$_List_iterator@V?$_List_val@U?$_List_simple_types@U?$pair@$$CBV?$array@G$03@std@@V?$IndexType@IUAttributeValueIndex_tag_type_@draco@@@draco@@@std@@@std@@@std@@@std@@_N$0A@@?$pair@V?$_List_iterator@V?$_List_val@U?$_List_simple_types@U?$pair@$$CBV?$array@G$03@std@@V?$IndexType@IUAttributeValueIndex_tag_type_@draco@@@draco@@@std@@@std@@@std@@@std@@_N@std@@QEAA@$$QEAV?$_List_iterator@V?$_List_val@U?$_List_simple_types@U?$pair@$$CBV?$array@G$03@std@@V?$IndexType@IUAttributeValueIndex_tag_type_@draco@@@draco@@@std@@@std@@@std@@@1@$$QEA_N@Z
	??$?0V?$_List_iterator@V?$_List_val@U?$_List_simple_types@U?$pair@$$CBV?$array@I$00@std@@V?$IndexType@IUAttributeValueIndex_tag_type_@draco@@@draco@@@std@@@std@@@std@@@std@@_N$0A@@?$pair@V?$_List_iterator@V?$_List_val@U?$_List_simple_types@U?$pair@$$CBV?$array@I$00@std@@V?$IndexType@IUAttributeValueIndex_tag_type_@draco@@@draco@@@std@@@std@@@std@@@std@@_N@std@@QEAA@$$QEAV?$_List_iterator@V?$_List_val@U?$_List_simple_types@U?$pair@$$CBV?$array@I$00@std@@V?$IndexType@IUAttributeValueIndex_tag_type_@draco@@@draco@@@std@@@std@@@std@@@1@$$QEA_N@Z
	??$?0V?$_List_iterator@V?$_List_val@U?$_List_simple_types@U?$pair@$$CBV?$array@I$01@std@@V?$IndexType@IUAttributeValueIndex_tag_type_@draco@@@draco@@@std@@@std@@@std@@@std@@_N$0A@@?$pair@V?$_List_iterator@V?$_List_val@U?$_List_simple_types@U?$pair@$$CBV?$array@I$01@std@@V?$IndexType@IUAttributeValueIndex_tag_type_@draco@@@draco@@@std@@@std@@@std@@@std@@_N@std@@QEAA@$$QEAV?$_List_iterator@V?$_List_val@U?$_List_simple_types@U?$pair@$$CBV?$array@I$01@std@@V?$IndexType@IUAttributeValueIndex_tag_type_@draco@@@draco@@@std@@@std@@@std@@@1@$$QEA_N@Z
	??$?0V?$_List_iterator@V?$_List_val@U?$_List_simple_types@U?$pair@$$CBV?$array@I$02@std@@V?$IndexType@IUAttributeValueIndex_tag_type_@draco@@@draco@@@std@@@std@@@std@@@std@@_N$0A@@?$pair@V?$_List_iterator@V?$_List_val@U?$_List_simple_types@U?$pair@$$CBV?$array@I$02@std@@V?$IndexType@IUAttributeValueIndex_tag_type_@draco@@@draco@@@std@@@std@@@std@@@std@@_N@std@@QEAA@$$QEAV?$_List_iterator@V?$_List_val@U?$_List_simple_types@U?$pair@$$CBV?$array@I$02@std@@V?$IndexType@IUAttributeValueIndex_tag_type_@draco@@@draco@@@std@@@std@@@std@@@1@$$QEA_N@Z
	??$?0V?$_List_iterator@V?$_List_val@U?$_List_simple_types@U?$pair@$$CBV?$array@I$03@std@@V?$IndexType@IUAttributeValueIndex_tag_type_@draco@@@draco@@@std@@@std@@@std@@@std@@_N$0A@@?$pair@V?$_List_iterator@V?$_List_val@U?$_List_simple_types@U?$pair@$$CBV?$array@I$03@std@@V?$IndexType@IUAttributeValueIndex_tag_type_@draco@@@draco@@@std@@@std@@@std@@@std@@_N@std@@QEAA@$$QEAV?$_List_iterator@V?$_List_val@U?$_List_simple_types@U?$pair@$$CBV?$array@I$03@std@@V?$IndexType@IUAttributeValueIndex_tag_type_@draco@@@draco@@@std@@@std@@@std@@@1@$$QEA_N@Z
	??$?0V?$_List_iterator@V?$_List_val@U?$_List_simple_types@V?$array@I$02@std@@@std@@@std@@@std@@_N$0A@@?$pair@V?$_List_const_iterator@V?$_List_val@U?$_List_simple_types@V?$array@I$02@std@@@std@@@std@@@std@@_N@std@@QEAA@$$QEAV?$_List_iterator@V?$_List_val@U?$_List_simple_types@V?$array@I$02@std@@@std@@@std@@@1@$$QEA_N@Z
	??$?0V?$_List_unchecked_const_iterator@V?$_List_val@U?$_List_simple_types@V?$array@I$02@std@@@std@@@std@@U_Iterator_base0@2@@std@@@?$allocator@U_Container_proxy@std@@@std@@QEAA@AEBV?$allocator@V?$_List_unchecked_const_iterator@V?$_List_val@U?$_List_simple_types@V?$array@I$02@std@@@std@@@std@@U_Iterator_base0@2@@std@@@1@@Z
	??$?0V?$_List_unchecked_iterator@V?$_List_val@U?$_List_simple_types@U?$pair@$$CBHH@std@@@std@@@std@@@std@@@?$allocator@U_Container_proxy@std@@@std@@QEAA@AEBV?$allocator@V?$_List_unchecked_iterator@V?$_List_val@U?$_List_simple_types@U?$pair@$$CBHH@std@@@std@@@std@@@std@@@1@@Z
	??$?0V?$_List_unchecked_iterator@V?$_List_val@U?$_List_simple_types@U?$pair@$$CBHV?$IndexType@IUCornerIndex_tag_type_@draco@@@draco@@@std@@@std@@@std@@@std@@@?$allocator@U_Container_proxy@std@@@std@@QEAA@AEBV?$allocator@V?$_List_unchecked_iterator@V?$_List_val@U?$_List_simple_types@U?$pair@$$CBHV?$IndexType@IUCornerIndex_tag_type_@draco@@@draco@@@std@@@std@@@std@@@std@@@1@@Z
	??$?0V?$_List_unchecked_iterator@V?$_List_val@U?$_List_simple_types@U?$pair@$$CBHV?$basic_string@DU?$char_traits@D@std@@V?$allocator@D@2@@std@@@std@@@std@@@std@@@std@@@?$allocator@U_Container_proxy@std@@@std@@QEAA@AEBV?$allocator@V?$_List_unchecked_iterator@V?$_List_val@U?$_List_simple_types@U?$pair@$$CBHV?$basic_string@DU?$char_traits@D@std@@V?$allocator@D@2@@std@@@std@@@std@@@std@@@std@@@1@@Z
	??$?0V?$_List_unchecked_iterator@V?$_List_val@U?$_List_simple_types@U?$pair@$$CBV?$IndexType@IUPointIndex_tag_type_@draco@@@draco@@V12@@std@@@std@@@std@@@std@@@?$allocator@U_Container_proxy@std@@@std@@QEAA@AEBV?$allocator@V?$_List_unchecked_iterator@V?$_List_val@U?$_List_simple_types@U?$pair@$$CBV?$IndexType@IUPointIndex_tag_type_@draco@@@draco@@V12@@std@@@std@@@std@@@std@@@1@@Z
	??$?0V?$_List_unchecked_iterator@V?$_List_val@U?$_List_simple_types@U?$pair@$$CBV?$array@E$00@std@@V?$IndexType@IUAttributeValueIndex_tag_type_@draco@@@draco@@@std@@@std@@@std@@@std@@@?$allocator@U_Container_proxy@std@@@std@@QEAA@AEBV?$allocator@V?$_List_unchecked_iterator@V?$_List_val@U?$_List_simple_types@U?$pair@$$CBV?$array@E$00@std@@V?$IndexType@IUAttributeValueIndex_tag_type_@draco@@@draco@@@std@@@std@@@std@@@std@@@1@@Z
	??$?0V?$_List_unchecked_iterator@V?$_List_val@U?$_List_simple_types@U?$pair@$$CBV?$array@E$01@std@@V?$IndexType@IUAttributeValueIndex_tag_type_@draco@@@draco@@@std@@@std@@@std@@@std@@@?$allocator@U_Container_proxy@std@@@std@@QEAA@AEBV?$allocator@V?$_List_unchecked_iterator@V?$_List_val@U?$_List_simple_types@U?$pair@$$CBV?$array@E$01@std@@V?$IndexType@IUAttributeValueIndex_tag_type_@draco@@@draco@@@std@@@std@@@std@@@std@@@1@@Z
	??$?0V?$_List_unchecked_iterator@V?$_List_val@U?$_List_simple_types@U?$pair@$$CBV?$array@E$02@std@@V?$IndexType@IUAttributeValueIndex_tag_type_@draco@@@draco@@@std@@@std@@@std@@@std@@@?$allocator@U_Container_proxy@std@@@std@@QEAA@AEBV?$allocator@V?$_List_unchecked_iterator@V?$_List_val@U?$_List_simple_types@U?$pair@$$CBV?$array@E$02@std@@V?$IndexType@IUAttributeValueIndex_tag_type_@draco@@@draco@@@std@@@std@@@std@@@std@@@1@@Z
	??$?0V?$_List_unchecked_iterator@V?$_List_val@U?$_List_simple_types@U?$pair@$$CBV?$array@E$03@std@@V?$IndexType@IUAttributeValueIndex_tag_type_@draco@@@draco@@@std@@@std@@@std@@@std@@@?$allocator@U_Container_proxy@std@@@std@@QEAA@AEBV?$allocator@V?$_List_unchecked_iterator@V?$_List_val@U?$_List_simple_types@U?$pair@$$CBV?$array@E$03@std@@V?$IndexType@IUAttributeValueIndex_tag_type_@draco@@@draco@@@std@@@std@@@std@@@std@@@1@@Z
	??$?0V?$_List_unchecked_iterator@V?$_List_val@U?$_List_simple_types@U?$pair@$$CBV?$array@G$00@std@@V?$IndexType@IUAttributeValueIndex_tag_type_@draco@@@draco@@@std@@@std@@@std@@@std@@@?$allocator@U_Container_proxy@std@@@std@@QEAA@AEBV?$allocator@V?$_List_unchecked_iterator@V?$_List_val@U?$_List_simple_types@U?$pair@$$CBV?$array@G$00@std@@V?$IndexType@IUAttributeValueIndex_tag_type_@draco@@@draco@@@std@@@std@@@std@@@std@@@1@@Z
	??$?0V?$_List_unchecked_iterator@V?$_List_val@U?$_List_simple_types@U?$pair@$$CBV?$array@G$01@std@@V?$IndexType@IUAttributeValueIndex_tag_type_@draco@@@draco@@@std@@@std@@@std@@@std@@@?$allocator@U_Container_proxy@std@@@std@@QEAA@AEBV?$allocator@V?$_List_unchecked_iterator@V?$_List_val@U?$_List_simple_types@U?$pair@$$CBV?$array@G$01@std@@V?$IndexType@IUAttributeValueIndex_tag_type_@draco@@@draco@@@std@@@std@@@std@@@std@@@1@@Z
	??$?0V?$_List_unchecked_iterator@V?$_List_val@U?$_List_simple_types@U?$pair@$$CBV?$array@G$02@std@@V?$IndexType@IUAttributeValueIndex_tag_type_@draco@@@draco@@@std@@@std@@@std@@@std@@@?$allocator@U_Container_proxy@std@@@std@@QEAA@AEBV?$allocator@V?$_List_unchecked_iterator@V?$_List_val@U?$_List_simple_types@U?$pair@$$CBV?$array@G$02@std@@V?$IndexType@IUAttributeValueIndex_tag_type_@draco@@@draco@@@std@@@std@@@std@@@std@@@1@@Z
	??$?0V?$_List_unchecked_iterator@V?$_List_val@U?$_List_simple_types@U?$pair@$$CBV?$array@G$03@std@@V?$IndexType@IUAttributeValueIndex_tag_type_@draco@@@draco@@@std@@@std@@@std@@@std@@@?$allocator@U_Container_proxy@std@@@std@@QEAA@AEBV?$allocator@V?$_List_unchecked_iterator@V?$_List_val@U?$_List_simple_types@U?$pair@$$CBV?$array@G$03@std@@V?$IndexType@IUAttributeValueIndex_tag_type_@draco@@@draco@@@std@@@std@@@std@@@std@@@1@@Z
	??$?0V?$_List_unchecked_iterator@V?$_List_val@U?$_List_simple_types@U?$pair@$$CBV?$array@I$00@std@@V?$IndexType@IUAttributeValueIndex_tag_type_@draco@@@draco@@@std@@@std@@@std@@@std@@@?$allocator@U_Container_proxy@std@@@std@@QEAA@AEBV?$allocator@V?$_List_unchecked_iterator@V?$_List_val@U?$_List_simple_types@U?$pair@$$CBV?$array@I$00@std@@V?$IndexType@IUAttributeValueIndex_tag_type_@draco@@@draco@@@std@@@std@@@std@@@std@@@1@@Z
	??$?0V?$_List_unchecked_iterator@V?$_List_val@U?$_List_simple_types@U?$pair@$$CBV?$array@I$01@std@@V?$IndexType@IUAttributeValueIndex_tag_type_@draco@@@draco@@@std@@@std@@@std@@@std@@@?$allocator@U_Container_proxy@std@@@std@@QEAA@AEBV?$allocator@V?$_List_unchecked_iterator@V?$_List_val@U?$_List_simple_types@U?$pair@$$CBV?$array@I$01@std@@V?$IndexType@IUAttributeValueIndex_tag_type_@draco@@@draco@@@std@@@std@@@std@@@std@@@1@@Z
	??$?0V?$_List_unchecked_iterator@V?$_List_val@U?$_List_simple_types@U?$pair@$$CBV?$array@I$02@std@@V?$IndexType@IUAttributeValueIndex_tag_type_@draco@@@draco@@@std@@@std@@@std@@@std@@@?$allocator@U_Container_proxy@std@@@std@@QEAA@AEBV?$allocator@V?$_List_unchecked_iterator@V?$_List_val@U?$_List_simple_types@U?$pair@$$CBV?$array@I$02@std@@V?$IndexType@IUAttributeValueIndex_tag_type_@draco@@@draco@@@std@@@std@@@std@@@std@@@1@@Z
	??$?0V?$_List_unchecked_iterator@V?$_List_val@U?$_List_simple_types@U?$pair@$$CBV?$array@I$03@std@@V?$IndexType@IUAttributeValueIndex_tag_type_@draco@@@draco@@@std@@@std@@@std@@@std@@@?$allocator@U_Container_proxy@std@@@std@@QEAA@AEBV?$allocator@V?$_List_unchecked_iterator@V?$_List_val@U?$_List_simple_types@U?$pair@$$CBV?$array@I$03@std@@V?$IndexType@IUAttributeValueIndex_tag_type_@draco@@@draco@@@std@@@std@@@std@@@std@@@1@@Z
	??$?0V?$_List_unchecked_iterator@V?$_List_val@U?$_List_simple_types@U?$pair@$$CBV?$basic_string@DU?$char_traits@D@std@@V?$allocator@D@2@@std@@H@std@@@std@@@std@@@std@@@?$allocator@U_Container_proxy@std@@@std@@QEAA@AEBV?$allocator@V?$_List_unchecked_iterator@V?$_List_val@U?$_List_simple_types@U?$pair@$$CBV?$basic_string@DU?$char_traits@D@std@@V?$allocator@D@2@@std@@H@std@@@std@@@std@@@std@@@1@@Z
	??$?0V?$_Tree_iterator@V?$_Tree_val@U?$_Tree_simple_types@U?$pair@$$CBHVOptions@draco@@@std@@@std@@@std@@@std@@AEB_N$0A@@?$pair@V?$_Tree_iterator@V?$_Tree_val@U?$_Tree_simple_types@U?$pair@$$CBHVOptions@draco@@@std@@@std@@@std@@@std@@_N@std@@QEAA@$$QEAV?$_Tree_iterator@V?$_Tree_val@U?$_Tree_simple_types@U?$pair@$$CBHVOptions@draco@@@std@@@std@@@std@@@1@AEB_N@Z
	??$?0V?$_Tree_iterator@V?$_Tree_val@U?$_Tree_simple_types@U?$pair@$$CBV?$IndexType@IUAttributeValueIndex_tag_type_@draco@@@draco@@V?$IndexType@IUPointIndex_tag_type_@draco@@@2@@std@@@std@@@std@@@std@@AEB_N$0A@@?$pair@V?$_Tree_iterator@V?$_Tree_val@U?$_Tree_simple_types@U?$pair@$$CBV?$IndexType@IUAttributeValueIndex_tag_type_@draco@@@draco@@V?$IndexType@IUPointIndex_tag_type_@draco@@@2@@std@@@std@@@std@@@std@@_N@std@@QEAA@$$QEAV?$_Tree_iterator@V?$_Tree_val@U?$_Tree_simple_types@U?$pair@$$CBV?$IndexType@IUAttributeValueIndex_tag_type_@draco@@@draco@@V?$IndexType@IUPointIndex_tag_type_@draco@@@2@@std@@@std@@@std@@@1@AEB_N@Z
	??$?0V?$_Tree_iterator@V?$_Tree_val@U?$_Tree_simple_types@U?$pair@$$CBV?$basic_string@DU?$char_traits@D@std@@V?$allocator@D@2@@std@@VEntryValue@draco@@@std@@@std@@@std@@@std@@AEB_N$0A@@?$pair@V?$_Tree_iterator@V?$_Tree_val@U?$_Tree_simple_types@U?$pair@$$CBV?$basic_string@DU?$char_traits@D@std@@V?$allocator@D@2@@std@@VEntryValue@draco@@@std@@@std@@@std@@@std@@_N@std@@QEAA@$$QEAV?$_Tree_iterator@V?$_Tree_val@U?$_Tree_simple_types@U?$pair@$$CBV?$basic_string@DU?$char_traits@D@std@@V?$allocator@D@2@@std@@VEntryValue@draco@@@std@@@std@@@std@@@1@AEB_N@Z
	??$?0V?$_Tree_iterator@V?$_Tree_val@U?$_Tree_simple_types@U?$pair@$$CBW4Type@GeometryAttribute@draco@@VOptions@3@@std@@@std@@@std@@@std@@AEB_N$0A@@?$pair@V?$_Tree_iterator@V?$_Tree_val@U?$_Tree_simple_types@U?$pair@$$CBW4Type@GeometryAttribute@draco@@VOptions@3@@std@@@std@@@std@@@std@@_N@std@@QEAA@$$QEAV?$_Tree_iterator@V?$_Tree_val@U?$_Tree_simple_types@U?$pair@$$CBW4Type@GeometryAttribute@draco@@VOptions@3@@std@@@std@@@std@@@1@AEB_N@Z
	??$?0V?$allocator@C@std@@PEACPEACPEAC@?$_Compressed_pair@V?$allocator@C@std@@V?$_Vector_val@U?$_Simple_types@C@std@@@2@$00@std@@QEAA@U_One_then_variadic_args_t@1@$$QEAV?$allocator@C@1@$$QEAPEAC22@Z
	??$?0V?$allocator@D@std@@$$V@?$_Compressed_pair@V?$allocator@D@std@@V?$_String_val@U?$_Simple_types@D@std@@@2@$00@std@@QEAA@U_One_then_variadic_args_t@1@$$QEAV?$allocator@D@1@@Z
	??$?0V?$allocator@E@std@@$$V@?$_Compressed_pair@V?$allocator@E@std@@V?$_Vector_val@U?$_Simple_types@E@std@@@2@$00@std@@QEAA@U_One_then_variadic_args_t@1@$$QEAV?$allocator@E@1@@Z
	??$?0V?$allocator@E@std@@PEAEPEAEPEAE@?$_Compressed_pair@V?$allocator@E@std@@V?$_Vector_val@U?$_Simple_types@E@std@@@2@$00@std@@QEAA@U_One_then_variadic_args_t@1@$$QEAV?$allocator@E@1@$$QEAPEAE22@Z
	??$?0V?$allocator@H@std@@$$V@?$_Compressed_pair@V?$allocator@H@std@@V?$_Vector_val@U?$_Simple_types@H@std@@@2@$00@std@@QEAA@U_One_then_variadic_args_t@1@$$QEAV?$allocator@H@1@@Z
	??$?0V?$allocator@H@std@@PEAHPEAHPEAH@?$_Compressed_pair@V?$allocator@H@std@@V?$_Vector_val@U?$_Simple_types@H@std@@@2@$00@std@@QEAA@U_One_then_variadic_args_t@1@$$QEAV?$allocator@H@1@$$QEAPEAH22@Z
	??$?0V?$allocator@I@std@@$$V@?$_Compressed_pair@V?$allocator@I@std@@V?$_Vector_val@U?$_Simple_types@I@std@@@2@$00@std@@QEAA@U_One_then_variadic_args_t@1@$$QEAV?$allocator@I@1@@Z
	??$?0V?$allocator@I@std@@PEAIPEAIPEAI@?$_Compressed_pair@V?$allocator@I@std@@V?$_Vector_val@U?$_Simple_types@I@std@@@2@$00@std@@QEAA@U_One_then_variadic_args_t@1@$$QEAV?$allocator@I@1@$$QEAPEAI22@Z
	??$?0V?$allocator@M@std@@$$V@?$_Compressed_pair@V?$allocator@M@std@@V?$_Vector_val@U?$_Simple_types@M@std@@@2@$00@std@@QEAA@U_One_then_variadic_args_t@1@$$QEAV?$allocator@M@1@@Z
	??$?0V?$allocator@M@std@@PEAMPEAMPEAM@?$_Compressed_pair@V?$allocator@M@std@@V?$_Vector_val@U?$_Simple_types@M@std@@@2@$00@std@@QEAA@U_One_then_variadic_args_t@1@$$QEAV?$allocator@M@1@$$QEAPEAM22@Z
	??$?0V?$allocator@U?$_Tree_node@U?$pair@$$CBHVOptions@draco@@@std@@PEAX@std@@@std@@$$V@?$_Compressed_pair@V?$allocator@U?$_Tree_node@U?$pair@$$CBHVOptions@draco@@@std@@PEAX@std@@@std@@V?$_Tree_val@U?$_Tree_simple_types@U?$pair@$$CBHVOptions@draco@@@std@@@std@@@2@$00@std@@QEAA@U_One_then_variadic_args_t@1@$$QEAV?$allocator@U?$_Tree_node@U?$pair@$$CBHVOptions@draco@@@std@@PEAX@std@@@1@@Z
	??$?0V?$allocator@U?$_Tree_node@U?$pair@$$CBV?$basic_string@DU?$char_traits@D@std@@V?$allocator@D@2@@std@@H@std@@PEAX@std@@@std@@$$V@?$_Compressed_pair@V?$allocator@U?$_Tree_node@U?$pair@$$CBV?$basic_string@DU?$char_traits@D@std@@V?$allocator@D@2@@std@@H@std@@PEAX@std@@@std@@V?$_Tree_val@U?$_Tree_simple_types@U?$pair@$$CBV?$basic_string@DU?$char_traits@D@std@@V?$allocator@D@2@@std@@H@std@@@std@@@2@$00@std@@QEAA@U_One_then_variadic_args_t@1@$$QEAV?$allocator@U?$_Tree_node@U?$pair@$$CBV?$basic_string@DU?$char_traits@D@std@@V?$allocator@D@2@@std@@H@std@@PEAX@std@@@1@@Z
	??$?0V?$allocator@U?$_Tree_node@U?$pair@$$CBV?$basic_string@DU?$char_traits@D@std@@V?$allocator@D@2@@std@@H@std@@PEAX@std@@@std@@@?$_Tree@V?$_Tmap_traits@V?$basic_string@DU?$char_traits@D@std@@V?$allocator@D@2@@std@@HU?$less@V?$basic_string@DU?$char_traits@D@std@@V?$allocator@D@2@@std@@@2@V?$allocator@U?$pair@$$CBV?$basic_string@DU?$char_traits@D@std@@V?$allocator@D@2@@std@@H@std@@@2@$0A@@std@@@std@@QEAA@AEBV01@$$QEAV?$allocator@U?$_Tree_node@U?$pair@$$CBV?$basic_string@DU?$char_traits@D@std@@V?$allocator@D@2@@std@@H@std@@PEAX@std@@@1@@Z
	??$?0V?$allocator@U?$_Tree_node@U?$pair@$$CBV?$basic_string@DU?$char_traits@D@std@@V?$allocator@D@2@@std@@V12@@std@@PEAX@std@@@std@@$$V@?$_Compressed_pair@V?$allocator@U?$_Tree_node@U?$pair@$$CBV?$basic_string@DU?$char_traits@D@std@@V?$allocator@D@2@@std@@V12@@std@@PEAX@std@@@std@@V?$_Tree_val@U?$_Tree_simple_types@U?$pair@$$CBV?$basic_string@DU?$char_traits@D@std@@V?$allocator@D@2@@std@@V12@@std@@@std@@@2@$00@std@@QEAA@U_One_then_variadic_args_t@1@$$QEAV?$allocator@U?$_Tree_node@U?$pair@$$CBV?$basic_string@DU?$char_traits@D@std@@V?$allocator@D@2@@std@@V12@@std@@PEAX@std@@@1@@Z
	??$?0V?$allocator@U?$_Tree_node@U?$pair@$$CBV?$basic_string@DU?$char_traits@D@std@@V?$allocator@D@2@@std@@V12@@std@@PEAX@std@@@std@@@?$_Tree@V?$_Tmap_traits@V?$basic_string@DU?$char_traits@D@std@@V?$allocator@D@2@@std@@V12@U?$less@V?$basic_string@DU?$char_traits@D@std@@V?$allocator@D@2@@std@@@2@V?$allocator@U?$pair@$$CBV?$basic_string@DU?$char_traits@D@std@@V?$allocator@D@2@@std@@V12@@std@@@2@$0A@@std@@@std@@QEAA@AEBV01@$$QEAV?$allocator@U?$_Tree_node@U?$pair@$$CBV?$basic_string@DU?$char_traits@D@std@@V?$allocator@D@2@@std@@V12@@std@@PEAX@std@@@1@@Z
	??$?0V?$allocator@U?$_Tree_node@U?$pair@$$CBW4Type@GeometryAttribute@draco@@VOptions@3@@std@@PEAX@std@@@std@@$$V@?$_Compressed_pair@V?$allocator@U?$_Tree_node@U?$pair@$$CBW4Type@GeometryAttribute@draco@@VOptions@3@@std@@PEAX@std@@@std@@V?$_Tree_val@U?$_Tree_simple_types@U?$pair@$$CBW4Type@GeometryAttribute@draco@@VOptions@3@@std@@@std@@@2@$00@std@@QEAA@U_One_then_variadic_args_t@1@$$QEAV?$allocator@U?$_Tree_node@U?$pair@$$CBW4Type@GeometryAttribute@draco@@VOptions@3@@std@@PEAX@std@@@1@@Z
	??$?0V?$allocator@V?$IndexType@IUAttributeValueIndex_tag_type_@draco@@@draco@@@std@@PEAV?$IndexType@IUAttributeValueIndex_tag_type_@draco@@@draco@@PEAV23@PEAV23@@?$_Compressed_pair@V?$allocator@V?$IndexType@IUAttributeValueIndex_tag_type_@draco@@@draco@@@std@@V?$_Vector_val@U?$_Simple_types@V?$IndexType@IUAttributeValueIndex_tag_type_@draco@@@draco@@@std@@@2@$00@std@@QEAA@U_One_then_variadic_args_t@1@$$QEAV?$allocator@V?$IndexType@IUAttributeValueIndex_tag_type_@draco@@@draco@@@1@$$QEAPEAV?$IndexType@IUAttributeValueIndex_tag_type_@draco@@@draco@@22@Z
	??$?0V?$allocator@V?$IndexType@IUCornerIndex_tag_type_@draco@@@draco@@@std@@PEAV?$IndexType@IUCornerIndex_tag_type_@draco@@@draco@@PEAV23@PEAV23@@?$_Compressed_pair@V?$allocator@V?$IndexType@IUCornerIndex_tag_type_@draco@@@draco@@@std@@V?$_Vector_val@U?$_Simple_types@V?$IndexType@IUCornerIndex_tag_type_@draco@@@draco@@@std@@@2@$00@std@@QEAA@U_One_then_variadic_args_t@1@$$QEAV?$allocator@V?$IndexType@IUCornerIndex_tag_type_@draco@@@draco@@@1@$$QEAPEAV?$IndexType@IUCornerIndex_tag_type_@draco@@@draco@@22@Z
	??$?0V?$allocator@V?$IndexType@IUFaceIndex_tag_type_@draco@@@draco@@@std@@PEAV?$IndexType@IUFaceIndex_tag_type_@draco@@@draco@@PEAV23@PEAV23@@?$_Compressed_pair@V?$allocator@V?$IndexType@IUFaceIndex_tag_type_@draco@@@draco@@@std@@V?$_Vector_val@U?$_Simple_types@V?$IndexType@IUFaceIndex_tag_type_@draco@@@draco@@@std@@@2@$00@std@@QEAA@U_One_then_variadic_args_t@1@$$QEAV?$allocator@V?$IndexType@IUFaceIndex_tag_type_@draco@@@draco@@@1@$$QEAPEAV?$IndexType@IUFaceIndex_tag_type_@draco@@@draco@@22@Z
	??$?0V?$allocator@V?$IndexType@IUVertexIndex_tag_type_@draco@@@draco@@@std@@PEAV?$IndexType@IUVertexIndex_tag_type_@draco@@@draco@@PEAV23@PEAV23@@?$_Compressed_pair@V?$allocator@V?$IndexType@IUVertexIndex_tag_type_@draco@@@draco@@@std@@V?$_Vector_val@U?$_Simple_types@V?$IndexType@IUVertexIndex_tag_type_@draco@@@draco@@@std@@@2@$00@std@@QEAA@U_One_then_variadic_args_t@1@$$QEAV?$allocator@V?$IndexType@IUVertexIndex_tag_type_@draco@@@draco@@@1@$$QEAPEAV?$IndexType@IUVertexIndex_tag_type_@draco@@@draco@@22@Z
	??$?0V?$allocator@V?$basic_string@DU?$char_traits@D@std@@V?$allocator@D@2@@std@@@std@@PEAV?$basic_string@DU?$char_traits@D@std@@V?$allocator@D@2@@1@PEAV21@PEAV21@@?$_Compressed_pair@V?$allocator@V?$basic_string@DU?$char_traits@D@std@@V?$allocator@D@2@@std@@@std@@V?$_Vector_val@U?$_Simple_types@V?$basic_string@DU?$char_traits@D@std@@V?$allocator@D@2@@std@@@std@@@2@$00@std@@QEAA@U_One_then_variadic_args_t@1@$$QEAV?$allocator@V?$basic_string@DU?$char_traits@D@std@@V?$allocator@D@2@@std@@@1@$$QEAPEAV?$basic_string@DU?$char_traits@D@std@@V?$allocator@D@2@@1@22@Z
	??$?0V?$allocator@V?$tuple@PEAVPointAttribute@draco@@IW4DataType@2@II@std@@@std@@$$V@?$_Compressed_pair@V?$allocator@V?$tuple@PEAVPointAttribute@draco@@IW4DataType@2@II@std@@@std@@V?$_Vector_val@U?$_Simple_types@V?$tuple@PEAVPointAttribute@draco@@IW4DataType@2@II@std@@@std@@@2@$00@std@@QEAA@U_One_then_variadic_args_t@1@$$QEAV?$allocator@V?$tuple@PEAVPointAttribute@draco@@IW4DataType@2@II@std@@@1@@Z
	??$?0V?$allocator@VPlyProperty@draco@@@std@@$$V@?$_Compressed_pair@V?$allocator@VPlyProperty@draco@@@std@@V?$_Vector_val@U?$_Simple_types@VPlyProperty@draco@@@std@@@2@$00@std@@QEAA@U_One_then_variadic_args_t@1@$$QEAV?$allocator@VPlyProperty@draco@@@1@@Z
	??$?0V?$allocator@VPlyProperty@draco@@@std@@PEAVPlyProperty@draco@@PEAV23@PEAV23@@?$_Compressed_pair@V?$allocator@VPlyProperty@draco@@@std@@V?$_Vector_val@U?$_Simple_types@VPlyProperty@draco@@@std@@@2@$00@std@@QEAA@U_One_then_variadic_args_t@1@$$QEAV?$allocator@VPlyProperty@draco@@@1@$$QEAPEAVPlyProperty@draco@@22@Z
	??$?0V?$allocator@_J@std@@$$V@?$_Compressed_pair@V?$allocator@_J@std@@V?$_Vector_val@U?$_Simple_types@_J@std@@@2@$00@std@@QEAA@U_One_then_variadic_args_t@1@$$QEAV?$allocator@_J@1@@Z
	??$?0V?$allocator@_J@std@@PEA_JPEA_JPEA_J@?$_Compressed_pair@V?$allocator@_J@std@@V?$_Vector_val@U?$_Simple_types@_J@std@@@2@$00@std@@QEAA@U_One_then_variadic_args_t@1@$$QEAV?$allocator@_J@1@$$QEAPEA_J22@Z
	??$?0V?$array@E$00@std@@V?$IndexType@IUAttributeValueIndex_tag_type_@draco@@@draco@@$0A@@?$pair@$$CBV?$array@E$00@std@@V?$IndexType@IUAttributeValueIndex_tag_type_@draco@@@draco@@@std@@QEAA@$$QEAU?$pair@V?$array@E$00@std@@V?$IndexType@IUAttributeValueIndex_tag_type_@draco@@@draco@@@1@@Z
	??$?0V?$array@E$01@std@@V?$IndexType@IUAttributeValueIndex_tag_type_@draco@@@draco@@$0A@@?$pair@$$CBV?$array@E$01@std@@V?$IndexType@IUAttributeValueIndex_tag_type_@draco@@@draco@@@std@@QEAA@$$QEAU?$pair@V?$array@E$01@std@@V?$IndexType@IUAttributeValueIndex_tag_type_@draco@@@draco@@@1@@Z
	??$?0V?$array@E$02@std@@V?$IndexType@IUAttributeValueIndex_tag_type_@draco@@@draco@@$0A@@?$pair@$$CBV?$array@E$02@std@@V?$IndexType@IUAttributeValueIndex_tag_type_@draco@@@draco@@@std@@QEAA@$$QEAU?$pair@V?$array@E$02@std@@V?$IndexType@IUAttributeValueIndex_tag_type_@draco@@@draco@@@1@@Z
	??$?0V?$array@E$03@std@@V?$IndexType@IUAttributeValueIndex_tag_type_@draco@@@draco@@$0A@@?$pair@$$CBV?$array@E$03@std@@V?$IndexType@IUAttributeValueIndex_tag_type_@draco@@@draco@@@std@@QEAA@$$QEAU?$pair@V?$array@E$03@std@@V?$IndexType@IUAttributeValueIndex_tag_type_@draco@@@draco@@@1@@Z
	??$?0V?$array@G$00@std@@V?$IndexType@IUAttributeValueIndex_tag_type_@draco@@@draco@@$0A@@?$pair@$$CBV?$array@G$00@std@@V?$IndexType@IUAttributeValueIndex_tag_type_@draco@@@draco@@@std@@QEAA@$$QEAU?$pair@V?$array@G$00@std@@V?$IndexType@IUAttributeValueIndex_tag_type_@draco@@@draco@@@1@@Z
	??$?0V?$array@G$01@std@@V?$IndexType@IUAttributeValueIndex_tag_type_@draco@@@draco@@$0A@@?$pair@$$CBV?$array@G$01@std@@V?$IndexType@IUAttributeValueIndex_tag_type_@draco@@@draco@@@std@@QEAA@$$QEAU?$pair@V?$array@G$01@std@@V?$IndexType@IUAttributeValueIndex_tag_type_@draco@@@draco@@@1@@Z
	??$?0V?$array@G$02@std@@V?$IndexType@IUAttributeValueIndex_tag_type_@draco@@@draco@@$0A@@?$pair@$$CBV?$array@G$02@std@@V?$IndexType@IUAttributeValueIndex_tag_type_@draco@@@draco@@@std@@QEAA@$$QEAU?$pair@V?$array@G$02@std@@V?$IndexType@IUAttributeValueIndex_tag_type_@draco@@@draco@@@1@@Z
	??$?0V?$array@G$03@std@@V?$IndexType@IUAttributeValueIndex_tag_type_@draco@@@draco@@$0A@@?$pair@$$CBV?$array@G$03@std@@V?$IndexType@IUAttributeValueIndex_tag_type_@draco@@@draco@@@std@@QEAA@$$QEAU?$pair@V?$array@G$03@std@@V?$IndexType@IUAttributeValueIndex_tag_type_@draco@@@draco@@@1@@Z
	??$?0V?$array@I$00@std@@V?$IndexType@IUAttributeValueIndex_tag_type_@draco@@@draco@@$0A@@?$pair@$$CBV?$array@I$00@std@@V?$IndexType@IUAttributeValueIndex_tag_type_@draco@@@draco@@@std@@QEAA@$$QEAU?$pair@V?$array@I$00@std@@V?$IndexType@IUAttributeValueIndex_tag_type_@draco@@@draco@@@1@@Z
	??$?0V?$array@I$01@std@@V?$IndexType@IUAttributeValueIndex_tag_type_@draco@@@draco@@$0A@@?$pair@$$CBV?$array@I$01@std@@V?$IndexType@IUAttributeValueIndex_tag_type_@draco@@@draco@@@std@@QEAA@$$QEAU?$pair@V?$array@I$01@std@@V?$IndexType@IUAttributeValueIndex_tag_type_@draco@@@draco@@@1@@Z
	??$?0V?$array@I$02@std@@@?$allocator@U?$_List_node@V?$array@I$02@std@@PEAX@std@@@std@@QEAA@AEBV?$allocator@V?$array@I$02@std@@@1@@Z
	??$?0V?$array@I$02@std@@@?$allocator@V?$_List_unchecked_const_iterator@V?$_List_val@U?$_List_simple_types@V?$array@I$02@std@@@std@@@std@@U_Iterator_base0@2@@std@@@std@@QEAA@AEBV?$allocator@V?$array@I$02@std@@@1@@Z
	??$?0V?$array@I$02@std@@V?$IndexType@IUAttributeValueIndex_tag_type_@draco@@@draco@@$0A@@?$pair@$$CBV?$array@I$02@std@@V?$IndexType@IUAttributeValueIndex_tag_type_@draco@@@draco@@@std@@QEAA@$$QEAU?$pair@V?$array@I$02@std@@V?$IndexType@IUAttributeValueIndex_tag_type_@draco@@@draco@@@1@@Z
	??$?0V?$array@I$03@std@@V?$IndexType@IUAttributeValueIndex_tag_type_@draco@@@draco@@$0A@@?$pair@$$CBV?$array@I$03@std@@V?$IndexType@IUAttributeValueIndex_tag_type_@draco@@@draco@@@std@@QEAA@$$QEAU?$pair@V?$array@I$03@std@@V?$IndexType@IUAttributeValueIndex_tag_type_@draco@@@draco@@@1@@Z
	??$?0V?$array@V?$IndexType@IUPointIndex_tag_type_@draco@@@draco@@$02@std@@@?$allocator@U_Container_proxy@std@@@std@@QEAA@AEBV?$allocator@V?$array@V?$IndexType@IUPointIndex_tag_type_@draco@@@draco@@$02@std@@@1@@Z
	??$?0V?$array@V?$IndexType@IUVertexIndex_tag_type_@draco@@@draco@@$02@std@@@?$allocator@U_Container_proxy@std@@@std@@QEAA@AEBV?$allocator@V?$array@V?$IndexType@IUVertexIndex_tag_type_@draco@@@draco@@$02@std@@@1@@Z
	??$?0V?$basic_string@DU?$char_traits@D@std@@V?$allocator@D@2@@std@@@?$allocator@U_Container_proxy@std@@@std@@QEAA@AEBV?$allocator@V?$basic_string@DU?$char_traits@D@std@@V?$allocator@D@2@@std@@@1@@Z
	??$?0V?$basic_string@DU?$char_traits@D@std@@V?$allocator@D@2@@std@@VEntryValue@draco@@$0A@@?$pair@$$CBV?$basic_string@DU?$char_traits@D@std@@V?$allocator@D@2@@std@@VEntryValue@draco@@@std@@QEAA@$$QEAU?$pair@V?$basic_string@DU?$char_traits@D@std@@V?$allocator@D@2@@std@@VEntryValue@draco@@@1@@Z
	??$?0V?$tuple@$$QEAH@std@@V?$tuple@$$V@1@$0A@$$Z$S@?$pair@$$CBHH@std@@QEAA@AEAV?$tuple@$$QEAH@1@AEAV?$tuple@$$V@1@U?$integer_sequence@_K$0A@@1@U?$integer_sequence@_K$S@1@@Z
	??$?0V?$tuple@AEBH@std@@V?$tuple@$$V@1@$0A@$$Z$S@?$pair@$$CBHV?$IndexType@IUCornerIndex_tag_type_@draco@@@draco@@@std@@QEAA@AEAV?$tuple@AEBH@1@AEAV?$tuple@$$V@1@U?$integer_sequence@_K$0A@@1@U?$integer_sequence@_K$S@1@@Z
	??$?0V?$tuple@AEBH@std@@V?$tuple@$$V@1@$0A@$$Z$S@?$pair@$$CBHV?$basic_string@DU?$char_traits@D@std@@V?$allocator@D@2@@std@@@std@@QEAA@AEAV?$tuple@AEBH@1@AEAV?$tuple@$$V@1@U?$integer_sequence@_K$0A@@1@U?$integer_sequence@_K$S@1@@Z
	??$?0V?$tuple@AEBV?$IndexType@IUAttributeValueIndex_tag_type_@draco@@@draco@@@std@@V?$tuple@$$V@1@$0A@$$Z$S@?$pair@$$CBV?$IndexType@IUAttributeValueIndex_tag_type_@draco@@@draco@@V?$IndexType@IUPointIndex_tag_type_@draco@@@2@@std@@QEAA@AEAV?$tuple@AEBV?$IndexType@IUAttributeValueIndex_tag_type_@draco@@@draco@@@1@AEAV?$tuple@$$V@1@U?$integer_sequence@_K$0A@@1@U?$integer_sequence@_K$S@1@@Z
	??$?0V?$tuple@AEBV?$basic_string@DU?$char_traits@D@std@@V?$allocator@D@2@@std@@@std@@V?$tuple@$$V@1@$0A@$$Z$S@?$pair@$$CBV?$basic_string@DU?$char_traits@D@std@@V?$allocator@D@2@@std@@H@std@@QEAA@AEAV?$tuple@AEBV?$basic_string@DU?$char_traits@D@std@@V?$allocator@D@2@@std@@@1@AEAV?$tuple@$$V@1@U?$integer_sequence@_K$0A@@1@U?$integer_sequence@_K$S@1@@Z
	??$?0V?$tuple@AEBV?$basic_string@DU?$char_traits@D@std@@V?$allocator@D@2@@std@@@std@@V?$tuple@$$V@1@$0A@$$Z$S@?$pair@$$CBV?$basic_string@DU?$char_traits@D@std@@V?$allocator@D@2@@std@@V12@@std@@QEAA@AEAV?$tuple@AEBV?$basic_string@DU?$char_traits@D@std@@V?$allocator@D@2@@std@@@1@AEAV?$tuple@$$V@1@U?$integer_sequence@_K$0A@@1@U?$integer_sequence@_K$S@1@@Z
	??$?0V?$tuple@AEBV?$basic_string@DU?$char_traits@D@std@@V?$allocator@D@2@@std@@@std@@V?$tuple@$$V@1@$0A@$$Z$S@?$pair@$$CBV?$basic_string@DU?$char_traits@D@std@@V?$allocator@D@2@@std@@V?$unique_ptr@VMetadata@draco@@U?$default_delete@VMetadata@draco@@@std@@@2@@std@@QEAA@AEAV?$tuple@AEBV?$basic_string@DU?$char_traits@D@std@@V?$allocator@D@2@@std@@@1@AEAV?$tuple@$$V@1@U?$integer_sequence@_K$0A@@1@U?$integer_sequence@_K$S@1@@Z
	??$?0V?$tuple@PEAVPointAttribute@draco@@IW4DataType@2@II@std@@@?$allocator@U_Container_proxy@std@@@std@@QEAA@AEBV?$allocator@V?$tuple@PEAVPointAttribute@draco@@IW4DataType@2@II@std@@@1@@Z
	??$?0V?$unique_ptr@V?$PlyPropertyReader@E@draco@@U?$default_delete@V?$PlyPropertyReader@E@draco@@@std@@@std@@@?$allocator@U_Container_proxy@std@@@std@@QEAA@AEBV?$allocator@V?$unique_ptr@V?$PlyPropertyReader@E@draco@@U?$default_delete@V?$PlyPropertyReader@E@draco@@@std@@@std@@@1@@Z
	??$?0V?$unique_ptr@V?$PlyPropertyReader@H@draco@@U?$default_delete@V?$PlyPropertyReader@H@draco@@@std@@@std@@@?$allocator@U_Container_proxy@std@@@std@@QEAA@AEBV?$allocator@V?$unique_ptr@V?$PlyPropertyReader@H@draco@@U?$default_delete@V?$PlyPropertyReader@H@draco@@@std@@@std@@@1@@Z
	??$?0V?$unique_ptr@V?$PlyPropertyReader@M@draco@@U?$default_delete@V?$PlyPropertyReader@M@draco@@@std@@@std@@@?$allocator@U_Container_proxy@std@@@std@@QEAA@AEBV?$allocator@V?$unique_ptr@V?$PlyPropertyReader@M@draco@@U?$default_delete@V?$PlyPropertyReader@M@draco@@@std@@@std@@@1@@Z
	??$?0V?$unique_ptr@VAttributeMetadata@draco@@U?$default_delete@VAttributeMetadata@draco@@@std@@@std@@@?$allocator@U_Container_proxy@std@@@std@@QEAA@AEBV?$allocator@V?$unique_ptr@VAttributeMetadata@draco@@U?$default_delete@VAttributeMetadata@draco@@@std@@@std@@@1@@Z
	??$?0V?$unique_ptr@VAttributesDecoderInterface@draco@@U?$default_delete@VAttributesDecoderInterface@draco@@@std@@@std@@@?$allocator@U_Container_proxy@std@@@std@@QEAA@AEBV?$allocator@V?$unique_ptr@VAttributesDecoderInterface@draco@@U?$default_delete@VAttributesDecoderInterface@draco@@@std@@@std@@@1@@Z
	??$?0V?$unique_ptr@VAttributesEncoder@draco@@U?$default_delete@VAttributesEncoder@draco@@@std@@@std@@@?$allocator@U_Container_proxy@std@@@std@@QEAA@AEBV?$allocator@V?$unique_ptr@VAttributesEncoder@draco@@U?$default_delete@VAttributesEncoder@draco@@@std@@@std@@@1@@Z
	??$?0V?$unique_ptr@VPointAttribute@draco@@U?$default_delete@VPointAttribute@draco@@@std@@@std@@@?$allocator@U_Container_proxy@std@@@std@@QEAA@AEBV?$allocator@V?$unique_ptr@VPointAttribute@draco@@U?$default_delete@VPointAttribute@draco@@@std@@@std@@@1@@Z
	??$?0V?$unique_ptr@VSequentialAttributeDecoder@draco@@U?$default_delete@VSequentialAttributeDecoder@draco@@@std@@@std@@@?$allocator@U_Container_proxy@std@@@std@@QEAA@AEBV?$allocator@V?$unique_ptr@VSequentialAttributeDecoder@draco@@U?$default_delete@VSequentialAttributeDecoder@draco@@@std@@@std@@@1@@Z
	??$?0V?$unique_ptr@VSequentialAttributeEncoder@draco@@U?$default_delete@VSequentialAttributeEncoder@draco@@@std@@@std@@@?$allocator@U_Container_proxy@std@@@std@@QEAA@AEBV?$allocator@V?$unique_ptr@VSequentialAttributeEncoder@draco@@U?$default_delete@VSequentialAttributeEncoder@draco@@@std@@@std@@@1@@Z
	??$?0V?$vector@IV?$allocator@I@std@@@std@@@?$allocator@U_Container_proxy@std@@@std@@QEAA@AEBV?$allocator@V?$vector@IV?$allocator@I@std@@@std@@@1@@Z
	??$?0VAttributeQuantizationTransform@draco@@@?$allocator@U_Container_proxy@std@@@std@@QEAA@AEBV?$allocator@VAttributeQuantizationTransform@draco@@@1@@Z
	??$?0VAttributesDecoder@draco@@$0A@@?$default_delete@VAttributesDecoderInterface@draco@@@std@@QEAA@AEBU?$default_delete@VAttributesDecoder@draco@@@1@@Z
	??$?0VAttributesDecoder@draco@@U?$default_delete@VAttributesDecoder@draco@@@std@@$0A@@?$unique_ptr@VAttributesDecoderInterface@draco@@U?$default_delete@VAttributesDecoderInterface@draco@@@std@@@std@@QEAA@$$QEAV?$unique_ptr@VAttributesDecoder@draco@@U?$default_delete@VAttributesDecoder@draco@@@std@@@1@@Z
	??$?0VMesh@draco@@$0A@@?$default_delete@VPointCloud@draco@@@std@@QEAA@AEBU?$default_delete@VMesh@draco@@@1@@Z
	??$?0VMesh@draco@@U?$default_delete@VMesh@draco@@@std@@$0A@@?$unique_ptr@VPointCloud@draco@@U?$default_delete@VPointCloud@draco@@@std@@@std@@QEAA@$$QEAV?$unique_ptr@VMesh@draco@@U?$default_delete@VMesh@draco@@@std@@@1@@Z
	??$?0VPlyElement@draco@@@?$allocator@U_Container_proxy@std@@@std@@QEAA@AEBV?$allocator@VPlyElement@draco@@@1@@Z
	??$?0VPlyProperty@draco@@@?$allocator@U_Container_proxy@std@@@std@@QEAA@AEBV?$allocator@VPlyProperty@draco@@@1@@Z
	??$?0VSequentialAttributeDecodersController@draco@@$0A@@?$default_delete@VAttributesDecoderInterface@draco@@@std@@QEAA@AEBU?$default_delete@VSequentialAttributeDecodersController@draco@@@1@@Z
	??$?0VSequentialAttributeDecodersController@draco@@U?$default_delete@VSequentialAttributeDecodersController@draco@@@std@@$0A@@?$unique_ptr@VAttributesDecoderInterface@draco@@U?$default_delete@VAttributesDecoderInterface@draco@@@std@@@std@@QEAA@$$QEAV?$unique_ptr@VSequentialAttributeDecodersController@draco@@U?$default_delete@VSequentialAttributeDecodersController@draco@@@std@@@1@@Z
	??$?0VSequentialAttributeEncodersController@draco@@$0A@@?$default_delete@VAttributesEncoder@draco@@@std@@QEAA@AEBU?$default_delete@VSequentialAttributeEncodersController@draco@@@1@@Z
	??$?0VSequentialAttributeEncodersController@draco@@U?$default_delete@VSequentialAttributeEncodersController@draco@@@std@@$0A@@?$unique_ptr@VAttributesEncoder@draco@@U?$default_delete@VAttributesEncoder@draco@@@std@@@std@@QEAA@$$QEAV?$unique_ptr@VSequentialAttributeEncodersController@draco@@U?$default_delete@VSequentialAttributeEncodersController@draco@@@std@@@1@@Z
	??$?0VSequentialNormalAttributeDecoder@draco@@$0A@@?$default_delete@VSequentialAttributeDecoder@draco@@@std@@QEAA@AEBU?$default_delete@VSequentialNormalAttributeDecoder@draco@@@1@@Z
	??$?0VSequentialNormalAttributeDecoder@draco@@U?$default_delete@VSequentialNormalAttributeDecoder@draco@@@std@@$0A@@?$unique_ptr@VSequentialAttributeDecoder@draco@@U?$default_delete@VSequentialAttributeDecoder@draco@@@std@@@std@@QEAA@$$QEAV?$unique_ptr@VSequentialNormalAttributeDecoder@draco@@U?$default_delete@VSequentialNormalAttributeDecoder@draco@@@std@@@1@@Z
	??$?0VStdioFileWriter@draco@@$0A@@?$default_delete@VFileWriterInterface@draco@@@std@@QEAA@AEBU?$default_delete@VStdioFileWriter@draco@@@1@@Z
	??$?0VStdioFileWriter@draco@@U?$default_delete@VStdioFileWriter@draco@@@std@@$0A@@?$unique_ptr@VFileWriterInterface@draco@@U?$default_delete@VFileWriterInterface@draco@@@std@@@std@@QEAA@$$QEAV?$unique_ptr@VStdioFileWriter@draco@@U?$default_delete@VStdioFileWriter@draco@@@std@@@1@@Z
	??$?0W4DataType@draco@@$0A@@?$tuple@W4DataType@draco@@II@std@@QEAA@XZ
	??$?0W4EdgebreakerTopologyBitPattern@draco@@@?$allocator@U_Container_proxy@std@@@std@@QEAA@AEBV?$allocator@W4EdgebreakerTopologyBitPattern@draco@@@1@@Z
	??$?0W4Type@GeometryAttribute@draco@@VOptions@2@$0A@@?$pair@$$CBW4Type@GeometryAttribute@draco@@VOptions@3@@std@@QEAA@$$QEAU?$pair@W4Type@GeometryAttribute@draco@@VOptions@3@@1@@Z
	??$?0_J$01@?$VectorD@_K$01@draco@@QEAA@AEBV?$VectorD@_J$01@1@@Z
	??$?0_J@?$_Optimistic_temporary_buffer@H@std@@QEAA@_J@Z
	??$?0_J@?$allocator@U_Container_proxy@std@@@std@@QEAA@AEBV?$allocator@_J@1@@Z
	??$?0_K$01@?$VectorD@_J$01@draco@@QEAA@AEBV?$VectorD@_K$01@1@@Z
	??$?0_K@?$allocator@U_Container_proxy@std@@@std@@QEAA@AEBV?$allocator@_K@1@@Z
	??$?0_N@?$allocator@I@std@@QEAA@AEBV?$allocator@_N@1@@Z
	??$?4U?$default_delete@$$BY0A@H@std@@$0A@@?$unique_ptr@$$BY0A@HU?$default_delete@$$BY0A@H@std@@@std@@QEAAAEAV01@$$QEAV01@@Z
	??$?4U?$default_delete@$$BY0A@VRAnsBitDecoder@draco@@@std@@$0A@@?$unique_ptr@$$BY0A@VRAnsBitDecoder@draco@@U?$default_delete@$$BY0A@VRAnsBitDecoder@draco@@@std@@@std@@QEAAAEAV01@$$QEAV01@@Z
	??$?4U?$default_delete@$$BY0A@VRAnsBitEncoder@draco@@@std@@$0A@@?$unique_ptr@$$BY0A@VRAnsBitEncoder@draco@@U?$default_delete@$$BY0A@VRAnsBitEncoder@draco@@@std@@@std@@QEAAAEAV01@$$QEAV01@@Z
	??$?4U?$default_delete@V?$PredictionSchemeTypedDecoderInterface@HH@draco@@@std@@$0A@@?$unique_ptr@V?$PredictionSchemeTypedDecoderInterface@HH@draco@@U?$default_delete@V?$PredictionSchemeTypedDecoderInterface@HH@draco@@@std@@@std@@QEAAAEAV01@$$QEAV01@@Z
	??$?4U?$default_delete@V?$PredictionSchemeTypedEncoderInterface@HH@draco@@@std@@$0A@@?$unique_ptr@V?$PredictionSchemeTypedEncoderInterface@HH@draco@@U?$default_delete@V?$PredictionSchemeTypedEncoderInterface@HH@draco@@@std@@@std@@QEAAAEAV01@$$QEAV01@@Z
	??$?4U?$default_delete@VAttributeMetadata@draco@@@std@@$0A@@?$unique_ptr@VAttributeMetadata@draco@@U?$default_delete@VAttributeMetadata@draco@@@std@@@std@@QEAAAEAV01@$$QEAV01@@Z
	??$?4U?$default_delete@VAttributeTransformData@draco@@@std@@$0A@@?$unique_ptr@VAttributeTransformData@draco@@U?$default_delete@VAttributeTransformData@draco@@@std@@@std@@QEAAAEAV01@$$QEAV01@@Z
	??$?4U?$default_delete@VAttributesDecoderInterface@draco@@@std@@$0A@@?$unique_ptr@VAttributesDecoderInterface@draco@@U?$default_delete@VAttributesDecoderInterface@draco@@@std@@@std@@QEAAAEAV01@$$QEAV01@@Z
	??$?4U?$default_delete@VBitEncoder@EncoderBuffer@draco@@@std@@$0A@@?$unique_ptr@VBitEncoder@EncoderBuffer@draco@@U?$default_delete@VBitEncoder@EncoderBuffer@draco@@@std@@@std@@QEAAAEAV01@$$QEAV01@@Z
	??$?4U?$default_delete@VCornerTable@draco@@@std@@$0A@@?$unique_ptr@VCornerTable@draco@@U?$default_delete@VCornerTable@draco@@@std@@@std@@QEAAAEAV01@$$QEAV01@@Z
	??$?4U?$default_delete@VDataBuffer@draco@@@std@@$0A@@?$unique_ptr@VDataBuffer@draco@@U?$default_delete@VDataBuffer@draco@@@std@@@std@@QEAAAEAV01@$$QEAV01@@Z
	??$?4U?$default_delete@VGeometryMetadata@draco@@@std@@$0A@@?$unique_ptr@VGeometryMetadata@draco@@U?$default_delete@VGeometryMetadata@draco@@@std@@@std@@QEAAAEAV01@$$QEAV01@@Z
	??$?4U?$default_delete@VMesh@draco@@@std@@$0A@@?$unique_ptr@VMesh@draco@@U?$default_delete@VMesh@draco@@@std@@@std@@QEAAAEAV01@$$QEAV01@@Z
	??$?4U?$default_delete@VMeshEdgebreakerDecoderImplInterface@draco@@@std@@$0A@@?$unique_ptr@VMeshEdgebreakerDecoderImplInterface@draco@@U?$default_delete@VMeshEdgebreakerDecoderImplInterface@draco@@@std@@@std@@QEAAAEAV01@$$QEAV01@@Z
	??$?4U?$default_delete@VMeshEdgebreakerEncoderImplInterface@draco@@@std@@$0A@@?$unique_ptr@VMeshEdgebreakerEncoderImplInterface@draco@@U?$default_delete@VMeshEdgebreakerEncoderImplInterface@draco@@@std@@@std@@QEAAAEAV01@$$QEAV01@@Z
	??$?4U?$default_delete@VMeshEncoder@draco@@@std@@$0A@@?$unique_ptr@VMeshEncoder@draco@@U?$default_delete@VMeshEncoder@draco@@@std@@@std@@QEAAAEAV01@$$QEAV01@@Z
	??$?4U?$default_delete@VMetadata@draco@@@std@@$0A@@?$unique_ptr@VMetadata@draco@@U?$default_delete@VMetadata@draco@@@std@@@std@@QEAAAEAV01@$$QEAV01@@Z
	??$?4U?$default_delete@VPointAttribute@draco@@@std@@$0A@@?$unique_ptr@VPointAttribute@draco@@U?$default_delete@VPointAttribute@draco@@@std@@@std@@QEAAAEAV01@$$QEAV01@@Z
	??$?4U?$default_delete@VPointCloud@draco@@@std@@$0A@@?$unique_ptr@VPointCloud@draco@@U?$default_delete@VPointCloud@draco@@@std@@@std@@QEAAAEAV01@$$QEAV01@@Z
	??$?4U?$default_delete@VPointsSequencer@draco@@@std@@$0A@@?$unique_ptr@VPointsSequencer@draco@@U?$default_delete@VPointsSequencer@draco@@@std@@@std@@QEAAAEAV01@$$QEAV01@@Z
	??$?4U?$default_delete@VSequentialAttributeDecoder@draco@@@std@@$0A@@?$unique_ptr@VSequentialAttributeDecoder@draco@@U?$default_delete@VSequentialAttributeDecoder@draco@@@std@@@std@@QEAAAEAV01@$$QEAV01@@Z
	??$?4U?$default_delete@VSequentialAttributeEncoder@draco@@@std@@$0A@@?$unique_ptr@VSequentialAttributeEncoder@draco@@U?$default_delete@VSequentialAttributeEncoder@draco@@@std@@@std@@QEAAAEAV01@$$QEAV01@@Z
	??$?4V<lambda_07c71a731cdd852924c8b03369e08e45>@@$0A@@?$function@$$A6AEH@Z@std@@QEAAAEAV01@$$QEAV<lambda_07c71a731cdd852924c8b03369e08e45>@@@Z
	??$?4V<lambda_1182dc3d17cc3d42d0fa121687ca398f>@@$0A@@?$function@$$A6AHH@Z@std@@QEAAAEAV01@$$QEAV<lambda_1182dc3d17cc3d42d0fa121687ca398f>@@@Z
	??$?4V<lambda_1afa04f1fbcac3f0220197bc7dc56e5c>@@$0A@@?$function@$$A6AHH@Z@std@@QEAAAEAV01@$$QEAV<lambda_1afa04f1fbcac3f0220197bc7dc56e5c>@@@Z
	??$?4V<lambda_1fa42df75aa3f091931d838c6b29bf14>@@$0A@@?$function@$$A6AXN@Z@std@@QEAAAEAV01@$$QEAV<lambda_1fa42df75aa3f091931d838c6b29bf14>@@@Z
	??$?4V<lambda_22809532bb019f0daf6e1a3d5953fdfe>@@$0A@@?$function@$$A6AHH@Z@std@@QEAAAEAV01@$$QEAV<lambda_22809532bb019f0daf6e1a3d5953fdfe>@@@Z
	??$?4V<lambda_2bdf57fc14ce3d1ee3d482d37e265481>@@$0A@@?$function@$$A6AHH@Z@std@@QEAAAEAV01@$$QEAV<lambda_2bdf57fc14ce3d1ee3d482d37e265481>@@@Z
	??$?4V<lambda_2fd5011b05d897d5926948a12d966e62>@@$0A@@?$function@$$A6AIH@Z@std@@QEAAAEAV01@$$QEAV<lambda_2fd5011b05d897d5926948a12d966e62>@@@Z
	??$?4V<lambda_30061e8242f4cac9beafded9d6029eb3>@@$0A@@?$function@$$A6AEH@Z@std@@QEAAAEAV01@$$QEAV<lambda_30061e8242f4cac9beafded9d6029eb3>@@@Z
	??$?4V<lambda_33ae79e5c291bdedd0f51cabd2dfcd81>@@$0A@@?$function@$$A6AEH@Z@std@@QEAAAEAV01@$$QEAV<lambda_33ae79e5c291bdedd0f51cabd2dfcd81>@@@Z
	??$?4V<lambda_35fdaef33dcdabfd718789213dcbe077>@@$0A@@?$function@$$A6AEH@Z@std@@QEAAAEAV01@$$QEAV<lambda_35fdaef33dcdabfd718789213dcbe077>@@@Z
	??$?4V<lambda_3625be2549de29136342b6a0f47e0f94>@@$0A@@?$function@$$A6AIH@Z@std@@QEAAAEAV01@$$QEAV<lambda_3625be2549de29136342b6a0f47e0f94>@@@Z
	??$?4V<lambda_37ee8f263b4b300875f9c1a27d8bc1b7>@@$0A@@?$function@$$A6AEH@Z@std@@QEAAAEAV01@$$QEAV<lambda_37ee8f263b4b300875f9c1a27d8bc1b7>@@@Z
	??$?4V<lambda_3846f1b54e820bbe9d9c8e168f510c30>@@$0A@@?$function@$$A6AMH@Z@std@@QEAAAEAV01@$$QEAV<lambda_3846f1b54e820bbe9d9c8e168f510c30>@@@Z
	??$?4V<lambda_3ed9ecede0e2bd13072bb2eaa493856c>@@$0A@@?$function@$$A6AIH@Z@std@@QEAAAEAV01@$$QEAV<lambda_3ed9ecede0e2bd13072bb2eaa493856c>@@@Z
	??$?4V<lambda_46065660533fdd3e1d22f26ab5e7717a>@@$0A@@?$function@$$A6AMH@Z@std@@QEAAAEAV01@$$QEAV<lambda_46065660533fdd3e1d22f26ab5e7717a>@@@Z
	??$?4V<lambda_4668feae5e111d3fb1dac64215a23b38>@@$0A@@?$function@$$A6AMH@Z@std@@QEAAAEAV01@$$QEAV<lambda_4668feae5e111d3fb1dac64215a23b38>@@@Z
	??$?4V<lambda_48cab4f9c41cfbb86e6ac601d995a377>@@$0A@@?$function@$$A6AIH@Z@std@@QEAAAEAV01@$$QEAV<lambda_48cab4f9c41cfbb86e6ac601d995a377>@@@Z
	??$?4V<lambda_5115edcd92ffe93e8c764d8bd07fe511>@@$0A@@?$function@$$A6AXN@Z@std@@QEAAAEAV01@$$QEAV<lambda_5115edcd92ffe93e8c764d8bd07fe511>@@@Z
	??$?4V<lambda_5aad107e1021c5cb0dab2355ffad4f11>@@$0A@@?$function@$$A6AXN@Z@std@@QEAAAEAV01@$$QEAV<lambda_5aad107e1021c5cb0dab2355ffad4f11>@@@Z
	??$?4V<lambda_759ea76bbcc6dab599e99f646e253eec>@@$0A@@?$function@$$A6AEH@Z@std@@QEAAAEAV01@$$QEAV<lambda_759ea76bbcc6dab599e99f646e253eec>@@@Z
	??$?4V<lambda_77b724ce3ffa2576d983c349b41d8769>@@$0A@@?$function@$$A6AEH@Z@std@@QEAAAEAV01@$$QEAV<lambda_77b724ce3ffa2576d983c349b41d8769>@@@Z
	??$?4V<lambda_80812d815ceca467341606308b248d82>@@$0A@@?$function@$$A6AIH@Z@std@@QEAAAEAV01@$$QEAV<lambda_80812d815ceca467341606308b248d82>@@@Z
	??$?4V<lambda_86b608a84de436eb259f5506c600e5a7>@@$0A@@?$function@$$A6AXN@Z@std@@QEAAAEAV01@$$QEAV<lambda_86b608a84de436eb259f5506c600e5a7>@@@Z
	??$?4V<lambda_a2748b89a44b5f04cf00c20c2b12ef9f>@@$0A@@?$function@$$A6AHH@Z@std@@QEAAAEAV01@$$QEAV<lambda_a2748b89a44b5f04cf00c20c2b12ef9f>@@@Z
	??$?4V<lambda_a41f49bf9c3387872c379e715d9fa2a7>@@$0A@@?$function@$$A6AXN@Z@std@@QEAAAEAV01@$$QEAV<lambda_a41f49bf9c3387872c379e715d9fa2a7>@@@Z
	??$?4V<lambda_ad1ad2033536d5afe7481e140343dd0e>@@$0A@@?$function@$$A6AIH@Z@std@@QEAAAEAV01@$$QEAV<lambda_ad1ad2033536d5afe7481e140343dd0e>@@@Z
	??$?4V<lambda_b25d6381cf6527ae37a914fecce16155>@@$0A@@?$function@$$A6AIH@Z@std@@QEAAAEAV01@$$QEAV<lambda_b25d6381cf6527ae37a914fecce16155>@@@Z
	??$?4V<lambda_c9a6258327fe4c27aef484a179309302>@@$0A@@?$function@$$A6AXN@Z@std@@QEAAAEAV01@$$QEAV<lambda_c9a6258327fe4c27aef484a179309302>@@@Z
	??$?4V<lambda_cc918ab4bf9f883e7aa788f0840d79eb>@@$0A@@?$function@$$A6AIH@Z@std@@QEAAAEAV01@$$QEAV<lambda_cc918ab4bf9f883e7aa788f0840d79eb>@@@Z
	??$?4V<lambda_d6b799d58678271dfd01570f177cbfef>@@$0A@@?$function@$$A6AEH@Z@std@@QEAAAEAV01@$$QEAV<lambda_d6b799d58678271dfd01570f177cbfef>@@@Z
	??$?4V<lambda_dd2dd9b3d707913969cb4c37b4af3c84>@@$0A@@?$function@$$A6AMH@Z@std@@QEAAAEAV01@$$QEAV<lambda_dd2dd9b3d707913969cb4c37b4af3c84>@@@Z
	??$?4V<lambda_e18d89c2faad06f10447820cd6771af8>@@$0A@@?$function@$$A6AHH@Z@std@@QEAAAEAV01@$$QEAV<lambda_e18d89c2faad06f10447820cd6771af8>@@@Z
	??$?4V<lambda_e24b4efda77a160baf50d70af9d2ff0d>@@$0A@@?$function@$$A6AMH@Z@std@@QEAAAEAV01@$$QEAV<lambda_e24b4efda77a160baf50d70af9d2ff0d>@@@Z
	??$?4V<lambda_f17412dd2526a2a667a103262ec446e7>@@$0A@@?$function@$$A6AMH@Z@std@@QEAAAEAV01@$$QEAV<lambda_f17412dd2526a2a667a103262ec446e7>@@@Z
	??$?4V<lambda_f900a08328ddbf3bb2ed4ffc647ad76b>@@$0A@@?$function@$$A6AXN@Z@std@@QEAAAEAV01@$$QEAV<lambda_f900a08328ddbf3bb2ed4ffc647ad76b>@@@Z
	??$?4V<lambda_f961c1a86b69bc1700502596fbde0b9e>@@$0A@@?$function@$$A6AMH@Z@std@@QEAAAEAV01@$$QEAV<lambda_f961c1a86b69bc1700502596fbde0b9e>@@@Z
	??$?4V<lambda_fbd46683e75ea7f41ee138a020a867bb>@@$0A@@?$function@$$A6AMH@Z@std@@QEAAAEAV01@$$QEAV<lambda_fbd46683e75ea7f41ee138a020a867bb>@@@Z
	??$?4V<lambda_fdb58fdca8c0f635ac95f3788f364eb9>@@$0A@@?$function@$$A6AXN@Z@std@@QEAAAEAV01@$$QEAV<lambda_fdb58fdca8c0f635ac95f3788f364eb9>@@@Z
	??$?4V<lambda_fde3d6b9ca0523f6d49e8eb5e1c4ba53>@@$0A@@?$function@$$A6AHH@Z@std@@QEAAAEAV01@$$QEAV<lambda_fde3d6b9ca0523f6d49e8eb5e1c4ba53>@@@Z
	??$?4V<lambda_ffff1cfe3e31e0319bc66d6bdc76e93b>@@$0A@@?$function@$$A6AHH@Z@std@@QEAAAEAV01@$$QEAV<lambda_ffff1cfe3e31e0319bc66d6bdc76e93b>@@@Z
	??$?4V?$MeshTraversalSequencer@V?$DepthFirstTraverser@VMeshAttributeCornerTable@draco@@V?$MeshAttributeIndicesEncodingObserver@VMeshAttributeCornerTable@draco@@@2@@draco@@@draco@@U?$default_delete@V?$MeshTraversalSequencer@V?$DepthFirstTraverser@VMeshAttributeCornerTable@draco@@V?$MeshAttributeIndicesEncodingObserver@VMeshAttributeCornerTable@draco@@@2@@draco@@@draco@@@std@@$0A@@?$unique_ptr@VPointsSequencer@draco@@U?$default_delete@VPointsSequencer@draco@@@std@@@std@@QEAAAEAV01@$$QEAV?$unique_ptr@V?$MeshTraversalSequencer@V?$DepthFirstTraverser@VMeshAttributeCornerTable@draco@@V?$MeshAttributeIndicesEncodingObserver@VMeshAttributeCornerTable@draco@@@2@@draco@@@draco@@U?$default_delete@V?$MeshTraversalSequencer@V?$DepthFirstTraverser@VMeshAttributeCornerTable@draco@@V?$MeshAttributeIndicesEncodingObserver@VMeshAttributeCornerTable@draco@@@2@@draco@@@draco@@@std@@@1@@Z
	??$?4V?$tuple@I@std@@I$0A@@?$tuple@I@std@@QEAAAEAV01@$$QEAV01@@Z
	??$?4V?$tuple@II@std@@I$0A@@?$tuple@II@std@@QEAAAEAV01@$$QEAV01@@Z
	??$?4V?$tuple@IW4DataType@draco@@II@std@@I$0A@@?$tuple@IW4DataType@draco@@II@std@@QEAAAEAV01@$$QEAV01@@Z
	??$?4V?$tuple@PEAVPointAttribute@draco@@IW4DataType@2@II@std@@PEAVPointAttribute@draco@@$0A@@?$tuple@PEAVPointAttribute@draco@@IW4DataType@2@II@std@@QEAAAEAV01@$$QEAV01@@Z
	??$?4V?$tuple@W4DataType@draco@@II@std@@W4DataType@draco@@$0A@@?$tuple@W4DataType@draco@@II@std@@QEAAAEAV01@$$QEAV01@@Z
	??$?6DU?$char_traits@D@std@@@std@@YAAEAV?$basic_ostream@DU?$char_traits@D@std@@@0@AEAV10@AEBU?$_Smanip@_J@0@@Z
	??$?6U?$char_traits@D@std@@@std@@YAAEAV?$basic_ostream@DU?$char_traits@D@std@@@0@AEAV10@PEBD@Z
	??$?8$$BY0A@VRAnsBitEncoder@draco@@U?$default_delete@$$BY0A@VRAnsBitEncoder@draco@@@std@@@std@@YA_NAEBV?$unique_ptr@$$BY0A@VRAnsBitEncoder@draco@@U?$default_delete@$$BY0A@VRAnsBitEncoder@draco@@@std@@@0@$$T@Z
	??$?8CC@std@@YA_NAEBV?$allocator@C@0@0@Z
	??$?8DU?$char_traits@D@std@@V?$allocator@D@1@@std@@YA_NAEBV?$basic_string@DU?$char_traits@D@std@@V?$allocator@D@2@@0@0@Z
	??$?8DU?$char_traits@D@std@@V?$allocator@D@1@@std@@YA_NAEBV?$basic_string@DU?$char_traits@D@std@@V?$allocator@D@2@@0@QEBD@Z
	??$?8E$00@std@@YA_NAEBV?$array@E$00@0@0@Z
	??$?8E$01@std@@YA_NAEBV?$array@E$01@0@0@Z
	??$?8E$02@std@@YA_NAEBV?$array@E$02@0@0@Z
	??$?8E$03@std@@YA_NAEBV?$array@E$03@0@0@Z
	??$?8G$00@std@@YA_NAEBV?$array@G$00@0@0@Z
	??$?8G$01@std@@YA_NAEBV?$array@G$01@0@0@Z
	??$?8G$02@std@@YA_NAEBV?$array@G$02@0@0@Z
	??$?8G$03@std@@YA_NAEBV?$array@G$03@0@0@Z
	??$?8HH@std@@YA_NAEBV?$allocator@H@0@0@Z
	??$?8I$00@std@@YA_NAEBV?$array@I$00@0@0@Z
	??$?8I$01@std@@YA_NAEBV?$array@I$01@0@0@Z
	??$?8I$02@std@@YA_NAEBV?$array@I$02@0@0@Z
	??$?8I$03@std@@YA_NAEBV?$array@I$03@0@0@Z
	??$?8V?$PredictionSchemeTypedDecoderInterface@HH@draco@@U?$default_delete@V?$PredictionSchemeTypedDecoderInterface@HH@draco@@@std@@@std@@YA_NAEBV?$unique_ptr@V?$PredictionSchemeTypedDecoderInterface@HH@draco@@U?$default_delete@V?$PredictionSchemeTypedDecoderInterface@HH@draco@@@std@@@0@$$T@Z
	??$?8V?$PredictionSchemeTypedEncoderInterface@HH@draco@@U?$default_delete@V?$PredictionSchemeTypedEncoderInterface@HH@draco@@@std@@@std@@YA_NAEBV?$unique_ptr@V?$PredictionSchemeTypedEncoderInterface@HH@draco@@U?$default_delete@V?$PredictionSchemeTypedEncoderInterface@HH@draco@@@std@@@0@$$T@Z
	??$?8VCornerTable@draco@@U?$default_delete@VCornerTable@draco@@@std@@@std@@YA_NAEBV?$unique_ptr@VCornerTable@draco@@U?$default_delete@VCornerTable@draco@@@std@@@0@$$T@Z
	??$?8VDataBuffer@draco@@U?$default_delete@VDataBuffer@draco@@@std@@@std@@YA_NAEBV?$unique_ptr@VDataBuffer@draco@@U?$default_delete@VDataBuffer@draco@@@std@@@0@$$T@Z
	??$?8VFileReaderInterface@draco@@U?$default_delete@VFileReaderInterface@draco@@@std@@@std@@YA_NAEBV?$unique_ptr@VFileReaderInterface@draco@@U?$default_delete@VFileReaderInterface@draco@@@std@@@0@$$T@Z
	??$?8VFileWriterInterface@draco@@U?$default_delete@VFileWriterInterface@draco@@@std@@@std@@YA_NAEBV?$unique_ptr@VFileWriterInterface@draco@@U?$default_delete@VFileWriterInterface@draco@@@std@@@0@$$T@Z
	??$?8VMesh@draco@@U?$default_delete@VMesh@draco@@@std@@@std@@YA_NAEBV?$unique_ptr@VMesh@draco@@U?$default_delete@VMesh@draco@@@std@@@0@$$T@Z
	??$?8VPointAttribute@draco@@U?$default_delete@VPointAttribute@draco@@@std@@@std@@YA_NAEBV?$unique_ptr@VPointAttribute@draco@@U?$default_delete@VPointAttribute@draco@@@std@@@0@$$T@Z
	??$?8VSequentialAttributeEncoder@draco@@U?$default_delete@VSequentialAttributeEncoder@draco@@@std@@@std@@YA_NAEBV?$unique_ptr@VSequentialAttributeEncoder@draco@@U?$default_delete@VSequentialAttributeEncoder@draco@@@std@@@0@$$T@Z
	??$?8VStdioFileWriter@draco@@U?$default_delete@VStdioFileWriter@draco@@@std@@@std@@YA_NAEBV?$unique_ptr@VStdioFileWriter@draco@@U?$default_delete@VStdioFileWriter@draco@@@std@@@0@$$T@Z
	??$?9$$BY0A@VRAnsBitEncoder@draco@@U?$default_delete@$$BY0A@VRAnsBitEncoder@draco@@@std@@@std@@YA_NAEBV?$unique_ptr@$$BY0A@VRAnsBitEncoder@draco@@U?$default_delete@$$BY0A@VRAnsBitEncoder@draco@@@std@@@0@$$T@Z
	??$?9DU?$char_traits@D@std@@V?$allocator@D@1@@std@@YA_NAEBV?$basic_string@DU?$char_traits@D@std@@V?$allocator@D@2@@0@QEBD@Z
	??$?9V?$_Vb_iterator@U?$_Wrap_alloc@V?$allocator@I@std@@@std@@@std@@V01@@std@@YA_NAEBV?$reverse_iterator@V?$_Vb_iterator@U?$_Wrap_alloc@V?$allocator@I@std@@@std@@@std@@@0@0@Z
	??$?9V?$_Vector_iterator@V?$_Vector_val@U?$_Simple_types@I@std@@@std@@@std@@V01@@std@@YA_NAEBV?$reverse_iterator@V?$_Vector_iterator@V?$_Vector_val@U?$_Simple_types@I@std@@@std@@@std@@@0@0@Z
	??$?9VPointAttribute@draco@@U?$default_delete@VPointAttribute@draco@@@std@@@std@@YA_NAEBV?$unique_ptr@VPointAttribute@draco@@U?$default_delete@VPointAttribute@draco@@@std@@@0@$$T@Z
	??$?D_J$01@draco@@YA?AV?$VectorD@_J$01@0@AEB_JAEBV10@@Z
	??$?D_J$02@draco@@YA?AV?$VectorD@_J$02@0@AEB_JAEBV10@@Z
	??$?HDU?$char_traits@D@std@@V?$allocator@D@1@@std@@YA?AV?$basic_string@DU?$char_traits@D@std@@V?$allocator@D@2@@0@$$QEAV10@AEBV10@@Z
	??$?HDU?$char_traits@D@std@@V?$allocator@D@1@@std@@YA?AV?$basic_string@DU?$char_traits@D@std@@V?$allocator@D@2@@0@AEBV10@QEBD@Z
	??$?MDU?$char_traits@D@std@@V?$allocator@D@1@@std@@YA_NAEBV?$basic_string@DU?$char_traits@D@std@@V?$allocator@D@2@@0@0@Z
	??$?RAEAV?$VectorD@M$02@draco@@AEAV01@@?$less@X@std@@QEBA_NAEAV?$VectorD@M$02@draco@@0@Z
	??$?RAEA_NAEA_N@?$less@X@std@@QEBA_NAEA_N0@Z
	??$?RAEBEAEBE@?$equal_to@X@std@@QEBA_NAEBE0@Z
	??$?RAEBGAEBG@?$equal_to@X@std@@QEBA_NAEBG0@Z
	??$?RAEBIAEBI@?$equal_to@X@std@@QEBA_NAEBI0@Z
	??$?RC$0A@@?$default_delete@$$BY0A@C@std@@QEBAXPEAC@Z
	??$?RE$0A@@?$default_delete@$$BY0A@E@std@@QEBAXPEAE@Z
	??$?RF$0A@@?$default_delete@$$BY0A@F@std@@QEBAXPEAF@Z
	??$?RG$0A@@?$default_delete@$$BY0A@G@std@@QEBAXPEAG@Z
	??$?RH$0A@@?$default_delete@$$BY0A@H@std@@QEBAXPEAH@Z
	??$?RH@?$_Uhash_compare@HU?$hash@H@std@@U?$equal_to@H@2@@std@@QEBA_KAEBH@Z
	??$?RHH@?$_Uhash_compare@HU?$hash@H@std@@U?$equal_to@H@2@@std@@QEBA_NAEBH0@Z
	??$?RI$0A@@?$default_delete@$$BY0A@I@std@@QEBAXPEAI@Z
	??$?RM$0A@@?$default_delete@$$BY0A@M@std@@QEBAXPEAM@Z
	??$?RV?$PredictionSchemeNormalOctahedronCanonicalizedDecodingTransform@H@draco@@V?$MeshPredictionSchemeData@VCornerTable@draco@@@1@@?$MeshPredictionSchemeDecoderFactory@H@draco@@QEAA?AV?$unique_ptr@V?$PredictionSchemeDecoder@HV?$PredictionSchemeNormalOctahedronCanonicalizedDecodingTransform@H@draco@@@draco@@U?$default_delete@V?$PredictionSchemeDecoder@HV?$PredictionSchemeNormalOctahedronCanonicalizedDecodingTransform@H@draco@@@draco@@@std@@@std@@W4PredictionSchemeMethod@1@PEBVPointAttribute@1@AEBV?$PredictionSchemeNormalOctahedronCanonicalizedDecodingTransform@H@1@AEBV?$MeshPredictionSchemeData@VCornerTable@draco@@@1@G@Z
	??$?RV?$PredictionSchemeNormalOctahedronCanonicalizedDecodingTransform@H@draco@@V?$MeshPredictionSchemeData@VMeshAttributeCornerTable@draco@@@1@@?$MeshPredictionSchemeDecoderFactory@H@draco@@QEAA?AV?$unique_ptr@V?$PredictionSchemeDecoder@HV?$PredictionSchemeNormalOctahedronCanonicalizedDecodingTransform@H@draco@@@draco@@U?$default_delete@V?$PredictionSchemeDecoder@HV?$PredictionSchemeNormalOctahedronCanonicalizedDecodingTransform@H@draco@@@draco@@@std@@@std@@W4PredictionSchemeMethod@1@PEBVPointAttribute@1@AEBV?$PredictionSchemeNormalOctahedronCanonicalizedDecodingTransform@H@1@AEBV?$MeshPredictionSchemeData@VMeshAttributeCornerTable@draco@@@1@G@Z
	??$?RV?$PredictionSchemeNormalOctahedronCanonicalizedEncodingTransform@H@draco@@V?$MeshPredictionSchemeData@VCornerTable@draco@@@1@@?$MeshPredictionSchemeEncoderFactory@H@draco@@QEAA?AV?$unique_ptr@V?$PredictionSchemeEncoder@HV?$PredictionSchemeNormalOctahedronCanonicalizedEncodingTransform@H@draco@@@draco@@U?$default_delete@V?$PredictionSchemeEncoder@HV?$PredictionSchemeNormalOctahedronCanonicalizedEncodingTransform@H@draco@@@draco@@@std@@@std@@W4PredictionSchemeMethod@1@PEBVPointAttribute@1@AEBV?$PredictionSchemeNormalOctahedronCanonicalizedEncodingTransform@H@1@AEBV?$MeshPredictionSchemeData@VCornerTable@draco@@@1@G@Z
	??$?RV?$PredictionSchemeNormalOctahedronCanonicalizedEncodingTransform@H@draco@@V?$MeshPredictionSchemeData@VMeshAttributeCornerTable@draco@@@1@@?$MeshPredictionSchemeEncoderFactory@H@draco@@QEAA?AV?$unique_ptr@V?$PredictionSchemeEncoder@HV?$PredictionSchemeNormalOctahedronCanonicalizedEncodingTransform@H@draco@@@draco@@U?$default_delete@V?$PredictionSchemeEncoder@HV?$PredictionSchemeNormalOctahedronCanonicalizedEncodingTransform@H@draco@@@draco@@@std@@@std@@W4PredictionSchemeMethod@1@PEBVPointAttribute@1@AEBV?$PredictionSchemeNormalOctahedronCanonicalizedEncodingTransform@H@1@AEBV?$MeshPredictionSchemeData@VMeshAttributeCornerTable@draco@@@1@G@Z
	??$?RV?$PredictionSchemeNormalOctahedronDecodingTransform@H@draco@@V?$MeshPredictionSchemeData@VCornerTable@draco@@@1@@?$MeshPredictionSchemeDecoderFactory@H@draco@@QEAA?AV?$unique_ptr@V?$PredictionSchemeDecoder@HV?$PredictionSchemeNormalOctahedronDecodingTransform@H@draco@@@draco@@U?$default_delete@V?$PredictionSchemeDecoder@HV?$PredictionSchemeNormalOctahedronDecodingTransform@H@draco@@@draco@@@std@@@std@@W4PredictionSchemeMethod@1@PEBVPointAttribute@1@AEBV?$PredictionSchemeNormalOctahedronDecodingTransform@H@1@AEBV?$MeshPredictionSchemeData@VCornerTable@draco@@@1@G@Z
	??$?RV?$PredictionSchemeNormalOctahedronDecodingTransform@H@draco@@V?$MeshPredictionSchemeData@VMeshAttributeCornerTable@draco@@@1@@?$MeshPredictionSchemeDecoderFactory@H@draco@@QEAA?AV?$unique_ptr@V?$PredictionSchemeDecoder@HV?$PredictionSchemeNormalOctahedronDecodingTransform@H@draco@@@draco@@U?$default_delete@V?$PredictionSchemeDecoder@HV?$PredictionSchemeNormalOctahedronDecodingTransform@H@draco@@@draco@@@std@@@std@@W4PredictionSchemeMethod@1@PEBVPointAttribute@1@AEBV?$PredictionSchemeNormalOctahedronDecodingTransform@H@1@AEBV?$MeshPredictionSchemeData@VMeshAttributeCornerTable@draco@@@1@G@Z
	??$?RV?$PredictionSchemeWrapDecodingTransform@HH@draco@@V?$MeshPredictionSchemeData@VCornerTable@draco@@@1@@?$MeshPredictionSchemeDecoderFactory@H@draco@@QEAA?AV?$unique_ptr@V?$PredictionSchemeDecoder@HV?$PredictionSchemeWrapDecodingTransform@HH@draco@@@draco@@U?$default_delete@V?$PredictionSchemeDecoder@HV?$PredictionSchemeWrapDecodingTransform@HH@draco@@@draco@@@std@@@std@@W4PredictionSchemeMethod@1@PEBVPointAttribute@1@AEBV?$PredictionSchemeWrapDecodingTransform@HH@1@AEBV?$MeshPredictionSchemeData@VCornerTable@draco@@@1@G@Z
	??$?RV?$PredictionSchemeWrapDecodingTransform@HH@draco@@V?$MeshPredictionSchemeData@VMeshAttributeCornerTable@draco@@@1@@?$MeshPredictionSchemeDecoderFactory@H@draco@@QEAA?AV?$unique_ptr@V?$PredictionSchemeDecoder@HV?$PredictionSchemeWrapDecodingTransform@HH@draco@@@draco@@U?$default_delete@V?$PredictionSchemeDecoder@HV?$PredictionSchemeWrapDecodingTransform@HH@draco@@@draco@@@std@@@std@@W4PredictionSchemeMethod@1@PEBVPointAttribute@1@AEBV?$PredictionSchemeWrapDecodingTransform@HH@1@AEBV?$MeshPredictionSchemeData@VMeshAttributeCornerTable@draco@@@1@G@Z
	??$?RV?$PredictionSchemeWrapEncodingTransform@HH@draco@@V?$MeshPredictionSchemeData@VCornerTable@draco@@@1@@?$MeshPredictionSchemeEncoderFactory@H@draco@@QEAA?AV?$unique_ptr@V?$PredictionSchemeEncoder@HV?$PredictionSchemeWrapEncodingTransform@HH@draco@@@draco@@U?$default_delete@V?$PredictionSchemeEncoder@HV?$PredictionSchemeWrapEncodingTransform@HH@draco@@@draco@@@std@@@std@@W4PredictionSchemeMethod@1@PEBVPointAttribute@1@AEBV?$PredictionSchemeWrapEncodingTransform@HH@1@AEBV?$MeshPredictionSchemeData@VCornerTable@draco@@@1@G@Z
	??$?RV?$PredictionSchemeWrapEncodingTransform@HH@draco@@V?$MeshPredictionSchemeData@VMeshAttributeCornerTable@draco@@@1@@?$MeshPredictionSchemeEncoderFactory@H@draco@@QEAA?AV?$unique_ptr@V?$PredictionSchemeEncoder@HV?$PredictionSchemeWrapEncodingTransform@HH@draco@@@draco@@U?$default_delete@V?$PredictionSchemeEncoder@HV?$PredictionSchemeWrapEncodingTransform@HH@draco@@@draco@@@std@@@std@@W4PredictionSchemeMethod@1@PEBVPointAttribute@1@AEBV?$PredictionSchemeWrapEncodingTransform@HH@1@AEBV?$MeshPredictionSchemeData@VMeshAttributeCornerTable@draco@@@1@G@Z
	??$?RV?$PseudoPointD@I@draco@@@Splitter@?$DynamicIntegerPointsKdTreeEncoder@$00@draco@@QEBA_NAEBV?$PseudoPointD@I@2@@Z
	??$?RV?$PseudoPointD@I@draco@@@Splitter@?$DynamicIntegerPointsKdTreeEncoder@$01@draco@@QEBA_NAEBV?$PseudoPointD@I@2@@Z
	??$?RV?$PseudoPointD@I@draco@@@Splitter@?$DynamicIntegerPointsKdTreeEncoder@$02@draco@@QEBA_NAEBV?$PseudoPointD@I@2@@Z
	??$?RV?$PseudoPointD@I@draco@@@Splitter@?$DynamicIntegerPointsKdTreeEncoder@$03@draco@@QEBA_NAEBV?$PseudoPointD@I@2@@Z
	??$?RV?$PseudoPointD@I@draco@@@Splitter@?$DynamicIntegerPointsKdTreeEncoder@$04@draco@@QEBA_NAEBV?$PseudoPointD@I@2@@Z
	??$?RV?$PseudoPointD@I@draco@@@Splitter@?$DynamicIntegerPointsKdTreeEncoder@$05@draco@@QEBA_NAEBV?$PseudoPointD@I@2@@Z
	??$?RV?$PseudoPointD@I@draco@@@Splitter@?$DynamicIntegerPointsKdTreeEncoder@$0A@@draco@@QEBA_NAEBV?$PseudoPointD@I@2@@Z
	??$?RV?$VectorD@I$02@draco@@@Splitter@?$DynamicIntegerPointsKdTreeEncoder@$00@draco@@QEBA_NAEBV?$VectorD@I$02@2@@Z
	??$?RV?$VectorD@I$02@draco@@@Splitter@?$DynamicIntegerPointsKdTreeEncoder@$01@draco@@QEBA_NAEBV?$VectorD@I$02@2@@Z
	??$?RV?$VectorD@I$02@draco@@@Splitter@?$DynamicIntegerPointsKdTreeEncoder@$02@draco@@QEBA_NAEBV?$VectorD@I$02@2@@Z
	??$?RV?$VectorD@I$02@draco@@@Splitter@?$DynamicIntegerPointsKdTreeEncoder@$03@draco@@QEBA_NAEBV?$VectorD@I$02@2@@Z
	??$?RV?$VectorD@I$02@draco@@@Splitter@?$DynamicIntegerPointsKdTreeEncoder@$04@draco@@QEBA_NAEBV?$VectorD@I$02@2@@Z
	??$?RV?$VectorD@I$02@draco@@@Splitter@?$DynamicIntegerPointsKdTreeEncoder@$05@draco@@QEBA_NAEBV?$VectorD@I$02@2@@Z
	??$?RV?$VectorD@I$02@draco@@@Splitter@?$DynamicIntegerPointsKdTreeEncoder@$0A@@draco@@QEBA_NAEBV?$VectorD@I$02@2@@Z
	??$?RV?$array@E$00@std@@@?$_Uhash_compare@V?$array@E$00@std@@U?$HashArray@V?$array@E$00@std@@@draco@@U?$equal_to@V?$array@E$00@std@@@2@@std@@QEBA_KAEBV?$array@E$00@1@@Z
	??$?RV?$array@E$00@std@@V01@@?$_Uhash_compare@V?$array@E$00@std@@U?$HashArray@V?$array@E$00@std@@@draco@@U?$equal_to@V?$array@E$00@std@@@2@@std@@QEBA_NAEBV?$array@E$00@1@0@Z
	??$?RV?$array@E$01@std@@@?$_Uhash_compare@V?$array@E$01@std@@U?$HashArray@V?$array@E$01@std@@@draco@@U?$equal_to@V?$array@E$01@std@@@2@@std@@QEBA_KAEBV?$array@E$01@1@@Z
	??$?RV?$array@E$01@std@@V01@@?$_Uhash_compare@V?$array@E$01@std@@U?$HashArray@V?$array@E$01@std@@@draco@@U?$equal_to@V?$array@E$01@std@@@2@@std@@QEBA_NAEBV?$array@E$01@1@0@Z
	??$?RV?$array@E$02@std@@@?$_Uhash_compare@V?$array@E$02@std@@U?$HashArray@V?$array@E$02@std@@@draco@@U?$equal_to@V?$array@E$02@std@@@2@@std@@QEBA_KAEBV?$array@E$02@1@@Z
	??$?RV?$array@E$02@std@@V01@@?$_Uhash_compare@V?$array@E$02@std@@U?$HashArray@V?$array@E$02@std@@@draco@@U?$equal_to@V?$array@E$02@std@@@2@@std@@QEBA_NAEBV?$array@E$02@1@0@Z
	??$?RV?$array@E$03@std@@@?$_Uhash_compare@V?$array@E$03@std@@U?$HashArray@V?$array@E$03@std@@@draco@@U?$equal_to@V?$array@E$03@std@@@2@@std@@QEBA_KAEBV?$array@E$03@1@@Z
	??$?RV?$array@E$03@std@@V01@@?$_Uhash_compare@V?$array@E$03@std@@U?$HashArray@V?$array@E$03@std@@@draco@@U?$equal_to@V?$array@E$03@std@@@2@@std@@QEBA_NAEBV?$array@E$03@1@0@Z
	??$?RV?$array@G$00@std@@@?$_Uhash_compare@V?$array@G$00@std@@U?$HashArray@V?$array@G$00@std@@@draco@@U?$equal_to@V?$array@G$00@std@@@2@@std@@QEBA_KAEBV?$array@G$00@1@@Z
	??$?RV?$array@G$00@std@@V01@@?$_Uhash_compare@V?$array@G$00@std@@U?$HashArray@V?$array@G$00@std@@@draco@@U?$equal_to@V?$array@G$00@std@@@2@@std@@QEBA_NAEBV?$array@G$00@1@0@Z
	??$?RV?$array@G$01@std@@@?$_Uhash_compare@V?$array@G$01@std@@U?$HashArray@V?$array@G$01@std@@@draco@@U?$equal_to@V?$array@G$01@std@@@2@@std@@QEBA_KAEBV?$array@G$01@1@@Z
	??$?RV?$array@G$01@std@@V01@@?$_Uhash_compare@V?$array@G$01@std@@U?$HashArray@V?$array@G$01@std@@@draco@@U?$equal_to@V?$array@G$01@std@@@2@@std@@QEBA_NAEBV?$array@G$01@1@0@Z
	??$?RV?$array@G$02@std@@@?$_Uhash_compare@V?$array@G$02@std@@U?$HashArray@V?$array@G$02@std@@@draco@@U?$equal_to@V?$array@G$02@std@@@2@@std@@QEBA_KAEBV?$array@G$02@1@@Z
	??$?RV?$array@G$02@std@@V01@@?$_Uhash_compare@V?$array@G$02@std@@U?$HashArray@V?$array@G$02@std@@@draco@@U?$equal_to@V?$array@G$02@std@@@2@@std@@QEBA_NAEBV?$array@G$02@1@0@Z
	??$?RV?$array@G$03@std@@@?$_Uhash_compare@V?$array@G$03@std@@U?$HashArray@V?$array@G$03@std@@@draco@@U?$equal_to@V?$array@G$03@std@@@2@@std@@QEBA_KAEBV?$array@G$03@1@@Z
	??$?RV?$array@G$03@std@@V01@@?$_Uhash_compare@V?$array@G$03@std@@U?$HashArray@V?$array@G$03@std@@@draco@@U?$equal_to@V?$array@G$03@std@@@2@@std@@QEBA_NAEBV?$array@G$03@1@0@Z
	??$?RV?$array@I$00@std@@@?$_Uhash_compare@V?$array@I$00@std@@U?$HashArray@V?$array@I$00@std@@@draco@@U?$equal_to@V?$array@I$00@std@@@2@@std@@QEBA_KAEBV?$array@I$00@1@@Z
	??$?RV?$array@I$00@std@@V01@@?$_Uhash_compare@V?$array@I$00@std@@U?$HashArray@V?$array@I$00@std@@@draco@@U?$equal_to@V?$array@I$00@std@@@2@@std@@QEBA_NAEBV?$array@I$00@1@0@Z
	??$?RV?$array@I$01@std@@@?$_Uhash_compare@V?$array@I$01@std@@U?$HashArray@V?$array@I$01@std@@@draco@@U?$equal_to@V?$array@I$01@std@@@2@@std@@QEBA_KAEBV?$array@I$01@1@@Z
	??$?RV?$array@I$01@std@@V01@@?$_Uhash_compare@V?$array@I$01@std@@U?$HashArray@V?$array@I$01@std@@@draco@@U?$equal_to@V?$array@I$01@std@@@2@@std@@QEBA_NAEBV?$array@I$01@1@0@Z
	??$?RV?$array@I$02@std@@@?$_Uhash_compare@V?$array@I$02@std@@U?$HashArray@V?$array@I$02@std@@@draco@@U?$equal_to@V?$array@I$02@std@@@2@@std@@QEBA_KAEBV?$array@I$02@1@@Z
	??$?RV?$array@I$02@std@@V01@@?$_Uhash_compare@V?$array@I$02@std@@U?$HashArray@V?$array@I$02@std@@@draco@@U?$equal_to@V?$array@I$02@std@@@2@@std@@QEBA_NAEBV?$array@I$02@1@0@Z
	??$?RV?$array@I$03@std@@@?$_Uhash_compare@V?$array@I$03@std@@U?$HashArray@V?$array@I$03@std@@@draco@@U?$equal_to@V?$array@I$03@std@@@2@@std@@QEBA_KAEBV?$array@I$03@1@@Z
	??$?RV?$array@I$03@std@@V01@@?$_Uhash_compare@V?$array@I$03@std@@U?$HashArray@V?$array@I$03@std@@@draco@@U?$equal_to@V?$array@I$03@std@@@2@@std@@QEBA_NAEBV?$array@I$03@1@0@Z
	??$?RV?$basic_string@DU?$char_traits@D@std@@V?$allocator@D@2@@std@@@?$_Uhash_compare@V?$basic_string@DU?$char_traits@D@std@@V?$allocator@D@2@@std@@U?$hash@V?$basic_string@DU?$char_traits@D@std@@V?$allocator@D@2@@std@@@2@U?$equal_to@V?$basic_string@DU?$char_traits@D@std@@V?$allocator@D@2@@std@@@2@@std@@QEBA_KAEBV?$basic_string@DU?$char_traits@D@std@@V?$allocator@D@2@@1@@Z
	??$?RV?$basic_string@DU?$char_traits@D@std@@V?$allocator@D@2@@std@@V01@@?$_Uhash_compare@V?$basic_string@DU?$char_traits@D@std@@V?$allocator@D@2@@std@@U?$hash@V?$basic_string@DU?$char_traits@D@std@@V?$allocator@D@2@@std@@@2@U?$equal_to@V?$basic_string@DU?$char_traits@D@std@@V?$allocator@D@2@@std@@@2@@std@@QEBA_NAEBV?$basic_string@DU?$char_traits@D@std@@V?$allocator@D@2@@1@0@Z
	??$?RVRAnsBitDecoder@draco@@$0A@@?$default_delete@$$BY0A@VRAnsBitDecoder@draco@@@std@@QEBAXPEAVRAnsBitDecoder@draco@@@Z
	??$?RVRAnsBitEncoder@draco@@$0A@@?$default_delete@$$BY0A@VRAnsBitEncoder@draco@@@std@@QEBAXPEAVRAnsBitEncoder@draco@@@Z
	??$AddAsUnsigned@H$0A@@draco@@YAHHH@Z
	??$AddEntry@H@Metadata@draco@@AEAAXAEBV?$basic_string@DU?$char_traits@D@std@@V?$allocator@D@2@@std@@AEBH@Z
	??$AddEntry@N@Metadata@draco@@AEAAXAEBV?$basic_string@DU?$char_traits@D@std@@V?$allocator@D@2@@std@@AEBN@Z
	??$AddEntry@V?$basic_string@DU?$char_traits@D@std@@V?$allocator@D@2@@std@@@Metadata@draco@@AEAAXAEBV?$basic_string@DU?$char_traits@D@std@@V?$allocator@D@2@@std@@0@Z
	??$AddEntry@V?$vector@EV?$allocator@E@std@@@std@@@Metadata@draco@@AEAAXAEBV?$basic_string@DU?$char_traits@D@std@@V?$allocator@D@2@@std@@AEBV?$vector@EV?$allocator@E@std@@@3@@Z
	??$AddEntry@V?$vector@HV?$allocator@H@std@@@std@@@Metadata@draco@@AEAAXAEBV?$basic_string@DU?$char_traits@D@std@@V?$allocator@D@2@@std@@AEBV?$vector@HV?$allocator@H@std@@@3@@Z
	??$AddEntry@V?$vector@NV?$allocator@N@std@@@std@@@Metadata@draco@@AEAAXAEBV?$basic_string@DU?$char_traits@D@std@@V?$allocator@D@2@@std@@AEBV?$vector@NV?$allocator@N@std@@@3@@Z
	??$AppendParameterValue@H@AttributeTransformData@draco@@QEAAXAEBH@Z
	??$AppendParameterValue@M@AttributeTransformData@draco@@QEAAXAEBM@Z
	??$CanonicalizeIntegerVector@H@OctahedronToolBox@draco@@QEBAXPEAH@Z
	??$ComputeParallelogramPrediction@VCornerTable@draco@@H@draco@@YA_NHV?$IndexType@IUCornerIndex_tag_type_@draco@@@0@PEBVCornerTable@0@AEBV?$vector@HV?$allocator@H@std@@@std@@PEBHHPEAH@Z
	??$ComputeParallelogramPrediction@VMeshAttributeCornerTable@draco@@H@draco@@YA_NHV?$IndexType@IUCornerIndex_tag_type_@draco@@@0@PEBVMeshAttributeCornerTable@0@AEBV?$vector@HV?$allocator@H@std@@@std@@PEBHHPEAH@Z
	??$ComputePredictedValue@$00@?$MeshPredictionSchemeTexCoordsPortablePredictor@HV?$MeshPredictionSchemeData@VCornerTable@draco@@@draco@@@draco@@QEAA_NV?$IndexType@IUCornerIndex_tag_type_@draco@@@1@PEBHH@Z
	??$ComputePredictedValue@$00@?$MeshPredictionSchemeTexCoordsPortablePredictor@HV?$MeshPredictionSchemeData@VMeshAttributeCornerTable@draco@@@draco@@@draco@@QEAA_NV?$IndexType@IUCornerIndex_tag_type_@draco@@@1@PEBHH@Z
	??$ComputePredictedValue@$0A@@?$MeshPredictionSchemeTexCoordsPortablePredictor@HV?$MeshPredictionSchemeData@VCornerTable@draco@@@draco@@@draco@@QEAA_NV?$IndexType@IUCornerIndex_tag_type_@draco@@@1@PEBHH@Z
	??$ComputePredictedValue@$0A@@?$MeshPredictionSchemeTexCoordsPortablePredictor@HV?$MeshPredictionSchemeData@VMeshAttributeCornerTable@draco@@@draco@@@draco@@QEAA_NV?$IndexType@IUCornerIndex_tag_type_@draco@@@1@PEBHH@Z
	??$ConvertComponentValue@CH@GeometryAttribute@draco@@CA_NAEBC_NPEAH@Z
	??$ConvertComponentValue@CI@GeometryAttribute@draco@@CA_NAEBC_NPEAI@Z
	??$ConvertComponentValue@CM@GeometryAttribute@draco@@CA_NAEBC_NPEAM@Z
	??$ConvertComponentValue@C_J@GeometryAttribute@draco@@CA_NAEBC_NPEA_J@Z
	??$ConvertComponentValue@EH@GeometryAttribute@draco@@CA_NAEBE_NPEAH@Z
	??$ConvertComponentValue@EI@GeometryAttribute@draco@@CA_NAEBE_NPEAI@Z
	??$ConvertComponentValue@EM@GeometryAttribute@draco@@CA_NAEBE_NPEAM@Z
	??$ConvertComponentValue@E_J@GeometryAttribute@draco@@CA_NAEBE_NPEA_J@Z
	??$ConvertComponentValue@FH@GeometryAttribute@draco@@CA_NAEBF_NPEAH@Z
	??$ConvertComponentValue@FI@GeometryAttribute@draco@@CA_NAEBF_NPEAI@Z
	??$ConvertComponentValue@FM@GeometryAttribute@draco@@CA_NAEBF_NPEAM@Z
	??$ConvertComponentValue@F_J@GeometryAttribute@draco@@CA_NAEBF_NPEA_J@Z
	??$ConvertComponentValue@GH@GeometryAttribute@draco@@CA_NAEBG_NPEAH@Z
	??$ConvertComponentValue@GI@GeometryAttribute@draco@@CA_NAEBG_NPEAI@Z
	??$ConvertComponentValue@GM@GeometryAttribute@draco@@CA_NAEBG_NPEAM@Z
	??$ConvertComponentValue@G_J@GeometryAttribute@draco@@CA_NAEBG_NPEA_J@Z
	??$ConvertComponentValue@HH@GeometryAttribute@draco@@CA_NAEBH_NPEAH@Z
	??$ConvertComponentValue@HI@GeometryAttribute@draco@@CA_NAEBH_NPEAI@Z
	??$ConvertComponentValue@HM@GeometryAttribute@draco@@CA_NAEBH_NPEAM@Z
	??$ConvertComponentValue@H_J@GeometryAttribute@draco@@CA_NAEBH_NPEA_J@Z
	??$ConvertComponentValue@IH@GeometryAttribute@draco@@CA_NAEBI_NPEAH@Z
	??$ConvertComponentValue@II@GeometryAttribute@draco@@CA_NAEBI_NPEAI@Z
	??$ConvertComponentValue@IM@GeometryAttribute@draco@@CA_NAEBI_NPEAM@Z
	??$ConvertComponentValue@I_J@GeometryAttribute@draco@@CA_NAEBI_NPEA_J@Z
	??$ConvertComponentValue@MH@GeometryAttribute@draco@@CA_NAEBM_NPEAH@Z
	??$ConvertComponentValue@MI@GeometryAttribute@draco@@CA_NAEBM_NPEAI@Z
	??$ConvertComponentValue@MM@GeometryAttribute@draco@@CA_NAEBM_NPEAM@Z
	??$ConvertComponentValue@M_J@GeometryAttribute@draco@@CA_NAEBM_NPEA_J@Z
	??$ConvertComponentValue@NH@GeometryAttribute@draco@@CA_NAEBN_NPEAH@Z
	??$ConvertComponentValue@NI@GeometryAttribute@draco@@CA_NAEBN_NPEAI@Z
	??$ConvertComponentValue@NM@GeometryAttribute@draco@@CA_NAEBN_NPEAM@Z
	??$ConvertComponentValue@N_J@GeometryAttribute@draco@@CA_NAEBN_NPEA_J@Z
	??$ConvertComponentValue@_JH@GeometryAttribute@draco@@CA_NAEB_J_NPEAH@Z
	??$ConvertComponentValue@_JI@GeometryAttribute@draco@@CA_NAEB_J_NPEAI@Z
	??$ConvertComponentValue@_JM@GeometryAttribute@draco@@CA_NAEB_J_NPEAM@Z
	??$ConvertComponentValue@_J_J@GeometryAttribute@draco@@CA_NAEB_J_NPEA_J@Z
	??$ConvertComponentValue@_KH@GeometryAttribute@draco@@CA_NAEB_K_NPEAH@Z
	??$ConvertComponentValue@_KI@GeometryAttribute@draco@@CA_NAEB_K_NPEAI@Z
	??$ConvertComponentValue@_KM@GeometryAttribute@draco@@CA_NAEB_K_NPEAM@Z
	??$ConvertComponentValue@_K_J@GeometryAttribute@draco@@CA_NAEB_K_NPEA_J@Z
	??$ConvertComponentValue@_NH@GeometryAttribute@draco@@CA_NAEB_N_NPEAH@Z
	??$ConvertComponentValue@_NI@GeometryAttribute@draco@@CA_NAEB_N_NPEAI@Z
	??$ConvertComponentValue@_NM@GeometryAttribute@draco@@CA_NAEB_N_NPEAM@Z
	??$ConvertComponentValue@_N_J@GeometryAttribute@draco@@CA_NAEB_N_NPEA_J@Z
	??$ConvertSignedIntToSymbol@H@draco@@YAIH@Z
	??$ConvertSignedIntToSymbol@I@draco@@YAII@Z
	??$ConvertSignedIntToSymbol@_K@draco@@YA_K_K@Z
	??$ConvertSymbolToSignedInt@I@draco@@YAHI@Z
	??$ConvertSymbolToSignedInt@_K@draco@@YA_J_K@Z
	??$ConvertTypedValue@CH@GeometryAttribute@draco@@AEBA_NV?$IndexType@IUAttributeValueIndex_tag_type_@draco@@@1@EPEAH@Z
	??$ConvertTypedValue@CI@GeometryAttribute@draco@@AEBA_NV?$IndexType@IUAttributeValueIndex_tag_type_@draco@@@1@EPEAI@Z
	??$ConvertTypedValue@CM@GeometryAttribute@draco@@AEBA_NV?$IndexType@IUAttributeValueIndex_tag_type_@draco@@@1@EPEAM@Z
	??$ConvertTypedValue@C_J@GeometryAttribute@draco@@AEBA_NV?$IndexType@IUAttributeValueIndex_tag_type_@draco@@@1@EPEA_J@Z
	??$ConvertTypedValue@EH@GeometryAttribute@draco@@AEBA_NV?$IndexType@IUAttributeValueIndex_tag_type_@draco@@@1@EPEAH@Z
	??$ConvertTypedValue@EI@GeometryAttribute@draco@@AEBA_NV?$IndexType@IUAttributeValueIndex_tag_type_@draco@@@1@EPEAI@Z
	??$ConvertTypedValue@EM@GeometryAttribute@draco@@AEBA_NV?$IndexType@IUAttributeValueIndex_tag_type_@draco@@@1@EPEAM@Z
	??$ConvertTypedValue@E_J@GeometryAttribute@draco@@AEBA_NV?$IndexType@IUAttributeValueIndex_tag_type_@draco@@@1@EPEA_J@Z
	??$ConvertTypedValue@FH@GeometryAttribute@draco@@AEBA_NV?$IndexType@IUAttributeValueIndex_tag_type_@draco@@@1@EPEAH@Z
	??$ConvertTypedValue@FI@GeometryAttribute@draco@@AEBA_NV?$IndexType@IUAttributeValueIndex_tag_type_@draco@@@1@EPEAI@Z
	??$ConvertTypedValue@FM@GeometryAttribute@draco@@AEBA_NV?$IndexType@IUAttributeValueIndex_tag_type_@draco@@@1@EPEAM@Z
	??$ConvertTypedValue@F_J@GeometryAttribute@draco@@AEBA_NV?$IndexType@IUAttributeValueIndex_tag_type_@draco@@@1@EPEA_J@Z
	??$ConvertTypedValue@GH@GeometryAttribute@draco@@AEBA_NV?$IndexType@IUAttributeValueIndex_tag_type_@draco@@@1@EPEAH@Z
	??$ConvertTypedValue@GI@GeometryAttribute@draco@@AEBA_NV?$IndexType@IUAttributeValueIndex_tag_type_@draco@@@1@EPEAI@Z
	??$ConvertTypedValue@GM@GeometryAttribute@draco@@AEBA_NV?$IndexType@IUAttributeValueIndex_tag_type_@draco@@@1@EPEAM@Z
	??$ConvertTypedValue@G_J@GeometryAttribute@draco@@AEBA_NV?$IndexType@IUAttributeValueIndex_tag_type_@draco@@@1@EPEA_J@Z
	??$ConvertTypedValue@HH@GeometryAttribute@draco@@AEBA_NV?$IndexType@IUAttributeValueIndex_tag_type_@draco@@@1@EPEAH@Z
	??$ConvertTypedValue@HI@GeometryAttribute@draco@@AEBA_NV?$IndexType@IUAttributeValueIndex_tag_type_@draco@@@1@EPEAI@Z
	??$ConvertTypedValue@HM@GeometryAttribute@draco@@AEBA_NV?$IndexType@IUAttributeValueIndex_tag_type_@draco@@@1@EPEAM@Z
	??$ConvertTypedValue@H_J@GeometryAttribute@draco@@AEBA_NV?$IndexType@IUAttributeValueIndex_tag_type_@draco@@@1@EPEA_J@Z
	??$ConvertTypedValue@IH@GeometryAttribute@draco@@AEBA_NV?$IndexType@IUAttributeValueIndex_tag_type_@draco@@@1@EPEAH@Z
	??$ConvertTypedValue@II@GeometryAttribute@draco@@AEBA_NV?$IndexType@IUAttributeValueIndex_tag_type_@draco@@@1@EPEAI@Z
	??$ConvertTypedValue@IM@GeometryAttribute@draco@@AEBA_NV?$IndexType@IUAttributeValueIndex_tag_type_@draco@@@1@EPEAM@Z
	??$ConvertTypedValue@I_J@GeometryAttribute@draco@@AEBA_NV?$IndexType@IUAttributeValueIndex_tag_type_@draco@@@1@EPEA_J@Z
	??$ConvertTypedValue@MH@GeometryAttribute@draco@@AEBA_NV?$IndexType@IUAttributeValueIndex_tag_type_@draco@@@1@EPEAH@Z
	??$ConvertTypedValue@MI@GeometryAttribute@draco@@AEBA_NV?$IndexType@IUAttributeValueIndex_tag_type_@draco@@@1@EPEAI@Z
	??$ConvertTypedValue@MM@GeometryAttribute@draco@@AEBA_NV?$IndexType@IUAttributeValueIndex_tag_type_@draco@@@1@EPEAM@Z
	??$ConvertTypedValue@M_J@GeometryAttribute@draco@@AEBA_NV?$IndexType@IUAttributeValueIndex_tag_type_@draco@@@1@EPEA_J@Z
	??$ConvertTypedValue@NH@GeometryAttribute@draco@@AEBA_NV?$IndexType@IUAttributeValueIndex_tag_type_@draco@@@1@EPEAH@Z
	??$ConvertTypedValue@NI@GeometryAttribute@draco@@AEBA_NV?$IndexType@IUAttributeValueIndex_tag_type_@draco@@@1@EPEAI@Z
	??$ConvertTypedValue@NM@GeometryAttribute@draco@@AEBA_NV?$IndexType@IUAttributeValueIndex_tag_type_@draco@@@1@EPEAM@Z
	??$ConvertTypedValue@N_J@GeometryAttribute@draco@@AEBA_NV?$IndexType@IUAttributeValueIndex_tag_type_@draco@@@1@EPEA_J@Z
	??$ConvertTypedValue@_JH@GeometryAttribute@draco@@AEBA_NV?$IndexType@IUAttributeValueIndex_tag_type_@draco@@@1@EPEAH@Z
	??$ConvertTypedValue@_JI@GeometryAttribute@draco@@AEBA_NV?$IndexType@IUAttributeValueIndex_tag_type_@draco@@@1@EPEAI@Z
	??$ConvertTypedValue@_JM@GeometryAttribute@draco@@AEBA_NV?$IndexType@IUAttributeValueIndex_tag_type_@draco@@@1@EPEAM@Z
	??$ConvertTypedValue@_J_J@GeometryAttribute@draco@@AEBA_NV?$IndexType@IUAttributeValueIndex_tag_type_@draco@@@1@EPEA_J@Z
	??$ConvertTypedValue@_KH@GeometryAttribute@draco@@AEBA_NV?$IndexType@IUAttributeValueIndex_tag_type_@draco@@@1@EPEAH@Z
	??$ConvertTypedValue@_KI@GeometryAttribute@draco@@AEBA_NV?$IndexType@IUAttributeValueIndex_tag_type_@draco@@@1@EPEAI@Z
	??$ConvertTypedValue@_KM@GeometryAttribute@draco@@AEBA_NV?$IndexType@IUAttributeValueIndex_tag_type_@draco@@@1@EPEAM@Z
	??$ConvertTypedValue@_K_J@GeometryAttribute@draco@@AEBA_NV?$IndexType@IUAttributeValueIndex_tag_type_@draco@@@1@EPEA_J@Z
	??$ConvertTypedValue@_NH@GeometryAttribute@draco@@AEBA_NV?$IndexType@IUAttributeValueIndex_tag_type_@draco@@@1@EPEAH@Z
	??$ConvertTypedValue@_NI@GeometryAttribute@draco@@AEBA_NV?$IndexType@IUAttributeValueIndex_tag_type_@draco@@@1@EPEAI@Z
	??$ConvertTypedValue@_NM@GeometryAttribute@draco@@AEBA_NV?$IndexType@IUAttributeValueIndex_tag_type_@draco@@@1@EPEAM@Z
	??$ConvertTypedValue@_N_J@GeometryAttribute@draco@@AEBA_NV?$IndexType@IUAttributeValueIndex_tag_type_@draco@@@1@EPEA_J@Z
	??$ConvertValue@C@?$PlyPropertyReader@E@draco@@AEBAEH@Z
	??$ConvertValue@C@?$PlyPropertyReader@H@draco@@AEBAHH@Z
	??$ConvertValue@C@?$PlyPropertyReader@I@draco@@AEBAIH@Z
	??$ConvertValue@C@?$PlyPropertyReader@M@draco@@AEBAMH@Z
	??$ConvertValue@C@?$PlyPropertyWriter@N@draco@@AEBAXN@Z
	??$ConvertValue@E@?$PlyPropertyReader@E@draco@@AEBAEH@Z
	??$ConvertValue@E@?$PlyPropertyReader@H@draco@@AEBAHH@Z
	??$ConvertValue@E@?$PlyPropertyReader@I@draco@@AEBAIH@Z
	??$ConvertValue@E@?$PlyPropertyReader@M@draco@@AEBAMH@Z
	??$ConvertValue@E@?$PlyPropertyWriter@N@draco@@AEBAXN@Z
	??$ConvertValue@F@?$PlyPropertyReader@E@draco@@AEBAEH@Z
	??$ConvertValue@F@?$PlyPropertyReader@H@draco@@AEBAHH@Z
	??$ConvertValue@F@?$PlyPropertyReader@I@draco@@AEBAIH@Z
	??$ConvertValue@F@?$PlyPropertyReader@M@draco@@AEBAMH@Z
	??$ConvertValue@F@?$PlyPropertyWriter@N@draco@@AEBAXN@Z
	??$ConvertValue@G@?$PlyPropertyReader@E@draco@@AEBAEH@Z
	??$ConvertValue@G@?$PlyPropertyReader@H@draco@@AEBAHH@Z
	??$ConvertValue@G@?$PlyPropertyReader@I@draco@@AEBAIH@Z
	??$ConvertValue@G@?$PlyPropertyReader@M@draco@@AEBAMH@Z
	??$ConvertValue@G@?$PlyPropertyWriter@N@draco@@AEBAXN@Z
	??$ConvertValue@H@?$PlyPropertyReader@E@draco@@AEBAEH@Z
	??$ConvertValue@H@?$PlyPropertyReader@H@draco@@AEBAHH@Z
	??$ConvertValue@H@?$PlyPropertyReader@I@draco@@AEBAIH@Z
	??$ConvertValue@H@?$PlyPropertyReader@M@draco@@AEBAMH@Z
	??$ConvertValue@H@?$PlyPropertyWriter@N@draco@@AEBAXN@Z
	??$ConvertValue@H@GeometryAttribute@draco@@QEBA_NV?$IndexType@IUAttributeValueIndex_tag_type_@draco@@@1@CPEAH@Z
	??$ConvertValue@H@GeometryAttribute@draco@@QEBA_NV?$IndexType@IUAttributeValueIndex_tag_type_@draco@@@1@PEAH@Z
	??$ConvertValue@I@?$PlyPropertyReader@E@draco@@AEBAEH@Z
	??$ConvertValue@I@?$PlyPropertyReader@H@draco@@AEBAHH@Z
	??$ConvertValue@I@?$PlyPropertyReader@I@draco@@AEBAIH@Z
	??$ConvertValue@I@?$PlyPropertyReader@M@draco@@AEBAMH@Z
	??$ConvertValue@I@?$PlyPropertyWriter@N@draco@@AEBAXN@Z
	??$ConvertValue@I@GeometryAttribute@draco@@QEBA_NV?$IndexType@IUAttributeValueIndex_tag_type_@draco@@@1@CPEAI@Z
	??$ConvertValue@I@GeometryAttribute@draco@@QEBA_NV?$IndexType@IUAttributeValueIndex_tag_type_@draco@@@1@PEAI@Z
	??$ConvertValue@M$01@GeometryAttribute@draco@@QEBA_NV?$IndexType@IUAttributeValueIndex_tag_type_@draco@@@1@PEAM@Z
	??$ConvertValue@M$02@GeometryAttribute@draco@@QEBA_NV?$IndexType@IUAttributeValueIndex_tag_type_@draco@@@1@PEAM@Z
	??$ConvertValue@M@?$PlyPropertyReader@E@draco@@AEBAEH@Z
	??$ConvertValue@M@?$PlyPropertyReader@H@draco@@AEBAHH@Z
	??$ConvertValue@M@?$PlyPropertyReader@I@draco@@AEBAIH@Z
	??$ConvertValue@M@?$PlyPropertyReader@M@draco@@AEBAMH@Z
	??$ConvertValue@M@?$PlyPropertyWriter@N@draco@@AEBAXN@Z
	??$ConvertValue@M@GeometryAttribute@draco@@QEBA_NV?$IndexType@IUAttributeValueIndex_tag_type_@draco@@@1@CPEAM@Z
	??$ConvertValue@M@GeometryAttribute@draco@@QEBA_NV?$IndexType@IUAttributeValueIndex_tag_type_@draco@@@1@PEAM@Z
	??$ConvertValue@N@?$PlyPropertyReader@E@draco@@AEBAEH@Z
	??$ConvertValue@N@?$PlyPropertyReader@H@draco@@AEBAHH@Z
	??$ConvertValue@N@?$PlyPropertyReader@I@draco@@AEBAIH@Z
	??$ConvertValue@N@?$PlyPropertyReader@M@draco@@AEBAMH@Z
	??$ConvertValue@N@?$PlyPropertyWriter@N@draco@@AEBAXN@Z
	??$ConvertValue@_J@GeometryAttribute@draco@@QEBA_NV?$IndexType@IUAttributeValueIndex_tag_type_@draco@@@1@CPEA_J@Z
	??$ConvertValue@_J@GeometryAttribute@draco@@QEBA_NV?$IndexType@IUAttributeValueIndex_tag_type_@draco@@@1@PEA_J@Z
	??$CreateMeshPredictionScheme@VMeshDecoder@draco@@V?$PredictionSchemeDecoder@HV?$PredictionSchemeNormalOctahedronCanonicalizedDecodingTransform@H@draco@@@2@U?$MeshPredictionSchemeDecoderFactory@H@2@@draco@@YA?AV?$unique_ptr@V?$PredictionSchemeDecoder@HV?$PredictionSchemeNormalOctahedronCanonicalizedDecodingTransform@H@draco@@@draco@@U?$default_delete@V?$PredictionSchemeDecoder@HV?$PredictionSchemeNormalOctahedronCanonicalizedDecodingTransform@H@draco@@@draco@@@std@@@std@@PEBVMeshDecoder@0@W4PredictionSchemeMethod@0@HAEBV?$PredictionSchemeNormalOctahedronCanonicalizedDecodingTransform@H@0@G@Z
	??$CreateMeshPredictionScheme@VMeshDecoder@draco@@V?$PredictionSchemeDecoder@HV?$PredictionSchemeNormalOctahedronDecodingTransform@H@draco@@@2@U?$MeshPredictionSchemeDecoderFactory@H@2@@draco@@YA?AV?$unique_ptr@V?$PredictionSchemeDecoder@HV?$PredictionSchemeNormalOctahedronDecodingTransform@H@draco@@@draco@@U?$default_delete@V?$PredictionSchemeDecoder@HV?$PredictionSchemeNormalOctahedronDecodingTransform@H@draco@@@draco@@@std@@@std@@PEBVMeshDecoder@0@W4PredictionSchemeMethod@0@HAEBV?$PredictionSchemeNormalOctahedronDecodingTransform@H@0@G@Z
	??$CreateMeshPredictionScheme@VMeshDecoder@draco@@V?$PredictionSchemeDecoder@HV?$PredictionSchemeWrapDecodingTransform@HH@draco@@@2@U?$MeshPredictionSchemeDecoderFactory@H@2@@draco@@YA?AV?$unique_ptr@V?$PredictionSchemeDecoder@HV?$PredictionSchemeWrapDecodingTransform@HH@draco@@@draco@@U?$default_delete@V?$PredictionSchemeDecoder@HV?$PredictionSchemeWrapDecodingTransform@HH@draco@@@draco@@@std@@@std@@PEBVMeshDecoder@0@W4PredictionSchemeMethod@0@HAEBV?$PredictionSchemeWrapDecodingTransform@HH@0@G@Z
	??$CreateMeshPredictionScheme@VMeshEncoder@draco@@V?$PredictionSchemeEncoder@HV?$PredictionSchemeNormalOctahedronCanonicalizedEncodingTransform@H@draco@@@2@U?$MeshPredictionSchemeEncoderFactory@H@2@@draco@@YA?AV?$unique_ptr@V?$PredictionSchemeEncoder@HV?$PredictionSchemeNormalOctahedronCanonicalizedEncodingTransform@H@draco@@@draco@@U?$default_delete@V?$PredictionSchemeEncoder@HV?$PredictionSchemeNormalOctahedronCanonicalizedEncodingTransform@H@draco@@@draco@@@std@@@std@@PEBVMeshEncoder@0@W4PredictionSchemeMethod@0@HAEBV?$PredictionSchemeNormalOctahedronCanonicalizedEncodingTransform@H@0@G@Z
	??$CreateMeshPredictionScheme@VMeshEncoder@draco@@V?$PredictionSchemeEncoder@HV?$PredictionSchemeWrapEncodingTransform@HH@draco@@@2@U?$MeshPredictionSchemeEncoderFactory@H@2@@draco@@YA?AV?$unique_ptr@V?$PredictionSchemeEncoder@HV?$PredictionSchemeWrapEncodingTransform@HH@draco@@@draco@@U?$default_delete@V?$PredictionSchemeEncoder@HV?$PredictionSchemeWrapEncodingTransform@HH@draco@@@draco@@@std@@@std@@PEBVMeshEncoder@0@W4PredictionSchemeMethod@0@HAEBV?$PredictionSchemeWrapEncodingTransform@HH@0@G@Z
	??$CreatePredictionSchemeForDecoder@HV?$PredictionSchemeNormalOctahedronCanonicalizedDecodingTransform@H@draco@@@draco@@YA?AV?$unique_ptr@V?$PredictionSchemeDecoder@HV?$PredictionSchemeNormalOctahedronCanonicalizedDecodingTransform@H@draco@@@draco@@U?$default_delete@V?$PredictionSchemeDecoder@HV?$PredictionSchemeNormalOctahedronCanonicalizedDecodingTransform@H@draco@@@draco@@@std@@@std@@W4PredictionSchemeMethod@0@HPEBVPointCloudDecoder@0@@Z
	??$CreatePredictionSchemeForDecoder@HV?$PredictionSchemeNormalOctahedronCanonicalizedDecodingTransform@H@draco@@@draco@@YA?AV?$unique_ptr@V?$PredictionSchemeDecoder@HV?$PredictionSchemeNormalOctahedronCanonicalizedDecodingTransform@H@draco@@@draco@@U?$default_delete@V?$PredictionSchemeDecoder@HV?$PredictionSchemeNormalOctahedronCanonicalizedDecodingTransform@H@draco@@@draco@@@std@@@std@@W4PredictionSchemeMethod@0@HPEBVPointCloudDecoder@0@AEBV?$PredictionSchemeNormalOctahedronCanonicalizedDecodingTransform@H@0@@Z
	??$CreatePredictionSchemeForDecoder@HV?$PredictionSchemeNormalOctahedronDecodingTransform@H@draco@@@draco@@YA?AV?$unique_ptr@V?$PredictionSchemeDecoder@HV?$PredictionSchemeNormalOctahedronDecodingTransform@H@draco@@@draco@@U?$default_delete@V?$PredictionSchemeDecoder@HV?$PredictionSchemeNormalOctahedronDecodingTransform@H@draco@@@draco@@@std@@@std@@W4PredictionSchemeMethod@0@HPEBVPointCloudDecoder@0@@Z
	??$CreatePredictionSchemeForDecoder@HV?$PredictionSchemeNormalOctahedronDecodingTransform@H@draco@@@draco@@YA?AV?$unique_ptr@V?$PredictionSchemeDecoder@HV?$PredictionSchemeNormalOctahedronDecodingTransform@H@draco@@@draco@@U?$default_delete@V?$PredictionSchemeDecoder@HV?$PredictionSchemeNormalOctahedronDecodingTransform@H@draco@@@draco@@@std@@@std@@W4PredictionSchemeMethod@0@HPEBVPointCloudDecoder@0@AEBV?$PredictionSchemeNormalOctahedronDecodingTransform@H@0@@Z
	??$CreatePredictionSchemeForDecoder@HV?$PredictionSchemeWrapDecodingTransform@HH@draco@@@draco@@YA?AV?$unique_ptr@V?$PredictionSchemeDecoder@HV?$PredictionSchemeWrapDecodingTransform@HH@draco@@@draco@@U?$default_delete@V?$PredictionSchemeDecoder@HV?$PredictionSchemeWrapDecodingTransform@HH@draco@@@draco@@@std@@@std@@W4PredictionSchemeMethod@0@HPEBVPointCloudDecoder@0@@Z
	??$CreatePredictionSchemeForDecoder@HV?$PredictionSchemeWrapDecodingTransform@HH@draco@@@draco@@YA?AV?$unique_ptr@V?$PredictionSchemeDecoder@HV?$PredictionSchemeWrapDecodingTransform@HH@draco@@@draco@@U?$default_delete@V?$PredictionSchemeDecoder@HV?$PredictionSchemeWrapDecodingTransform@HH@draco@@@draco@@@std@@@std@@W4PredictionSchemeMethod@0@HPEBVPointCloudDecoder@0@AEBV?$PredictionSchemeWrapDecodingTransform@HH@0@@Z
	??$CreatePredictionSchemeForEncoder@HV?$PredictionSchemeNormalOctahedronCanonicalizedEncodingTransform@H@draco@@@draco@@YA?AV?$unique_ptr@V?$PredictionSchemeEncoder@HV?$PredictionSchemeNormalOctahedronCanonicalizedEncodingTransform@H@draco@@@draco@@U?$default_delete@V?$PredictionSchemeEncoder@HV?$PredictionSchemeNormalOctahedronCanonicalizedEncodingTransform@H@draco@@@draco@@@std@@@std@@W4PredictionSchemeMethod@0@HPEBVPointCloudEncoder@0@AEBV?$PredictionSchemeNormalOctahedronCanonicalizedEncodingTransform@H@0@@Z
	??$CreatePredictionSchemeForEncoder@HV?$PredictionSchemeWrapEncodingTransform@HH@draco@@@draco@@YA?AV?$unique_ptr@V?$PredictionSchemeEncoder@HV?$PredictionSchemeWrapEncodingTransform@HH@draco@@@draco@@U?$default_delete@V?$PredictionSchemeEncoder@HV?$PredictionSchemeWrapEncodingTransform@HH@draco@@@draco@@@std@@@std@@W4PredictionSchemeMethod@0@HPEBVPointCloudEncoder@0@@Z
	??$CreatePredictionSchemeForEncoder@HV?$PredictionSchemeWrapEncodingTransform@HH@draco@@@draco@@YA?AV?$unique_ptr@V?$PredictionSchemeEncoder@HV?$PredictionSchemeWrapEncodingTransform@HH@draco@@@draco@@U?$default_delete@V?$PredictionSchemeEncoder@HV?$PredictionSchemeWrapEncodingTransform@HH@draco@@@draco@@@std@@@std@@W4PredictionSchemeMethod@0@HPEBVPointCloudEncoder@0@AEBV?$PredictionSchemeWrapEncodingTransform@HH@0@@Z
	??$CreateVertexTraversalSequencer@V?$DepthFirstTraverser@VCornerTable@draco@@V?$MeshAttributeIndicesEncodingObserver@VCornerTable@draco@@@2@@draco@@@?$MeshEdgebreakerDecoderImpl@VMeshEdgebreakerTraversalDecoder@draco@@@draco@@AEAA?AV?$unique_ptr@VPointsSequencer@draco@@U?$default_delete@VPointsSequencer@draco@@@std@@@std@@PEAUMeshAttributeIndicesEncodingData@1@@Z
	??$CreateVertexTraversalSequencer@V?$DepthFirstTraverser@VCornerTable@draco@@V?$MeshAttributeIndicesEncodingObserver@VCornerTable@draco@@@2@@draco@@@?$MeshEdgebreakerDecoderImpl@VMeshEdgebreakerTraversalPredictiveDecoder@draco@@@draco@@AEAA?AV?$unique_ptr@VPointsSequencer@draco@@U?$default_delete@VPointsSequencer@draco@@@std@@@std@@PEAUMeshAttributeIndicesEncodingData@1@@Z
	??$CreateVertexTraversalSequencer@V?$DepthFirstTraverser@VCornerTable@draco@@V?$MeshAttributeIndicesEncodingObserver@VCornerTable@draco@@@2@@draco@@@?$MeshEdgebreakerDecoderImpl@VMeshEdgebreakerTraversalValenceDecoder@draco@@@draco@@AEAA?AV?$unique_ptr@VPointsSequencer@draco@@U?$default_delete@VPointsSequencer@draco@@@std@@@std@@PEAUMeshAttributeIndicesEncodingData@1@@Z
	??$CreateVertexTraversalSequencer@V?$DepthFirstTraverser@VCornerTable@draco@@V?$MeshAttributeIndicesEncodingObserver@VCornerTable@draco@@@2@@draco@@@?$MeshEdgebreakerEncoderImpl@VMeshEdgebreakerTraversalEncoder@draco@@@draco@@AEAA?AV?$unique_ptr@VPointsSequencer@draco@@U?$default_delete@VPointsSequencer@draco@@@std@@@std@@PEAUMeshAttributeIndicesEncodingData@1@@Z
	??$CreateVertexTraversalSequencer@V?$DepthFirstTraverser@VCornerTable@draco@@V?$MeshAttributeIndicesEncodingObserver@VCornerTable@draco@@@2@@draco@@@?$MeshEdgebreakerEncoderImpl@VMeshEdgebreakerTraversalPredictiveEncoder@draco@@@draco@@AEAA?AV?$unique_ptr@VPointsSequencer@draco@@U?$default_delete@VPointsSequencer@draco@@@std@@@std@@PEAUMeshAttributeIndicesEncodingData@1@@Z
	??$CreateVertexTraversalSequencer@V?$DepthFirstTraverser@VCornerTable@draco@@V?$MeshAttributeIndicesEncodingObserver@VCornerTable@draco@@@2@@draco@@@?$MeshEdgebreakerEncoderImpl@VMeshEdgebreakerTraversalValenceEncoder@draco@@@draco@@AEAA?AV?$unique_ptr@VPointsSequencer@draco@@U?$default_delete@VPointsSequencer@draco@@@std@@@std@@PEAUMeshAttributeIndicesEncodingData@1@@Z
	??$CreateVertexTraversalSequencer@V?$MaxPredictionDegreeTraverser@VCornerTable@draco@@V?$MeshAttributeIndicesEncodingObserver@VCornerTable@draco@@@2@@draco@@@?$MeshEdgebreakerDecoderImpl@VMeshEdgebreakerTraversalDecoder@draco@@@draco@@AEAA?AV?$unique_ptr@VPointsSequencer@draco@@U?$default_delete@VPointsSequencer@draco@@@std@@@std@@PEAUMeshAttributeIndicesEncodingData@1@@Z
	??$CreateVertexTraversalSequencer@V?$MaxPredictionDegreeTraverser@VCornerTable@draco@@V?$MeshAttributeIndicesEncodingObserver@VCornerTable@draco@@@2@@draco@@@?$MeshEdgebreakerDecoderImpl@VMeshEdgebreakerTraversalPredictiveDecoder@draco@@@draco@@AEAA?AV?$unique_ptr@VPointsSequencer@draco@@U?$default_delete@VPointsSequencer@draco@@@std@@@std@@PEAUMeshAttributeIndicesEncodingData@1@@Z
	??$CreateVertexTraversalSequencer@V?$MaxPredictionDegreeTraverser@VCornerTable@draco@@V?$MeshAttributeIndicesEncodingObserver@VCornerTable@draco@@@2@@draco@@@?$MeshEdgebreakerDecoderImpl@VMeshEdgebreakerTraversalValenceDecoder@draco@@@draco@@AEAA?AV?$unique_ptr@VPointsSequencer@draco@@U?$default_delete@VPointsSequencer@draco@@@std@@@std@@PEAUMeshAttributeIndicesEncodingData@1@@Z
	??$CreateVertexTraversalSequencer@V?$MaxPredictionDegreeTraverser@VCornerTable@draco@@V?$MeshAttributeIndicesEncodingObserver@VCornerTable@draco@@@2@@draco@@@?$MeshEdgebreakerEncoderImpl@VMeshEdgebreakerTraversalEncoder@draco@@@draco@@AEAA?AV?$unique_ptr@VPointsSequencer@draco@@U?$default_delete@VPointsSequencer@draco@@@std@@@std@@PEAUMeshAttributeIndicesEncodingData@1@@Z
	??$CreateVertexTraversalSequencer@V?$MaxPredictionDegreeTraverser@VCornerTable@draco@@V?$MeshAttributeIndicesEncodingObserver@VCornerTable@draco@@@2@@draco@@@?$MeshEdgebreakerEncoderImpl@VMeshEdgebreakerTraversalPredictiveEncoder@draco@@@draco@@AEAA?AV?$unique_ptr@VPointsSequencer@draco@@U?$default_delete@VPointsSequencer@draco@@@std@@@std@@PEAUMeshAttributeIndicesEncodingData@1@@Z
	??$CreateVertexTraversalSequencer@V?$MaxPredictionDegreeTraverser@VCornerTable@draco@@V?$MeshAttributeIndicesEncodingObserver@VCornerTable@draco@@@2@@draco@@@?$MeshEdgebreakerEncoderImpl@VMeshEdgebreakerTraversalValenceEncoder@draco@@@draco@@AEAA?AV?$unique_ptr@VPointsSequencer@draco@@U?$default_delete@VPointsSequencer@draco@@@std@@@std@@PEAUMeshAttributeIndicesEncodingData@1@@Z
	??$CrossProduct@M@draco@@YA?AV?$VectorD@M$02@0@AEBV10@0@Z
	??$CrossProduct@_J@draco@@YA?AV?$VectorD@_J$02@0@AEBV10@0@Z
	??$Decode@C@DecoderBuffer@draco@@QEAA_NPEAC@Z
	??$Decode@D@DecoderBuffer@draco@@QEAA_NPEAD@Z
	??$Decode@E@DecoderBuffer@draco@@QEAA_NPEAE@Z
	??$Decode@G@DecoderBuffer@draco@@QEAA_NPEAG@Z
	??$Decode@H@DecoderBuffer@draco@@QEAA_NPEAH@Z
	??$Decode@I@DecoderBuffer@draco@@QEAA_NPEAI@Z
	??$Decode@M@DecoderBuffer@draco@@QEAA_NPEAM@Z
	??$Decode@UHoleEventData@draco@@@DecoderBuffer@draco@@QEAA_NPEAUHoleEventData@1@@Z
	??$Decode@_K@DecoderBuffer@draco@@QEAA_NPEA_K@Z
	??$DecodeInternal@V?$ConversionOutputIterator@V?$back_insert_iterator@V?$vector@V?$VectorD@I$02@draco@@V?$allocator@V?$VectorD@I$02@draco@@@std@@@std@@@std@@UConverter@draco@@@draco@@@?$DynamicIntegerPointsKdTreeDecoder@$00@draco@@AEAA_NIAEAV?$ConversionOutputIterator@V?$back_insert_iterator@V?$vector@V?$VectorD@I$02@draco@@V?$allocator@V?$VectorD@I$02@draco@@@std@@@std@@@std@@UConverter@draco@@@1@@Z
	??$DecodeInternal@V?$ConversionOutputIterator@V?$back_insert_iterator@V?$vector@V?$VectorD@I$02@draco@@V?$allocator@V?$VectorD@I$02@draco@@@std@@@std@@@std@@UConverter@draco@@@draco@@@?$DynamicIntegerPointsKdTreeDecoder@$01@draco@@AEAA_NIAEAV?$ConversionOutputIterator@V?$back_insert_iterator@V?$vector@V?$VectorD@I$02@draco@@V?$allocator@V?$VectorD@I$02@draco@@@std@@@std@@@std@@UConverter@draco@@@1@@Z
	??$DecodeInternal@V?$ConversionOutputIterator@V?$back_insert_iterator@V?$vector@V?$VectorD@I$02@draco@@V?$allocator@V?$VectorD@I$02@draco@@@std@@@std@@@std@@UConverter@draco@@@draco@@@?$DynamicIntegerPointsKdTreeDecoder@$02@draco@@AEAA_NIAEAV?$ConversionOutputIterator@V?$back_insert_iterator@V?$vector@V?$VectorD@I$02@draco@@V?$allocator@V?$VectorD@I$02@draco@@@std@@@std@@@std@@UConverter@draco@@@1@@Z
	??$DecodeInternal@V?$ConversionOutputIterator@V?$back_insert_iterator@V?$vector@V?$VectorD@I$02@draco@@V?$allocator@V?$VectorD@I$02@draco@@@std@@@std@@@std@@UConverter@draco@@@draco@@@?$DynamicIntegerPointsKdTreeDecoder@$03@draco@@AEAA_NIAEAV?$ConversionOutputIterator@V?$back_insert_iterator@V?$vector@V?$VectorD@I$02@draco@@V?$allocator@V?$VectorD@I$02@draco@@@std@@@std@@@std@@UConverter@draco@@@1@@Z
	??$DecodeInternal@V?$ConversionOutputIterator@V?$back_insert_iterator@V?$vector@V?$VectorD@I$02@draco@@V?$allocator@V?$VectorD@I$02@draco@@@std@@@std@@@std@@UConverter@draco@@@draco@@@?$DynamicIntegerPointsKdTreeDecoder@$04@draco@@AEAA_NIAEAV?$ConversionOutputIterator@V?$back_insert_iterator@V?$vector@V?$VectorD@I$02@draco@@V?$allocator@V?$VectorD@I$02@draco@@@std@@@std@@@std@@UConverter@draco@@@1@@Z
	??$DecodeInternal@V?$ConversionOutputIterator@V?$back_insert_iterator@V?$vector@V?$VectorD@I$02@draco@@V?$allocator@V?$VectorD@I$02@draco@@@std@@@std@@@std@@UConverter@draco@@@draco@@@?$DynamicIntegerPointsKdTreeDecoder@$05@draco@@AEAA_NIAEAV?$ConversionOutputIterator@V?$back_insert_iterator@V?$vector@V?$VectorD@I$02@draco@@V?$allocator@V?$VectorD@I$02@draco@@@std@@@std@@@std@@UConverter@draco@@@1@@Z
	??$DecodeInternal@V?$ConversionOutputIterator@V?$back_insert_iterator@V?$vector@V?$VectorD@I$02@draco@@V?$allocator@V?$VectorD@I$02@draco@@@std@@@std@@@std@@UConverter@draco@@@draco@@@?$DynamicIntegerPointsKdTreeDecoder@$0A@@draco@@AEAA_NIAEAV?$ConversionOutputIterator@V?$back_insert_iterator@V?$vector@V?$VectorD@I$02@draco@@V?$allocator@V?$VectorD@I$02@draco@@@std@@@std@@@std@@UConverter@draco@@@1@@Z
	??$DecodeInternal@V?$PointAttributeVectorOutputIterator@I@draco@@@?$DynamicIntegerPointsKdTreeDecoder@$00@draco@@AEAA_NIAEAV?$PointAttributeVectorOutputIterator@I@1@@Z
	??$DecodeInternal@V?$PointAttributeVectorOutputIterator@I@draco@@@?$DynamicIntegerPointsKdTreeDecoder@$01@draco@@AEAA_NIAEAV?$PointAttributeVectorOutputIterator@I@1@@Z
	??$DecodeInternal@V?$PointAttributeVectorOutputIterator@I@draco@@@?$DynamicIntegerPointsKdTreeDecoder@$02@draco@@AEAA_NIAEAV?$PointAttributeVectorOutputIterator@I@1@@Z
	??$DecodeInternal@V?$PointAttributeVectorOutputIterator@I@draco@@@?$DynamicIntegerPointsKdTreeDecoder@$03@draco@@AEAA_NIAEAV?$PointAttributeVectorOutputIterator@I@1@@Z
	??$DecodeInternal@V?$PointAttributeVectorOutputIterator@I@draco@@@?$DynamicIntegerPointsKdTreeDecoder@$04@draco@@AEAA_NIAEAV?$PointAttributeVectorOutputIterator@I@1@@Z
	??$DecodeInternal@V?$PointAttributeVectorOutputIterator@I@draco@@@?$DynamicIntegerPointsKdTreeDecoder@$05@draco@@AEAA_NIAEAV?$PointAttributeVectorOutputIterator@I@1@@Z
	??$DecodeInternal@V?$PointAttributeVectorOutputIterator@I@draco@@@?$DynamicIntegerPointsKdTreeDecoder@$0A@@draco@@AEAA_NIAEAV?$PointAttributeVectorOutputIterator@I@1@@Z
	??$DecodePointCloud@V?$PointAttributeVectorOutputIterator@M@draco@@@FloatPointsTreeDecoder@draco@@QEAA_NPEAVDecoderBuffer@1@AEAV?$PointAttributeVectorOutputIterator@M@1@@Z
	??$DecodePoints@$00V?$PointAttributeVectorOutputIterator@I@draco@@@KdTreeAttributesDecoder@draco@@AEAA_NHHPEAVDecoderBuffer@1@PEAV?$PointAttributeVectorOutputIterator@I@1@@Z
	??$DecodePoints@$01V?$PointAttributeVectorOutputIterator@I@draco@@@KdTreeAttributesDecoder@draco@@AEAA_NHHPEAVDecoderBuffer@1@PEAV?$PointAttributeVectorOutputIterator@I@1@@Z
	??$DecodePoints@$02V?$PointAttributeVectorOutputIterator@I@draco@@@KdTreeAttributesDecoder@draco@@AEAA_NHHPEAVDecoderBuffer@1@PEAV?$PointAttributeVectorOutputIterator@I@1@@Z
	??$DecodePoints@$03V?$PointAttributeVectorOutputIterator@I@draco@@@KdTreeAttributesDecoder@draco@@AEAA_NHHPEAVDecoderBuffer@1@PEAV?$PointAttributeVectorOutputIterator@I@1@@Z
	??$DecodePoints@$04V?$PointAttributeVectorOutputIterator@I@draco@@@KdTreeAttributesDecoder@draco@@AEAA_NHHPEAVDecoderBuffer@1@PEAV?$PointAttributeVectorOutputIterator@I@1@@Z
	??$DecodePoints@$05V?$PointAttributeVectorOutputIterator@I@draco@@@KdTreeAttributesDecoder@draco@@AEAA_NHHPEAVDecoderBuffer@1@PEAV?$PointAttributeVectorOutputIterator@I@1@@Z
	??$DecodePoints@$0A@V?$PointAttributeVectorOutputIterator@I@draco@@@KdTreeAttributesDecoder@draco@@AEAA_NHHPEAVDecoderBuffer@1@PEAV?$PointAttributeVectorOutputIterator@I@1@@Z
	??$DecodePoints@V?$ConversionOutputIterator@V?$back_insert_iterator@V?$vector@V?$VectorD@I$02@draco@@V?$allocator@V?$VectorD@I$02@draco@@@std@@@std@@@std@@UConverter@draco@@@draco@@@?$DynamicIntegerPointsKdTreeDecoder@$00@draco@@QEAA_NPEAVDecoderBuffer@1@AEAV?$ConversionOutputIterator@V?$back_insert_iterator@V?$vector@V?$VectorD@I$02@draco@@V?$allocator@V?$VectorD@I$02@draco@@@std@@@std@@@std@@UConverter@draco@@@1@@Z
	??$DecodePoints@V?$ConversionOutputIterator@V?$back_insert_iterator@V?$vector@V?$VectorD@I$02@draco@@V?$allocator@V?$VectorD@I$02@draco@@@std@@@std@@@std@@UConverter@draco@@@draco@@@?$DynamicIntegerPointsKdTreeDecoder@$00@draco@@QEAA_NPEAVDecoderBuffer@1@AEAV?$ConversionOutputIterator@V?$back_insert_iterator@V?$vector@V?$VectorD@I$02@draco@@V?$allocator@V?$VectorD@I$02@draco@@@std@@@std@@@std@@UConverter@draco@@@1@I@Z
	??$DecodePoints@V?$ConversionOutputIterator@V?$back_insert_iterator@V?$vector@V?$VectorD@I$02@draco@@V?$allocator@V?$VectorD@I$02@draco@@@std@@@std@@@std@@UConverter@draco@@@draco@@@?$DynamicIntegerPointsKdTreeDecoder@$01@draco@@QEAA_NPEAVDecoderBuffer@1@AEAV?$ConversionOutputIterator@V?$back_insert_iterator@V?$vector@V?$VectorD@I$02@draco@@V?$allocator@V?$VectorD@I$02@draco@@@std@@@std@@@std@@UConverter@draco@@@1@@Z
	??$DecodePoints@V?$ConversionOutputIterator@V?$back_insert_iterator@V?$vector@V?$VectorD@I$02@draco@@V?$allocator@V?$VectorD@I$02@draco@@@std@@@std@@@std@@UConverter@draco@@@draco@@@?$DynamicIntegerPointsKdTreeDecoder@$01@draco@@QEAA_NPEAVDecoderBuffer@1@AEAV?$ConversionOutputIterator@V?$back_insert_iterator@V?$vector@V?$VectorD@I$02@draco@@V?$allocator@V?$VectorD@I$02@draco@@@std@@@std@@@std@@UConverter@draco@@@1@I@Z
	??$DecodePoints@V?$ConversionOutputIterator@V?$back_insert_iterator@V?$vector@V?$VectorD@I$02@draco@@V?$allocator@V?$VectorD@I$02@draco@@@std@@@std@@@std@@UConverter@draco@@@draco@@@?$DynamicIntegerPointsKdTreeDecoder@$02@draco@@QEAA_NPEAVDecoderBuffer@1@AEAV?$ConversionOutputIterator@V?$back_insert_iterator@V?$vector@V?$VectorD@I$02@draco@@V?$allocator@V?$VectorD@I$02@draco@@@std@@@std@@@std@@UConverter@draco@@@1@@Z
	??$DecodePoints@V?$ConversionOutputIterator@V?$back_insert_iterator@V?$vector@V?$VectorD@I$02@draco@@V?$allocator@V?$VectorD@I$02@draco@@@std@@@std@@@std@@UConverter@draco@@@draco@@@?$DynamicIntegerPointsKdTreeDecoder@$02@draco@@QEAA_NPEAVDecoderBuffer@1@AEAV?$ConversionOutputIterator@V?$back_insert_iterator@V?$vector@V?$VectorD@I$02@draco@@V?$allocator@V?$VectorD@I$02@draco@@@std@@@std@@@std@@UConverter@draco@@@1@I@Z
	??$DecodePoints@V?$ConversionOutputIterator@V?$back_insert_iterator@V?$vector@V?$VectorD@I$02@draco@@V?$allocator@V?$VectorD@I$02@draco@@@std@@@std@@@std@@UConverter@draco@@@draco@@@?$DynamicIntegerPointsKdTreeDecoder@$03@draco@@QEAA_NPEAVDecoderBuffer@1@AEAV?$ConversionOutputIterator@V?$back_insert_iterator@V?$vector@V?$VectorD@I$02@draco@@V?$allocator@V?$VectorD@I$02@draco@@@std@@@std@@@std@@UConverter@draco@@@1@@Z
	??$DecodePoints@V?$ConversionOutputIterator@V?$back_insert_iterator@V?$vector@V?$VectorD@I$02@draco@@V?$allocator@V?$VectorD@I$02@draco@@@std@@@std@@@std@@UConverter@draco@@@draco@@@?$DynamicIntegerPointsKdTreeDecoder@$03@draco@@QEAA_NPEAVDecoderBuffer@1@AEAV?$ConversionOutputIterator@V?$back_insert_iterator@V?$vector@V?$VectorD@I$02@draco@@V?$allocator@V?$VectorD@I$02@draco@@@std@@@std@@@std@@UConverter@draco@@@1@I@Z
	??$DecodePoints@V?$ConversionOutputIterator@V?$back_insert_iterator@V?$vector@V?$VectorD@I$02@draco@@V?$allocator@V?$VectorD@I$02@draco@@@std@@@std@@@std@@UConverter@draco@@@draco@@@?$DynamicIntegerPointsKdTreeDecoder@$04@draco@@QEAA_NPEAVDecoderBuffer@1@AEAV?$ConversionOutputIterator@V?$back_insert_iterator@V?$vector@V?$VectorD@I$02@draco@@V?$allocator@V?$VectorD@I$02@draco@@@std@@@std@@@std@@UConverter@draco@@@1@@Z
	??$DecodePoints@V?$ConversionOutputIterator@V?$back_insert_iterator@V?$vector@V?$VectorD@I$02@draco@@V?$allocator@V?$VectorD@I$02@draco@@@std@@@std@@@std@@UConverter@draco@@@draco@@@?$DynamicIntegerPointsKdTreeDecoder@$04@draco@@QEAA_NPEAVDecoderBuffer@1@AEAV?$ConversionOutputIterator@V?$back_insert_iterator@V?$vector@V?$VectorD@I$02@draco@@V?$allocator@V?$VectorD@I$02@draco@@@std@@@std@@@std@@UConverter@draco@@@1@I@Z
	??$DecodePoints@V?$ConversionOutputIterator@V?$back_insert_iterator@V?$vector@V?$VectorD@I$02@draco@@V?$allocator@V?$VectorD@I$02@draco@@@std@@@std@@@std@@UConverter@draco@@@draco@@@?$DynamicIntegerPointsKdTreeDecoder@$05@draco@@QEAA_NPEAVDecoderBuffer@1@AEAV?$ConversionOutputIterator@V?$back_insert_iterator@V?$vector@V?$VectorD@I$02@draco@@V?$allocator@V?$VectorD@I$02@draco@@@std@@@std@@@std@@UConverter@draco@@@1@@Z
	??$DecodePoints@V?$ConversionOutputIterator@V?$back_insert_iterator@V?$vector@V?$VectorD@I$02@draco@@V?$allocator@V?$VectorD@I$02@draco@@@std@@@std@@@std@@UConverter@draco@@@draco@@@?$DynamicIntegerPointsKdTreeDecoder@$05@draco@@QEAA_NPEAVDecoderBuffer@1@AEAV?$ConversionOutputIterator@V?$back_insert_iterator@V?$vector@V?$VectorD@I$02@draco@@V?$allocator@V?$VectorD@I$02@draco@@@std@@@std@@@std@@UConverter@draco@@@1@I@Z
	??$DecodePoints@V?$ConversionOutputIterator@V?$back_insert_iterator@V?$vector@V?$VectorD@I$02@draco@@V?$allocator@V?$VectorD@I$02@draco@@@std@@@std@@@std@@UConverter@draco@@@draco@@@?$DynamicIntegerPointsKdTreeDecoder@$0A@@draco@@QEAA_NPEAVDecoderBuffer@1@AEAV?$ConversionOutputIterator@V?$back_insert_iterator@V?$vector@V?$VectorD@I$02@draco@@V?$allocator@V?$VectorD@I$02@draco@@@std@@@std@@@std@@UConverter@draco@@@1@@Z
	??$DecodePoints@V?$ConversionOutputIterator@V?$back_insert_iterator@V?$vector@V?$VectorD@I$02@draco@@V?$allocator@V?$VectorD@I$02@draco@@@std@@@std@@@std@@UConverter@draco@@@draco@@@?$DynamicIntegerPointsKdTreeDecoder@$0A@@draco@@QEAA_NPEAVDecoderBuffer@1@AEAV?$ConversionOutputIterator@V?$back_insert_iterator@V?$vector@V?$VectorD@I$02@draco@@V?$allocator@V?$VectorD@I$02@draco@@@std@@@std@@@std@@UConverter@draco@@@1@I@Z
	??$DecodePoints@V?$PointAttributeVectorOutputIterator@I@draco@@@?$DynamicIntegerPointsKdTreeDecoder@$00@draco@@QEAA_NPEAVDecoderBuffer@1@AEAV?$PointAttributeVectorOutputIterator@I@1@@Z
	??$DecodePoints@V?$PointAttributeVectorOutputIterator@I@draco@@@?$DynamicIntegerPointsKdTreeDecoder@$00@draco@@QEAA_NPEAVDecoderBuffer@1@AEAV?$PointAttributeVectorOutputIterator@I@1@I@Z
	??$DecodePoints@V?$PointAttributeVectorOutputIterator@I@draco@@@?$DynamicIntegerPointsKdTreeDecoder@$01@draco@@QEAA_NPEAVDecoderBuffer@1@AEAV?$PointAttributeVectorOutputIterator@I@1@@Z
	??$DecodePoints@V?$PointAttributeVectorOutputIterator@I@draco@@@?$DynamicIntegerPointsKdTreeDecoder@$01@draco@@QEAA_NPEAVDecoderBuffer@1@AEAV?$PointAttributeVectorOutputIterator@I@1@I@Z
	??$DecodePoints@V?$PointAttributeVectorOutputIterator@I@draco@@@?$DynamicIntegerPointsKdTreeDecoder@$02@draco@@QEAA_NPEAVDecoderBuffer@1@AEAV?$PointAttributeVectorOutputIterator@I@1@@Z
	??$DecodePoints@V?$PointAttributeVectorOutputIterator@I@draco@@@?$DynamicIntegerPointsKdTreeDecoder@$02@draco@@QEAA_NPEAVDecoderBuffer@1@AEAV?$PointAttributeVectorOutputIterator@I@1@I@Z
	??$DecodePoints@V?$PointAttributeVectorOutputIterator@I@draco@@@?$DynamicIntegerPointsKdTreeDecoder@$03@draco@@QEAA_NPEAVDecoderBuffer@1@AEAV?$PointAttributeVectorOutputIterator@I@1@@Z
	??$DecodePoints@V?$PointAttributeVectorOutputIterator@I@draco@@@?$DynamicIntegerPointsKdTreeDecoder@$03@draco@@QEAA_NPEAVDecoderBuffer@1@AEAV?$PointAttributeVectorOutputIterator@I@1@I@Z
	??$DecodePoints@V?$PointAttributeVectorOutputIterator@I@draco@@@?$DynamicIntegerPointsKdTreeDecoder@$04@draco@@QEAA_NPEAVDecoderBuffer@1@AEAV?$PointAttributeVectorOutputIterator@I@1@@Z
	??$DecodePoints@V?$PointAttributeVectorOutputIterator@I@draco@@@?$DynamicIntegerPointsKdTreeDecoder@$04@draco@@QEAA_NPEAVDecoderBuffer@1@AEAV?$PointAttributeVectorOutputIterator@I@1@I@Z
	??$DecodePoints@V?$PointAttributeVectorOutputIterator@I@draco@@@?$DynamicIntegerPointsKdTreeDecoder@$05@draco@@QEAA_NPEAVDecoderBuffer@1@AEAV?$PointAttributeVectorOutputIterator@I@1@@Z
	??$DecodePoints@V?$PointAttributeVectorOutputIterator@I@draco@@@?$DynamicIntegerPointsKdTreeDecoder@$05@draco@@QEAA_NPEAVDecoderBuffer@1@AEAV?$PointAttributeVectorOutputIterator@I@1@I@Z
	??$DecodePoints@V?$PointAttributeVectorOutputIterator@I@draco@@@?$DynamicIntegerPointsKdTreeDecoder@$0A@@draco@@QEAA_NPEAVDecoderBuffer@1@AEAV?$PointAttributeVectorOutputIterator@I@1@@Z
	??$DecodePoints@V?$PointAttributeVectorOutputIterator@I@draco@@@?$DynamicIntegerPointsKdTreeDecoder@$0A@@draco@@QEAA_NPEAVDecoderBuffer@1@AEAV?$PointAttributeVectorOutputIterator@I@1@I@Z
	??$DecodeRawSymbols@VRAnsSymbolDecoder@draco@@@draco@@YA_NIPEAVDecoderBuffer@0@PEAI@Z
	??$DecodeRawSymbolsInternal@V?$RAnsSymbolDecoder@$00@draco@@@draco@@YA_NIPEAVDecoderBuffer@0@PEAI@Z
	??$DecodeRawSymbolsInternal@V?$RAnsSymbolDecoder@$01@draco@@@draco@@YA_NIPEAVDecoderBuffer@0@PEAI@Z
	??$DecodeRawSymbolsInternal@V?$RAnsSymbolDecoder@$02@draco@@@draco@@YA_NIPEAVDecoderBuffer@0@PEAI@Z
	??$DecodeRawSymbolsInternal@V?$RAnsSymbolDecoder@$03@draco@@@draco@@YA_NIPEAVDecoderBuffer@0@PEAI@Z
	??$DecodeRawSymbolsInternal@V?$RAnsSymbolDecoder@$04@draco@@@draco@@YA_NIPEAVDecoderBuffer@0@PEAI@Z
	??$DecodeRawSymbolsInternal@V?$RAnsSymbolDecoder@$05@draco@@@draco@@YA_NIPEAVDecoderBuffer@0@PEAI@Z
	??$DecodeRawSymbolsInternal@V?$RAnsSymbolDecoder@$06@draco@@@draco@@YA_NIPEAVDecoderBuffer@0@PEAI@Z
	??$DecodeRawSymbolsInternal@V?$RAnsSymbolDecoder@$07@draco@@@draco@@YA_NIPEAVDecoderBuffer@0@PEAI@Z
	??$DecodeRawSymbolsInternal@V?$RAnsSymbolDecoder@$08@draco@@@draco@@YA_NIPEAVDecoderBuffer@0@PEAI@Z
	??$DecodeRawSymbolsInternal@V?$RAnsSymbolDecoder@$09@draco@@@draco@@YA_NIPEAVDecoderBuffer@0@PEAI@Z
	??$DecodeRawSymbolsInternal@V?$RAnsSymbolDecoder@$0BA@@draco@@@draco@@YA_NIPEAVDecoderBuffer@0@PEAI@Z
	??$DecodeRawSymbolsInternal@V?$RAnsSymbolDecoder@$0BB@@draco@@@draco@@YA_NIPEAVDecoderBuffer@0@PEAI@Z
	??$DecodeRawSymbolsInternal@V?$RAnsSymbolDecoder@$0BC@@draco@@@draco@@YA_NIPEAVDecoderBuffer@0@PEAI@Z
	??$DecodeRawSymbolsInternal@V?$RAnsSymbolDecoder@$0L@@draco@@@draco@@YA_NIPEAVDecoderBuffer@0@PEAI@Z
	??$DecodeRawSymbolsInternal@V?$RAnsSymbolDecoder@$0M@@draco@@@draco@@YA_NIPEAVDecoderBuffer@0@PEAI@Z
	??$DecodeRawSymbolsInternal@V?$RAnsSymbolDecoder@$0N@@draco@@@draco@@YA_NIPEAVDecoderBuffer@0@PEAI@Z
	??$DecodeRawSymbolsInternal@V?$RAnsSymbolDecoder@$0O@@draco@@@draco@@YA_NIPEAVDecoderBuffer@0@PEAI@Z
	??$DecodeRawSymbolsInternal@V?$RAnsSymbolDecoder@$0P@@draco@@@draco@@YA_NIPEAVDecoderBuffer@0@PEAI@Z
	??$DecodeTaggedSymbols@VRAnsSymbolDecoder@draco@@@draco@@YA_NIHPEAVDecoderBuffer@0@PEAI@Z
	??$DecodeVarint@H@draco@@YA_NPEAHPEAVDecoderBuffer@0@@Z
	??$DecodeVarint@I@draco@@YA_NPEAIPEAVDecoderBuffer@0@@Z
	??$DecodeVarint@_K@draco@@YA_NPEA_KPEAVDecoderBuffer@0@@Z
	??$DeduplicateFormattedValues@C$00@PointAttribute@draco@@AEAAIAEBVGeometryAttribute@1@V?$IndexType@IUAttributeValueIndex_tag_type_@draco@@@1@@Z
	??$DeduplicateFormattedValues@C$01@PointAttribute@draco@@AEAAIAEBVGeometryAttribute@1@V?$IndexType@IUAttributeValueIndex_tag_type_@draco@@@1@@Z
	??$DeduplicateFormattedValues@C$02@PointAttribute@draco@@AEAAIAEBVGeometryAttribute@1@V?$IndexType@IUAttributeValueIndex_tag_type_@draco@@@1@@Z
	??$DeduplicateFormattedValues@C$03@PointAttribute@draco@@AEAAIAEBVGeometryAttribute@1@V?$IndexType@IUAttributeValueIndex_tag_type_@draco@@@1@@Z
	??$DeduplicateFormattedValues@E$00@PointAttribute@draco@@AEAAIAEBVGeometryAttribute@1@V?$IndexType@IUAttributeValueIndex_tag_type_@draco@@@1@@Z
	??$DeduplicateFormattedValues@E$01@PointAttribute@draco@@AEAAIAEBVGeometryAttribute@1@V?$IndexType@IUAttributeValueIndex_tag_type_@draco@@@1@@Z
	??$DeduplicateFormattedValues@E$02@PointAttribute@draco@@AEAAIAEBVGeometryAttribute@1@V?$IndexType@IUAttributeValueIndex_tag_type_@draco@@@1@@Z
	??$DeduplicateFormattedValues@E$03@PointAttribute@draco@@AEAAIAEBVGeometryAttribute@1@V?$IndexType@IUAttributeValueIndex_tag_type_@draco@@@1@@Z
	??$DeduplicateFormattedValues@F$00@PointAttribute@draco@@AEAAIAEBVGeometryAttribute@1@V?$IndexType@IUAttributeValueIndex_tag_type_@draco@@@1@@Z
	??$DeduplicateFormattedValues@F$01@PointAttribute@draco@@AEAAIAEBVGeometryAttribute@1@V?$IndexType@IUAttributeValueIndex_tag_type_@draco@@@1@@Z
	??$DeduplicateFormattedValues@F$02@PointAttribute@draco@@AEAAIAEBVGeometryAttribute@1@V?$IndexType@IUAttributeValueIndex_tag_type_@draco@@@1@@Z
	??$DeduplicateFormattedValues@F$03@PointAttribute@draco@@AEAAIAEBVGeometryAttribute@1@V?$IndexType@IUAttributeValueIndex_tag_type_@draco@@@1@@Z
	??$DeduplicateFormattedValues@G$00@PointAttribute@draco@@AEAAIAEBVGeometryAttribute@1@V?$IndexType@IUAttributeValueIndex_tag_type_@draco@@@1@@Z
	??$DeduplicateFormattedValues@G$01@PointAttribute@draco@@AEAAIAEBVGeometryAttribute@1@V?$IndexType@IUAttributeValueIndex_tag_type_@draco@@@1@@Z
	??$DeduplicateFormattedValues@G$02@PointAttribute@draco@@AEAAIAEBVGeometryAttribute@1@V?$IndexType@IUAttributeValueIndex_tag_type_@draco@@@1@@Z
	??$DeduplicateFormattedValues@G$03@PointAttribute@draco@@AEAAIAEBVGeometryAttribute@1@V?$IndexType@IUAttributeValueIndex_tag_type_@draco@@@1@@Z
	??$DeduplicateFormattedValues@H$00@PointAttribute@draco@@AEAAIAEBVGeometryAttribute@1@V?$IndexType@IUAttributeValueIndex_tag_type_@draco@@@1@@Z
	??$DeduplicateFormattedValues@H$01@PointAttribute@draco@@AEAAIAEBVGeometryAttribute@1@V?$IndexType@IUAttributeValueIndex_tag_type_@draco@@@1@@Z
	??$DeduplicateFormattedValues@H$02@PointAttribute@draco@@AEAAIAEBVGeometryAttribute@1@V?$IndexType@IUAttributeValueIndex_tag_type_@draco@@@1@@Z
	??$DeduplicateFormattedValues@H$03@PointAttribute@draco@@AEAAIAEBVGeometryAttribute@1@V?$IndexType@IUAttributeValueIndex_tag_type_@draco@@@1@@Z
	??$DeduplicateFormattedValues@I$00@PointAttribute@draco@@AEAAIAEBVGeometryAttribute@1@V?$IndexType@IUAttributeValueIndex_tag_type_@draco@@@1@@Z
	??$DeduplicateFormattedValues@I$01@PointAttribute@draco@@AEAAIAEBVGeometryAttribute@1@V?$IndexType@IUAttributeValueIndex_tag_type_@draco@@@1@@Z
	??$DeduplicateFormattedValues@I$02@PointAttribute@draco@@AEAAIAEBVGeometryAttribute@1@V?$IndexType@IUAttributeValueIndex_tag_type_@draco@@@1@@Z
	??$DeduplicateFormattedValues@I$03@PointAttribute@draco@@AEAAIAEBVGeometryAttribute@1@V?$IndexType@IUAttributeValueIndex_tag_type_@draco@@@1@@Z
	??$DeduplicateFormattedValues@M$00@PointAttribute@draco@@AEAAIAEBVGeometryAttribute@1@V?$IndexType@IUAttributeValueIndex_tag_type_@draco@@@1@@Z
	??$DeduplicateFormattedValues@M$01@PointAttribute@draco@@AEAAIAEBVGeometryAttribute@1@V?$IndexType@IUAttributeValueIndex_tag_type_@draco@@@1@@Z
	??$DeduplicateFormattedValues@M$02@PointAttribute@draco@@AEAAIAEBVGeometryAttribute@1@V?$IndexType@IUAttributeValueIndex_tag_type_@draco@@@1@@Z
	??$DeduplicateFormattedValues@M$03@PointAttribute@draco@@AEAAIAEBVGeometryAttribute@1@V?$IndexType@IUAttributeValueIndex_tag_type_@draco@@@1@@Z
	??$DeduplicateTypedValues@C@PointAttribute@draco@@AEAAIAEBVGeometryAttribute@1@V?$IndexType@IUAttributeValueIndex_tag_type_@draco@@@1@@Z
	??$DeduplicateTypedValues@E@PointAttribute@draco@@AEAAIAEBVGeometryAttribute@1@V?$IndexType@IUAttributeValueIndex_tag_type_@draco@@@1@@Z
	??$DeduplicateTypedValues@F@PointAttribute@draco@@AEAAIAEBVGeometryAttribute@1@V?$IndexType@IUAttributeValueIndex_tag_type_@draco@@@1@@Z
	??$DeduplicateTypedValues@G@PointAttribute@draco@@AEAAIAEBVGeometryAttribute@1@V?$IndexType@IUAttributeValueIndex_tag_type_@draco@@@1@@Z
	??$DeduplicateTypedValues@H@PointAttribute@draco@@AEAAIAEBVGeometryAttribute@1@V?$IndexType@IUAttributeValueIndex_tag_type_@draco@@@1@@Z
	??$DeduplicateTypedValues@I@PointAttribute@draco@@AEAAIAEBVGeometryAttribute@1@V?$IndexType@IUAttributeValueIndex_tag_type_@draco@@@1@@Z
	??$DeduplicateTypedValues@M@PointAttribute@draco@@AEAAIAEBVGeometryAttribute@1@V?$IndexType@IUAttributeValueIndex_tag_type_@draco@@@1@@Z
	??$DequantizePoints3@V?$_Vector_iterator@V?$_Vector_val@U?$_Simple_types@V?$VectorD@I$02@draco@@@std@@@std@@@std@@V?$PointAttributeVectorOutputIterator@M@draco@@@draco@@YAXAEBV?$_Vector_iterator@V?$_Vector_val@U?$_Simple_types@V?$VectorD@I$02@draco@@@std@@@std@@@std@@0AEBUQuantizationInfo@0@AEAV?$PointAttributeVectorOutputIterator@M@0@@Z
	??$Encode@C@EncoderBuffer@draco@@QEAA_NAEBC@Z
	??$Encode@D@EncoderBuffer@draco@@QEAA_NAEBD@Z
	??$Encode@E@EncoderBuffer@draco@@QEAA_NAEBE@Z
	??$Encode@G@EncoderBuffer@draco@@QEAA_NAEBG@Z
	??$Encode@H@EncoderBuffer@draco@@QEAA_NAEBH@Z
	??$Encode@I@EncoderBuffer@draco@@QEAA_NAEBI@Z
	??$Encode@M@EncoderBuffer@draco@@QEAA_NAEBM@Z
	??$Encode@V?$IndexType@IUPointIndex_tag_type_@draco@@@draco@@@EncoderBuffer@draco@@QEAA_NAEBV?$IndexType@IUPointIndex_tag_type_@draco@@@1@@Z
	??$Encode@V?$array@V?$IndexType@IUPointIndex_tag_type_@draco@@@draco@@$02@std@@@EncoderBuffer@draco@@QEAA_NAEBV?$array@V?$IndexType@IUPointIndex_tag_type_@draco@@@draco@@$02@std@@@Z
	??$EncodeInternal@V?$_Vector_iterator@V?$_Vector_val@U?$_Simple_types@V?$VectorD@I$02@draco@@@std@@@std@@@std@@@?$DynamicIntegerPointsKdTreeEncoder@$00@draco@@AEAAXV?$_Vector_iterator@V?$_Vector_val@U?$_Simple_types@V?$VectorD@I$02@draco@@@std@@@std@@@std@@0@Z
	??$EncodeInternal@V?$_Vector_iterator@V?$_Vector_val@U?$_Simple_types@V?$VectorD@I$02@draco@@@std@@@std@@@std@@@?$DynamicIntegerPointsKdTreeEncoder@$01@draco@@AEAAXV?$_Vector_iterator@V?$_Vector_val@U?$_Simple_types@V?$VectorD@I$02@draco@@@std@@@std@@@std@@0@Z
	??$EncodeInternal@V?$_Vector_iterator@V?$_Vector_val@U?$_Simple_types@V?$VectorD@I$02@draco@@@std@@@std@@@std@@@?$DynamicIntegerPointsKdTreeEncoder@$02@draco@@AEAAXV?$_Vector_iterator@V?$_Vector_val@U?$_Simple_types@V?$VectorD@I$02@draco@@@std@@@std@@@std@@0@Z
	??$EncodeInternal@V?$_Vector_iterator@V?$_Vector_val@U?$_Simple_types@V?$VectorD@I$02@draco@@@std@@@std@@@std@@@?$DynamicIntegerPointsKdTreeEncoder@$03@draco@@AEAAXV?$_Vector_iterator@V?$_Vector_val@U?$_Simple_types@V?$VectorD@I$02@draco@@@std@@@std@@@std@@0@Z
	??$EncodeInternal@V?$_Vector_iterator@V?$_Vector_val@U?$_Simple_types@V?$VectorD@I$02@draco@@@std@@@std@@@std@@@?$DynamicIntegerPointsKdTreeEncoder@$04@draco@@AEAAXV?$_Vector_iterator@V?$_Vector_val@U?$_Simple_types@V?$VectorD@I$02@draco@@@std@@@std@@@std@@0@Z
	??$EncodeInternal@V?$_Vector_iterator@V?$_Vector_val@U?$_Simple_types@V?$VectorD@I$02@draco@@@std@@@std@@@std@@@?$DynamicIntegerPointsKdTreeEncoder@$05@draco@@AEAAXV?$_Vector_iterator@V?$_Vector_val@U?$_Simple_types@V?$VectorD@I$02@draco@@@std@@@std@@@std@@0@Z
	??$EncodeInternal@V?$_Vector_iterator@V?$_Vector_val@U?$_Simple_types@V?$VectorD@I$02@draco@@@std@@@std@@@std@@@?$DynamicIntegerPointsKdTreeEncoder@$0A@@draco@@AEAAXV?$_Vector_iterator@V?$_Vector_val@U?$_Simple_types@V?$VectorD@I$02@draco@@@std@@@std@@@std@@0@Z
	??$EncodeInternal@VPointDVectorIterator@?$PointDVector@I@draco@@@?$DynamicIntegerPointsKdTreeEncoder@$00@draco@@AEAAXVPointDVectorIterator@?$PointDVector@I@1@0@Z
	??$EncodeInternal@VPointDVectorIterator@?$PointDVector@I@draco@@@?$DynamicIntegerPointsKdTreeEncoder@$01@draco@@AEAAXVPointDVectorIterator@?$PointDVector@I@1@0@Z
	??$EncodeInternal@VPointDVectorIterator@?$PointDVector@I@draco@@@?$DynamicIntegerPointsKdTreeEncoder@$02@draco@@AEAAXVPointDVectorIterator@?$PointDVector@I@1@0@Z
	??$EncodeInternal@VPointDVectorIterator@?$PointDVector@I@draco@@@?$DynamicIntegerPointsKdTreeEncoder@$03@draco@@AEAAXVPointDVectorIterator@?$PointDVector@I@1@0@Z
	??$EncodeInternal@VPointDVectorIterator@?$PointDVector@I@draco@@@?$DynamicIntegerPointsKdTreeEncoder@$04@draco@@AEAAXVPointDVectorIterator@?$PointDVector@I@1@0@Z
	??$EncodeInternal@VPointDVectorIterator@?$PointDVector@I@draco@@@?$DynamicIntegerPointsKdTreeEncoder@$05@draco@@AEAAXVPointDVectorIterator@?$PointDVector@I@1@0@Z
	??$EncodeInternal@VPointDVectorIterator@?$PointDVector@I@draco@@@?$DynamicIntegerPointsKdTreeEncoder@$0A@@draco@@AEAAXVPointDVectorIterator@?$PointDVector@I@1@0@Z
	??$EncodePoints@V?$_Vector_iterator@V?$_Vector_val@U?$_Simple_types@V?$VectorD@I$02@draco@@@std@@@std@@@std@@@?$DynamicIntegerPointsKdTreeEncoder@$00@draco@@QEAA_NV?$_Vector_iterator@V?$_Vector_val@U?$_Simple_types@V?$VectorD@I$02@draco@@@std@@@std@@@std@@0AEBIPEAVEncoderBuffer@1@@Z
	??$EncodePoints@V?$_Vector_iterator@V?$_Vector_val@U?$_Simple_types@V?$VectorD@I$02@draco@@@std@@@std@@@std@@@?$DynamicIntegerPointsKdTreeEncoder@$01@draco@@QEAA_NV?$_Vector_iterator@V?$_Vector_val@U?$_Simple_types@V?$VectorD@I$02@draco@@@std@@@std@@@std@@0AEBIPEAVEncoderBuffer@1@@Z
	??$EncodePoints@V?$_Vector_iterator@V?$_Vector_val@U?$_Simple_types@V?$VectorD@I$02@draco@@@std@@@std@@@std@@@?$DynamicIntegerPointsKdTreeEncoder@$02@draco@@QEAA_NV?$_Vector_iterator@V?$_Vector_val@U?$_Simple_types@V?$VectorD@I$02@draco@@@std@@@std@@@std@@0AEBIPEAVEncoderBuffer@1@@Z
	??$EncodePoints@V?$_Vector_iterator@V?$_Vector_val@U?$_Simple_types@V?$VectorD@I$02@draco@@@std@@@std@@@std@@@?$DynamicIntegerPointsKdTreeEncoder@$03@draco@@QEAA_NV?$_Vector_iterator@V?$_Vector_val@U?$_Simple_types@V?$VectorD@I$02@draco@@@std@@@std@@@std@@0AEBIPEAVEncoderBuffer@1@@Z
	??$EncodePoints@V?$_Vector_iterator@V?$_Vector_val@U?$_Simple_types@V?$VectorD@I$02@draco@@@std@@@std@@@std@@@?$DynamicIntegerPointsKdTreeEncoder@$04@draco@@QEAA_NV?$_Vector_iterator@V?$_Vector_val@U?$_Simple_types@V?$VectorD@I$02@draco@@@std@@@std@@@std@@0AEBIPEAVEncoderBuffer@1@@Z
	??$EncodePoints@V?$_Vector_iterator@V?$_Vector_val@U?$_Simple_types@V?$VectorD@I$02@draco@@@std@@@std@@@std@@@?$DynamicIntegerPointsKdTreeEncoder@$05@draco@@QEAA_NV?$_Vector_iterator@V?$_Vector_val@U?$_Simple_types@V?$VectorD@I$02@draco@@@std@@@std@@@std@@0AEBIPEAVEncoderBuffer@1@@Z
	??$EncodePoints@V?$_Vector_iterator@V?$_Vector_val@U?$_Simple_types@V?$VectorD@I$02@draco@@@std@@@std@@@std@@@?$DynamicIntegerPointsKdTreeEncoder@$0A@@draco@@QEAA_NV?$_Vector_iterator@V?$_Vector_val@U?$_Simple_types@V?$VectorD@I$02@draco@@@std@@@std@@@std@@0AEBIPEAVEncoderBuffer@1@@Z
	??$EncodePoints@VPointDVectorIterator@?$PointDVector@I@draco@@@?$DynamicIntegerPointsKdTreeEncoder@$00@draco@@QEAA_NVPointDVectorIterator@?$PointDVector@I@1@0AEBIPEAVEncoderBuffer@1@@Z
	??$EncodePoints@VPointDVectorIterator@?$PointDVector@I@draco@@@?$DynamicIntegerPointsKdTreeEncoder@$01@draco@@QEAA_NVPointDVectorIterator@?$PointDVector@I@1@0AEBIPEAVEncoderBuffer@1@@Z
	??$EncodePoints@VPointDVectorIterator@?$PointDVector@I@draco@@@?$DynamicIntegerPointsKdTreeEncoder@$02@draco@@QEAA_NVPointDVectorIterator@?$PointDVector@I@1@0AEBIPEAVEncoderBuffer@1@@Z
	??$EncodePoints@VPointDVectorIterator@?$PointDVector@I@draco@@@?$DynamicIntegerPointsKdTreeEncoder@$03@draco@@QEAA_NVPointDVectorIterator@?$PointDVector@I@1@0AEBIPEAVEncoderBuffer@1@@Z
	??$EncodePoints@VPointDVectorIterator@?$PointDVector@I@draco@@@?$DynamicIntegerPointsKdTreeEncoder@$04@draco@@QEAA_NVPointDVectorIterator@?$PointDVector@I@1@0AEBIPEAVEncoderBuffer@1@@Z
	??$EncodePoints@VPointDVectorIterator@?$PointDVector@I@draco@@@?$DynamicIntegerPointsKdTreeEncoder@$05@draco@@QEAA_NVPointDVectorIterator@?$PointDVector@I@1@0AEBIPEAVEncoderBuffer@1@@Z
	??$EncodePoints@VPointDVectorIterator@?$PointDVector@I@draco@@@?$DynamicIntegerPointsKdTreeEncoder@$0A@@draco@@QEAA_NVPointDVectorIterator@?$PointDVector@I@1@0AEBIPEAVEncoderBuffer@1@@Z
	??$EncodeRawSymbols@VRAnsSymbolEncoder@draco@@@draco@@YA_NPEBIHIHPEBVOptions@0@PEAVEncoderBuffer@0@@Z
	??$EncodeRawSymbolsInternal@V?$RAnsSymbolEncoder@$00@draco@@@draco@@YA_NPEBIHIPEAVEncoderBuffer@0@@Z
	??$EncodeRawSymbolsInternal@V?$RAnsSymbolEncoder@$01@draco@@@draco@@YA_NPEBIHIPEAVEncoderBuffer@0@@Z
	??$EncodeRawSymbolsInternal@V?$RAnsSymbolEncoder@$02@draco@@@draco@@YA_NPEBIHIPEAVEncoderBuffer@0@@Z
	??$EncodeRawSymbolsInternal@V?$RAnsSymbolEncoder@$03@draco@@@draco@@YA_NPEBIHIPEAVEncoderBuffer@0@@Z
	??$EncodeRawSymbolsInternal@V?$RAnsSymbolEncoder@$04@draco@@@draco@@YA_NPEBIHIPEAVEncoderBuffer@0@@Z
	??$EncodeRawSymbolsInternal@V?$RAnsSymbolEncoder@$05@draco@@@draco@@YA_NPEBIHIPEAVEncoderBuffer@0@@Z
	??$EncodeRawSymbolsInternal@V?$RAnsSymbolEncoder@$06@draco@@@draco@@YA_NPEBIHIPEAVEncoderBuffer@0@@Z
	??$EncodeRawSymbolsInternal@V?$RAnsSymbolEncoder@$07@draco@@@draco@@YA_NPEBIHIPEAVEncoderBuffer@0@@Z
	??$EncodeRawSymbolsInternal@V?$RAnsSymbolEncoder@$08@draco@@@draco@@YA_NPEBIHIPEAVEncoderBuffer@0@@Z
	??$EncodeRawSymbolsInternal@V?$RAnsSymbolEncoder@$09@draco@@@draco@@YA_NPEBIHIPEAVEncoderBuffer@0@@Z
	??$EncodeRawSymbolsInternal@V?$RAnsSymbolEncoder@$0BA@@draco@@@draco@@YA_NPEBIHIPEAVEncoderBuffer@0@@Z
	??$EncodeRawSymbolsInternal@V?$RAnsSymbolEncoder@$0BB@@draco@@@draco@@YA_NPEBIHIPEAVEncoderBuffer@0@@Z
	??$EncodeRawSymbolsInternal@V?$RAnsSymbolEncoder@$0BC@@draco@@@draco@@YA_NPEBIHIPEAVEncoderBuffer@0@@Z
	??$EncodeRawSymbolsInternal@V?$RAnsSymbolEncoder@$0L@@draco@@@draco@@YA_NPEBIHIPEAVEncoderBuffer@0@@Z
	??$EncodeRawSymbolsInternal@V?$RAnsSymbolEncoder@$0M@@draco@@@draco@@YA_NPEBIHIPEAVEncoderBuffer@0@@Z
	??$EncodeRawSymbolsInternal@V?$RAnsSymbolEncoder@$0N@@draco@@@draco@@YA_NPEBIHIPEAVEncoderBuffer@0@@Z
	??$EncodeRawSymbolsInternal@V?$RAnsSymbolEncoder@$0O@@draco@@@draco@@YA_NPEBIHIPEAVEncoderBuffer@0@@Z
	??$EncodeRawSymbolsInternal@V?$RAnsSymbolEncoder@$0P@@draco@@@draco@@YA_NPEBIHIPEAVEncoderBuffer@0@@Z
	??$EncodeTaggedSymbols@VRAnsSymbolEncoder@draco@@@draco@@YA_NPEBIHHAEBV?$vector@IV?$allocator@I@std@@@std@@PEAVEncoderBuffer@0@@Z
	??$EncodeVarint@H@draco@@YA_NHPEAVEncoderBuffer@0@@Z
	??$EncodeVarint@I@draco@@YA_NIPEAVEncoderBuffer@0@@Z
	??$EncodeVarint@_K@draco@@YA_N_KPEAVEncoderBuffer@0@@Z
	??$FloatVectorToQuantizedOctahedralCoords@M@OctahedronToolBox@draco@@QEBAXPEBMPEAH1@Z
	??$GetAndEncodeAxis@V?$_Vector_iterator@V?$_Vector_val@U?$_Simple_types@V?$VectorD@I$02@draco@@@std@@@std@@@std@@@?$DynamicIntegerPointsKdTreeEncoder@$00@draco@@AEAAIV?$_Vector_iterator@V?$_Vector_val@U?$_Simple_types@V?$VectorD@I$02@draco@@@std@@@std@@@std@@0AEBV?$vector@IV?$allocator@I@std@@@3@1I@Z
	??$GetAndEncodeAxis@V?$_Vector_iterator@V?$_Vector_val@U?$_Simple_types@V?$VectorD@I$02@draco@@@std@@@std@@@std@@@?$DynamicIntegerPointsKdTreeEncoder@$01@draco@@AEAAIV?$_Vector_iterator@V?$_Vector_val@U?$_Simple_types@V?$VectorD@I$02@draco@@@std@@@std@@@std@@0AEBV?$vector@IV?$allocator@I@std@@@3@1I@Z
	??$GetAndEncodeAxis@V?$_Vector_iterator@V?$_Vector_val@U?$_Simple_types@V?$VectorD@I$02@draco@@@std@@@std@@@std@@@?$DynamicIntegerPointsKdTreeEncoder@$02@draco@@AEAAIV?$_Vector_iterator@V?$_Vector_val@U?$_Simple_types@V?$VectorD@I$02@draco@@@std@@@std@@@std@@0AEBV?$vector@IV?$allocator@I@std@@@3@1I@Z
	??$GetAndEncodeAxis@V?$_Vector_iterator@V?$_Vector_val@U?$_Simple_types@V?$VectorD@I$02@draco@@@std@@@std@@@std@@@?$DynamicIntegerPointsKdTreeEncoder@$03@draco@@AEAAIV?$_Vector_iterator@V?$_Vector_val@U?$_Simple_types@V?$VectorD@I$02@draco@@@std@@@std@@@std@@0AEBV?$vector@IV?$allocator@I@std@@@3@1I@Z
	??$GetAndEncodeAxis@V?$_Vector_iterator@V?$_Vector_val@U?$_Simple_types@V?$VectorD@I$02@draco@@@std@@@std@@@std@@@?$DynamicIntegerPointsKdTreeEncoder@$04@draco@@AEAAIV?$_Vector_iterator@V?$_Vector_val@U?$_Simple_types@V?$VectorD@I$02@draco@@@std@@@std@@@std@@0AEBV?$vector@IV?$allocator@I@std@@@3@1I@Z
	??$GetAndEncodeAxis@V?$_Vector_iterator@V?$_Vector_val@U?$_Simple_types@V?$VectorD@I$02@draco@@@std@@@std@@@std@@@?$DynamicIntegerPointsKdTreeEncoder@$05@draco@@AEAAIV?$_Vector_iterator@V?$_Vector_val@U?$_Simple_types@V?$VectorD@I$02@draco@@@std@@@std@@@std@@0AEBV?$vector@IV?$allocator@I@std@@@3@1I@Z
	??$GetAndEncodeAxis@V?$_Vector_iterator@V?$_Vector_val@U?$_Simple_types@V?$VectorD@I$02@draco@@@std@@@std@@@std@@@?$DynamicIntegerPointsKdTreeEncoder@$0A@@draco@@AEAAIV?$_Vector_iterator@V?$_Vector_val@U?$_Simple_types@V?$VectorD@I$02@draco@@@std@@@std@@@std@@0AEBV?$vector@IV?$allocator@I@std@@@3@1I@Z
	??$GetAndEncodeAxis@VPointDVectorIterator@?$PointDVector@I@draco@@@?$DynamicIntegerPointsKdTreeEncoder@$00@draco@@AEAAIVPointDVectorIterator@?$PointDVector@I@1@0AEBV?$vector@IV?$allocator@I@std@@@std@@1I@Z
	??$GetAndEncodeAxis@VPointDVectorIterator@?$PointDVector@I@draco@@@?$DynamicIntegerPointsKdTreeEncoder@$01@draco@@AEAAIVPointDVectorIterator@?$PointDVector@I@1@0AEBV?$vector@IV?$allocator@I@std@@@std@@1I@Z
	??$GetAndEncodeAxis@VPointDVectorIterator@?$PointDVector@I@draco@@@?$DynamicIntegerPointsKdTreeEncoder@$02@draco@@AEAAIVPointDVectorIterator@?$PointDVector@I@1@0AEBV?$vector@IV?$allocator@I@std@@@std@@1I@Z
	??$GetAndEncodeAxis@VPointDVectorIterator@?$PointDVector@I@draco@@@?$DynamicIntegerPointsKdTreeEncoder@$03@draco@@AEAAIVPointDVectorIterator@?$PointDVector@I@1@0AEBV?$vector@IV?$allocator@I@std@@@std@@1I@Z
	??$GetAndEncodeAxis@VPointDVectorIterator@?$PointDVector@I@draco@@@?$DynamicIntegerPointsKdTreeEncoder@$04@draco@@AEAAIVPointDVectorIterator@?$PointDVector@I@1@0AEBV?$vector@IV?$allocator@I@std@@@std@@1I@Z
	??$GetAndEncodeAxis@VPointDVectorIterator@?$PointDVector@I@draco@@@?$DynamicIntegerPointsKdTreeEncoder@$05@draco@@AEAAIVPointDVectorIterator@?$PointDVector@I@1@0AEBV?$vector@IV?$allocator@I@std@@@std@@1I@Z
	??$GetAndEncodeAxis@VPointDVectorIterator@?$PointDVector@I@draco@@@?$DynamicIntegerPointsKdTreeEncoder@$0A@@draco@@AEAAIVPointDVectorIterator@?$PointDVector@I@1@0AEBV?$vector@IV?$allocator@I@std@@@std@@1I@Z
	??$GetAttributeVector@M@?$DracoOptions@H@draco@@QEBA_NAEBHAEBV?$basic_string@DU?$char_traits@D@std@@V?$allocator@D@2@@std@@HPEAM@Z
	??$GetEntry@H@Metadata@draco@@AEBA_NAEBV?$basic_string@DU?$char_traits@D@std@@V?$allocator@D@2@@std@@PEAH@Z
	??$GetEntry@N@Metadata@draco@@AEBA_NAEBV?$basic_string@DU?$char_traits@D@std@@V?$allocator@D@2@@std@@PEAN@Z
	??$GetEntry@V?$basic_string@DU?$char_traits@D@std@@V?$allocator@D@2@@std@@@Metadata@draco@@AEBA_NAEBV?$basic_string@DU?$char_traits@D@std@@V?$allocator@D@2@@std@@PEAV23@@Z
	??$GetEntry@V?$vector@EV?$allocator@E@std@@@std@@@Metadata@draco@@AEBA_NAEBV?$basic_string@DU?$char_traits@D@std@@V?$allocator@D@2@@std@@PEAV?$vector@EV?$allocator@E@std@@@3@@Z
	??$GetEntry@V?$vector@HV?$allocator@H@std@@@std@@@Metadata@draco@@AEBA_NAEBV?$basic_string@DU?$char_traits@D@std@@V?$allocator@D@2@@std@@PEAV?$vector@HV?$allocator@H@std@@@3@@Z
	??$GetEntry@V?$vector@NV?$allocator@N@std@@@std@@@Metadata@draco@@AEBA_NAEBV?$basic_string@DU?$char_traits@D@std@@V?$allocator@D@2@@std@@PEAV?$vector@NV?$allocator@N@std@@@3@@Z
	??$GetParallelogramEntries@VCornerTable@draco@@@draco@@YAXV?$IndexType@IUCornerIndex_tag_type_@draco@@@0@PEBVCornerTable@0@AEBV?$vector@HV?$allocator@H@std@@@std@@PEAH33@Z
	??$GetParallelogramEntries@VMeshAttributeCornerTable@draco@@@draco@@YAXV?$IndexType@IUCornerIndex_tag_type_@draco@@@0@PEBVMeshAttributeCornerTable@0@AEBV?$vector@HV?$allocator@H@std@@@std@@PEAH33@Z
	??$GetParameterValue@H@AttributeTransformData@draco@@QEBAHH@Z
	??$GetParameterValue@M@AttributeTransformData@draco@@QEBAMH@Z
	??$GetValue@C$00@GeometryAttribute@draco@@QEBA?AV?$array@C$00@std@@V?$IndexType@IUAttributeValueIndex_tag_type_@draco@@@1@@Z
	??$GetValue@C$01@GeometryAttribute@draco@@QEBA?AV?$array@C$01@std@@V?$IndexType@IUAttributeValueIndex_tag_type_@draco@@@1@@Z
	??$GetValue@C$02@GeometryAttribute@draco@@QEBA?AV?$array@C$02@std@@V?$IndexType@IUAttributeValueIndex_tag_type_@draco@@@1@@Z
	??$GetValue@C$03@GeometryAttribute@draco@@QEBA?AV?$array@C$03@std@@V?$IndexType@IUAttributeValueIndex_tag_type_@draco@@@1@@Z
	??$GetValue@E$00@GeometryAttribute@draco@@QEBA?AV?$array@E$00@std@@V?$IndexType@IUAttributeValueIndex_tag_type_@draco@@@1@@Z
	??$GetValue@E$01@GeometryAttribute@draco@@QEBA?AV?$array@E$01@std@@V?$IndexType@IUAttributeValueIndex_tag_type_@draco@@@1@@Z
	??$GetValue@E$02@GeometryAttribute@draco@@QEBA?AV?$array@E$02@std@@V?$IndexType@IUAttributeValueIndex_tag_type_@draco@@@1@@Z
	??$GetValue@E$03@GeometryAttribute@draco@@QEBA?AV?$array@E$03@std@@V?$IndexType@IUAttributeValueIndex_tag_type_@draco@@@1@@Z
	??$GetValue@E@EntryValue@draco@@QEBA_NPEAV?$vector@EV?$allocator@E@std@@@std@@@Z
	??$GetValue@F$00@GeometryAttribute@draco@@QEBA?AV?$array@F$00@std@@V?$IndexType@IUAttributeValueIndex_tag_type_@draco@@@1@@Z
	??$GetValue@F$01@GeometryAttribute@draco@@QEBA?AV?$array@F$01@std@@V?$IndexType@IUAttributeValueIndex_tag_type_@draco@@@1@@Z
	??$GetValue@F$02@GeometryAttribute@draco@@QEBA?AV?$array@F$02@std@@V?$IndexType@IUAttributeValueIndex_tag_type_@draco@@@1@@Z
	??$GetValue@F$03@GeometryAttribute@draco@@QEBA?AV?$array@F$03@std@@V?$IndexType@IUAttributeValueIndex_tag_type_@draco@@@1@@Z
	??$GetValue@G$00@GeometryAttribute@draco@@QEBA?AV?$array@G$00@std@@V?$IndexType@IUAttributeValueIndex_tag_type_@draco@@@1@@Z
	??$GetValue@G$01@GeometryAttribute@draco@@QEBA?AV?$array@G$01@std@@V?$IndexType@IUAttributeValueIndex_tag_type_@draco@@@1@@Z
	??$GetValue@G$02@GeometryAttribute@draco@@QEBA?AV?$array@G$02@std@@V?$IndexType@IUAttributeValueIndex_tag_type_@draco@@@1@@Z
	??$GetValue@G$03@GeometryAttribute@draco@@QEBA?AV?$array@G$03@std@@V?$IndexType@IUAttributeValueIndex_tag_type_@draco@@@1@@Z
	??$GetValue@H$00@GeometryAttribute@draco@@QEBA?AV?$array@H$00@std@@V?$IndexType@IUAttributeValueIndex_tag_type_@draco@@@1@@Z
	??$GetValue@H$01@GeometryAttribute@draco@@QEBA?AV?$array@H$01@std@@V?$IndexType@IUAttributeValueIndex_tag_type_@draco@@@1@@Z
	??$GetValue@H$02@GeometryAttribute@draco@@QEBA?AV?$array@H$02@std@@V?$IndexType@IUAttributeValueIndex_tag_type_@draco@@@1@@Z
	??$GetValue@H$03@GeometryAttribute@draco@@QEBA?AV?$array@H$03@std@@V?$IndexType@IUAttributeValueIndex_tag_type_@draco@@@1@@Z
	??$GetValue@H@EntryValue@draco@@QEBA_NPEAH@Z
	??$GetValue@H@EntryValue@draco@@QEBA_NPEAV?$vector@HV?$allocator@H@std@@@std@@@Z
	??$GetValue@I$00@GeometryAttribute@draco@@QEBA?AV?$array@I$00@std@@V?$IndexType@IUAttributeValueIndex_tag_type_@draco@@@1@@Z
	??$GetValue@I$01@GeometryAttribute@draco@@QEBA?AV?$array@I$01@std@@V?$IndexType@IUAttributeValueIndex_tag_type_@draco@@@1@@Z
	??$GetValue@I$02@GeometryAttribute@draco@@QEBA?AV?$array@I$02@std@@V?$IndexType@IUAttributeValueIndex_tag_type_@draco@@@1@@Z
	??$GetValue@I$03@GeometryAttribute@draco@@QEBA?AV?$array@I$03@std@@V?$IndexType@IUAttributeValueIndex_tag_type_@draco@@@1@@Z
	??$GetValue@M$00@GeometryAttribute@draco@@QEBA?AV?$array@M$00@std@@V?$IndexType@IUAttributeValueIndex_tag_type_@draco@@@1@@Z
	??$GetValue@M$01@GeometryAttribute@draco@@QEBA?AV?$array@M$01@std@@V?$IndexType@IUAttributeValueIndex_tag_type_@draco@@@1@@Z
	??$GetValue@M$02@GeometryAttribute@draco@@QEBA?AV?$array@M$02@std@@V?$IndexType@IUAttributeValueIndex_tag_type_@draco@@@1@@Z
	??$GetValue@M$03@GeometryAttribute@draco@@QEBA?AV?$array@M$03@std@@V?$IndexType@IUAttributeValueIndex_tag_type_@draco@@@1@@Z
	??$GetValue@N@EntryValue@draco@@QEBA_NPEAN@Z
	??$GetValue@N@EntryValue@draco@@QEBA_NPEAV?$vector@NV?$allocator@N@std@@@std@@@Z
	??$GetValue@V?$basic_string@DU?$char_traits@D@std@@V?$allocator@D@2@@std@@@EntryValue@draco@@QEBA_NPEAV?$basic_string@DU?$char_traits@D@std@@V?$allocator@D@2@@std@@@Z
	??$GetVector@M@Options@draco@@QEBA_NAEBV?$basic_string@DU?$char_traits@D@std@@V?$allocator@D@2@@std@@HPEAM@Z
	??$HashCombine@II@draco@@YA_KII@Z
	??$Peek@C@DecoderBuffer@draco@@QEAA_NPEAC@Z
	??$Peek@D@DecoderBuffer@draco@@QEAA_NPEAD@Z
	??$Peek@E@DecoderBuffer@draco@@QEAA_NPEAE@Z
	??$Peek@G@DecoderBuffer@draco@@QEAA_NPEAG@Z
	??$Peek@H@DecoderBuffer@draco@@QEAA_NPEAH@Z
	??$Peek@I@DecoderBuffer@draco@@QEAA_NPEAI@Z
	??$Peek@M@DecoderBuffer@draco@@QEAA_NPEAM@Z
	??$Peek@UHoleEventData@draco@@@DecoderBuffer@draco@@QEAA_NPEAUHoleEventData@1@@Z
	??$Peek@V?$array@D$01@std@@@DecoderBuffer@draco@@QEAA_NPEAV?$array@D$01@std@@@Z
	??$Peek@V?$array@D$05@std@@@DecoderBuffer@draco@@QEAA_NPEAV?$array@D$05@std@@@Z
	??$Peek@V?$array@D$09@std@@@DecoderBuffer@draco@@QEAA_NPEAV?$array@D$09@std@@@Z
	??$Peek@_K@DecoderBuffer@draco@@QEAA_NPEA_K@Z
	??$ReadPropertiesToAttribute@H@PlyDecoder@draco@@AEAA_NAEBV?$vector@PEBVPlyProperty@draco@@V?$allocator@PEBVPlyProperty@draco@@@std@@@std@@PEAVPointAttribute@1@H@Z
	??$ReadPropertiesToAttribute@M@PlyDecoder@draco@@AEAA_NAEBV?$vector@PEBVPlyProperty@draco@@V?$allocator@PEBVPlyProperty@draco@@@std@@@std@@PEAVPointAttribute@1@H@Z
	??$RecomputeVerticesInternal@$00@MeshAttributeCornerTable@draco@@AEAA_NPEBVMesh@1@PEBVPointAttribute@1@@Z
	??$RecomputeVerticesInternal@$0A@@MeshAttributeCornerTable@draco@@AEAA_NPEBVMesh@1@PEBVPointAttribute@1@@Z
	??$SetAttributeVector@M@?$DracoOptions@H@draco@@QEAAXAEBHAEBV?$basic_string@DU?$char_traits@D@std@@V?$allocator@D@2@@std@@HPEBM@Z
	??$SetAttributeVector@M@?$DracoOptions@W4Type@GeometryAttribute@draco@@@draco@@QEAAXAEBW4Type@GeometryAttribute@1@AEBV?$basic_string@DU?$char_traits@D@std@@V?$allocator@D@2@@std@@HPEBM@Z
	??$SetParameterValue@H@AttributeTransformData@draco@@QEAAXHAEBH@Z
	??$SetParameterValue@M@AttributeTransformData@draco@@QEAAXHAEBM@Z
	??$SetVector@M@Options@draco@@QEAAXAEBV?$basic_string@DU?$char_traits@D@std@@V?$allocator@D@2@@std@@PEBMH@Z
	??$StoreTypedValues@C@SequentialIntegerAttributeDecoder@draco@@AEAAXI@Z
	??$StoreTypedValues@E@SequentialIntegerAttributeDecoder@draco@@AEAAXI@Z
	??$StoreTypedValues@F@SequentialIntegerAttributeDecoder@draco@@AEAAXI@Z
	??$StoreTypedValues@G@SequentialIntegerAttributeDecoder@draco@@AEAAXI@Z
	??$StoreTypedValues@H@SequentialIntegerAttributeDecoder@draco@@AEAAXI@Z
	??$StoreTypedValues@I@SequentialIntegerAttributeDecoder@draco@@AEAAXI@Z
	??$TransformAttributeBackToSignedType@C@KdTreeAttributesDecoder@draco@@AEAA_NPEAVPointAttribute@1@H@Z
	??$TransformAttributeBackToSignedType@F@KdTreeAttributesDecoder@draco@@AEAA_NPEAVPointAttribute@1@H@Z
	??$TransformAttributeBackToSignedType@H@KdTreeAttributesDecoder@draco@@AEAA_NPEAVPointAttribute@1@H@Z
	??$ValueHash@E@?$HashArray@V?$array@E$00@std@@@draco@@QEBA_KAEBE@Z
	??$ValueHash@E@?$HashArray@V?$array@E$01@std@@@draco@@QEBA_KAEBE@Z
	??$ValueHash@E@?$HashArray@V?$array@E$02@std@@@draco@@QEBA_KAEBE@Z
	??$ValueHash@E@?$HashArray@V?$array@E$03@std@@@draco@@QEBA_KAEBE@Z
	??$ValueHash@G@?$HashArray@V?$array@G$00@std@@@draco@@QEBA_KAEBG@Z
	??$ValueHash@G@?$HashArray@V?$array@G$01@std@@@draco@@QEBA_KAEBG@Z
	??$ValueHash@G@?$HashArray@V?$array@G$02@std@@@draco@@QEBA_KAEBG@Z
	??$ValueHash@G@?$HashArray@V?$array@G$03@std@@@draco@@QEBA_KAEBG@Z
	??$ValueHash@I@?$HashArray@V?$array@I$00@std@@@draco@@QEBA_KAEBI@Z
	??$ValueHash@I@?$HashArray@V?$array@I$01@std@@@draco@@QEBA_KAEBI@Z
	??$ValueHash@I@?$HashArray@V?$array@I$02@std@@@draco@@QEBA_KAEBI@Z
	??$ValueHash@I@?$HashArray@V?$array@I$03@std@@@draco@@QEBA_KAEBI@Z
	??$_Adl_verify_range@PEADPEAD@std@@YAXAEBQEAD0@Z
	??$_Adl_verify_range@PEAEPEAE@std@@YAXAEBQEAE0@Z
	??$_Adl_verify_range@PEAHPEAH@std@@YAXAEBQEAH0@Z
	??$_Adl_verify_range@PEAPEAU?$EncodingStatus@V?$_Vector_iterator@V?$_Vector_val@U?$_Simple_types@V?$VectorD@I$02@draco@@@std@@@std@@@std@@@?$DynamicIntegerPointsKdTreeEncoder@$00@draco@@PEAPEAU123@@std@@YAXAEBQEAPEAU?$EncodingStatus@V?$_Vector_iterator@V?$_Vector_val@U?$_Simple_types@V?$VectorD@I$02@draco@@@std@@@std@@@std@@@?$DynamicIntegerPointsKdTreeEncoder@$00@draco@@0@Z
	??$_Adl_verify_range@PEAPEAU?$EncodingStatus@V?$_Vector_iterator@V?$_Vector_val@U?$_Simple_types@V?$VectorD@I$02@draco@@@std@@@std@@@std@@@?$DynamicIntegerPointsKdTreeEncoder@$01@draco@@PEAPEAU123@@std@@YAXAEBQEAPEAU?$EncodingStatus@V?$_Vector_iterator@V?$_Vector_val@U?$_Simple_types@V?$VectorD@I$02@draco@@@std@@@std@@@std@@@?$DynamicIntegerPointsKdTreeEncoder@$01@draco@@0@Z
	??$_Adl_verify_range@PEAPEAU?$EncodingStatus@V?$_Vector_iterator@V?$_Vector_val@U?$_Simple_types@V?$VectorD@I$02@draco@@@std@@@std@@@std@@@?$DynamicIntegerPointsKdTreeEncoder@$02@draco@@PEAPEAU123@@std@@YAXAEBQEAPEAU?$EncodingStatus@V?$_Vector_iterator@V?$_Vector_val@U?$_Simple_types@V?$VectorD@I$02@draco@@@std@@@std@@@std@@@?$DynamicIntegerPointsKdTreeEncoder@$02@draco@@0@Z
	??$_Adl_verify_range@PEAPEAU?$EncodingStatus@V?$_Vector_iterator@V?$_Vector_val@U?$_Simple_types@V?$VectorD@I$02@draco@@@std@@@std@@@std@@@?$DynamicIntegerPointsKdTreeEncoder@$03@draco@@PEAPEAU123@@std@@YAXAEBQEAPEAU?$EncodingStatus@V?$_Vector_iterator@V?$_Vector_val@U?$_Simple_types@V?$VectorD@I$02@draco@@@std@@@std@@@std@@@?$DynamicIntegerPointsKdTreeEncoder@$03@draco@@0@Z
	??$_Adl_verify_range@PEAPEAU?$EncodingStatus@V?$_Vector_iterator@V?$_Vector_val@U?$_Simple_types@V?$VectorD@I$02@draco@@@std@@@std@@@std@@@?$DynamicIntegerPointsKdTreeEncoder@$04@draco@@PEAPEAU123@@std@@YAXAEBQEAPEAU?$EncodingStatus@V?$_Vector_iterator@V?$_Vector_val@U?$_Simple_types@V?$VectorD@I$02@draco@@@std@@@std@@@std@@@?$DynamicIntegerPointsKdTreeEncoder@$04@draco@@0@Z
	??$_Adl_verify_range@PEAPEAU?$EncodingStatus@V?$_Vector_iterator@V?$_Vector_val@U?$_Simple_types@V?$VectorD@I$02@draco@@@std@@@std@@@std@@@?$DynamicIntegerPointsKdTreeEncoder@$05@draco@@PEAPEAU123@@std@@YAXAEBQEAPEAU?$EncodingStatus@V?$_Vector_iterator@V?$_Vector_val@U?$_Simple_types@V?$VectorD@I$02@draco@@@std@@@std@@@std@@@?$DynamicIntegerPointsKdTreeEncoder@$05@draco@@0@Z
	??$_Adl_verify_range@PEAPEAU?$EncodingStatus@V?$_Vector_iterator@V?$_Vector_val@U?$_Simple_types@V?$VectorD@I$02@draco@@@std@@@std@@@std@@@?$DynamicIntegerPointsKdTreeEncoder@$0A@@draco@@PEAPEAU123@@std@@YAXAEBQEAPEAU?$EncodingStatus@V?$_Vector_iterator@V?$_Vector_val@U?$_Simple_types@V?$VectorD@I$02@draco@@@std@@@std@@@std@@@?$DynamicIntegerPointsKdTreeEncoder@$0A@@draco@@0@Z
	??$_Adl_verify_range@PEAPEAU?$EncodingStatus@VPointDVectorIterator@?$PointDVector@I@draco@@@?$DynamicIntegerPointsKdTreeEncoder@$00@draco@@PEAPEAU123@@std@@YAXAEBQEAPEAU?$EncodingStatus@VPointDVectorIterator@?$PointDVector@I@draco@@@?$DynamicIntegerPointsKdTreeEncoder@$00@draco@@0@Z
	??$_Adl_verify_range@PEAPEAU?$EncodingStatus@VPointDVectorIterator@?$PointDVector@I@draco@@@?$DynamicIntegerPointsKdTreeEncoder@$01@draco@@PEAPEAU123@@std@@YAXAEBQEAPEAU?$EncodingStatus@VPointDVectorIterator@?$PointDVector@I@draco@@@?$DynamicIntegerPointsKdTreeEncoder@$01@draco@@0@Z
	??$_Adl_verify_range@PEAPEAU?$EncodingStatus@VPointDVectorIterator@?$PointDVector@I@draco@@@?$DynamicIntegerPointsKdTreeEncoder@$02@draco@@PEAPEAU123@@std@@YAXAEBQEAPEAU?$EncodingStatus@VPointDVectorIterator@?$PointDVector@I@draco@@@?$DynamicIntegerPointsKdTreeEncoder@$02@draco@@0@Z
	??$_Adl_verify_range@PEAPEAU?$EncodingStatus@VPointDVectorIterator@?$PointDVector@I@draco@@@?$DynamicIntegerPointsKdTreeEncoder@$03@draco@@PEAPEAU123@@std@@YAXAEBQEAPEAU?$EncodingStatus@VPointDVectorIterator@?$PointDVector@I@draco@@@?$DynamicIntegerPointsKdTreeEncoder@$03@draco@@0@Z
	??$_Adl_verify_range@PEAPEAU?$EncodingStatus@VPointDVectorIterator@?$PointDVector@I@draco@@@?$DynamicIntegerPointsKdTreeEncoder@$04@draco@@PEAPEAU123@@std@@YAXAEBQEAPEAU?$EncodingStatus@VPointDVectorIterator@?$PointDVector@I@draco@@@?$DynamicIntegerPointsKdTreeEncoder@$04@draco@@0@Z
	??$_Adl_verify_range@PEAPEAU?$EncodingStatus@VPointDVectorIterator@?$PointDVector@I@draco@@@?$DynamicIntegerPointsKdTreeEncoder@$05@draco@@PEAPEAU123@@std@@YAXAEBQEAPEAU?$EncodingStatus@VPointDVectorIterator@?$PointDVector@I@draco@@@?$DynamicIntegerPointsKdTreeEncoder@$05@draco@@0@Z
	??$_Adl_verify_range@PEAPEAU?$EncodingStatus@VPointDVectorIterator@?$PointDVector@I@draco@@@?$DynamicIntegerPointsKdTreeEncoder@$0A@@draco@@PEAPEAU123@@std@@YAXAEBQEAPEAU?$EncodingStatus@VPointDVectorIterator@?$PointDVector@I@draco@@@?$DynamicIntegerPointsKdTreeEncoder@$0A@@draco@@0@Z
	??$_Adl_verify_range@PEAPEAUDecodingStatus@?$DynamicIntegerPointsKdTreeDecoder@$00@draco@@PEAPEAU123@@std@@YAXAEBQEAPEAUDecodingStatus@?$DynamicIntegerPointsKdTreeDecoder@$00@draco@@0@Z
	??$_Adl_verify_range@PEAPEAUDecodingStatus@?$DynamicIntegerPointsKdTreeDecoder@$01@draco@@PEAPEAU123@@std@@YAXAEBQEAPEAUDecodingStatus@?$DynamicIntegerPointsKdTreeDecoder@$01@draco@@0@Z
	??$_Adl_verify_range@PEAPEAUDecodingStatus@?$DynamicIntegerPointsKdTreeDecoder@$02@draco@@PEAPEAU123@@std@@YAXAEBQEAPEAUDecodingStatus@?$DynamicIntegerPointsKdTreeDecoder@$02@draco@@0@Z
	??$_Adl_verify_range@PEAPEAUDecodingStatus@?$DynamicIntegerPointsKdTreeDecoder@$03@draco@@PEAPEAU123@@std@@YAXAEBQEAPEAUDecodingStatus@?$DynamicIntegerPointsKdTreeDecoder@$03@draco@@0@Z
	??$_Adl_verify_range@PEAPEAUDecodingStatus@?$DynamicIntegerPointsKdTreeDecoder@$04@draco@@PEAPEAU123@@std@@YAXAEBQEAPEAUDecodingStatus@?$DynamicIntegerPointsKdTreeDecoder@$04@draco@@0@Z
	??$_Adl_verify_range@PEAPEAUDecodingStatus@?$DynamicIntegerPointsKdTreeDecoder@$05@draco@@PEAPEAU123@@std@@YAXAEBQEAPEAUDecodingStatus@?$DynamicIntegerPointsKdTreeDecoder@$05@draco@@0@Z
	??$_Adl_verify_range@PEAPEAUDecodingStatus@?$DynamicIntegerPointsKdTreeDecoder@$0A@@draco@@PEAPEAU123@@std@@YAXAEBQEAPEAUDecodingStatus@?$DynamicIntegerPointsKdTreeDecoder@$0A@@draco@@0@Z
	??$_Adl_verify_range@PEAV?$IndexType@IUCornerIndex_tag_type_@draco@@@draco@@PEAV12@@std@@YAXAEBQEAV?$IndexType@IUCornerIndex_tag_type_@draco@@@draco@@0@Z
	??$_Adl_verify_range@PEAV?$IndexType@IUVertexIndex_tag_type_@draco@@@draco@@PEAV12@@std@@YAXAEBQEAV?$IndexType@IUVertexIndex_tag_type_@draco@@@draco@@0@Z
	??$_Adl_verify_range@PEAV?$VectorD@M$02@draco@@PEAV12@@std@@YAXAEBQEAV?$VectorD@M$02@draco@@0@Z
	??$_Adl_verify_range@PEAV?$_List_unchecked_const_iterator@V?$_List_val@U?$_List_simple_types@V?$array@I$02@std@@@std@@@std@@U_Iterator_base0@2@@std@@PEAV12@@std@@YAXAEBQEAV?$_List_unchecked_const_iterator@V?$_List_val@U?$_List_simple_types@V?$array@I$02@std@@@std@@@std@@U_Iterator_base0@2@@0@0@Z
	??$_Adl_verify_range@PEAV?$_List_unchecked_iterator@V?$_List_val@U?$_List_simple_types@U?$pair@$$CBHH@std@@@std@@@std@@@std@@PEAV12@@std@@YAXAEBQEAV?$_List_unchecked_iterator@V?$_List_val@U?$_List_simple_types@U?$pair@$$CBHH@std@@@std@@@std@@@0@0@Z
	??$_Adl_verify_range@PEAV?$_List_unchecked_iterator@V?$_List_val@U?$_List_simple_types@U?$pair@$$CBHV?$IndexType@IUCornerIndex_tag_type_@draco@@@draco@@@std@@@std@@@std@@@std@@PEAV12@@std@@YAXAEBQEAV?$_List_unchecked_iterator@V?$_List_val@U?$_List_simple_types@U?$pair@$$CBHV?$IndexType@IUCornerIndex_tag_type_@draco@@@draco@@@std@@@std@@@std@@@0@0@Z
	??$_Adl_verify_range@PEAV?$_List_unchecked_iterator@V?$_List_val@U?$_List_simple_types@U?$pair@$$CBHV?$basic_string@DU?$char_traits@D@std@@V?$allocator@D@2@@std@@@std@@@std@@@std@@@std@@PEAV12@@std@@YAXAEBQEAV?$_List_unchecked_iterator@V?$_List_val@U?$_List_simple_types@U?$pair@$$CBHV?$basic_string@DU?$char_traits@D@std@@V?$allocator@D@2@@std@@@std@@@std@@@std@@@0@0@Z
	??$_Adl_verify_range@PEAV?$_List_unchecked_iterator@V?$_List_val@U?$_List_simple_types@U?$pair@$$CBV?$IndexType@IUPointIndex_tag_type_@draco@@@draco@@V12@@std@@@std@@@std@@@std@@PEAV12@@std@@YAXAEBQEAV?$_List_unchecked_iterator@V?$_List_val@U?$_List_simple_types@U?$pair@$$CBV?$IndexType@IUPointIndex_tag_type_@draco@@@draco@@V12@@std@@@std@@@std@@@0@0@Z
	??$_Adl_verify_range@PEAV?$_List_unchecked_iterator@V?$_List_val@U?$_List_simple_types@U?$pair@$$CBV?$array@E$00@std@@V?$IndexType@IUAttributeValueIndex_tag_type_@draco@@@draco@@@std@@@std@@@std@@@std@@PEAV12@@std@@YAXAEBQEAV?$_List_unchecked_iterator@V?$_List_val@U?$_List_simple_types@U?$pair@$$CBV?$array@E$00@std@@V?$IndexType@IUAttributeValueIndex_tag_type_@draco@@@draco@@@std@@@std@@@std@@@0@0@Z
	??$_Adl_verify_range@PEAV?$_List_unchecked_iterator@V?$_List_val@U?$_List_simple_types@U?$pair@$$CBV?$array@E$01@std@@V?$IndexType@IUAttributeValueIndex_tag_type_@draco@@@draco@@@std@@@std@@@std@@@std@@PEAV12@@std@@YAXAEBQEAV?$_List_unchecked_iterator@V?$_List_val@U?$_List_simple_types@U?$pair@$$CBV?$array@E$01@std@@V?$IndexType@IUAttributeValueIndex_tag_type_@draco@@@draco@@@std@@@std@@@std@@@0@0@Z
	??$_Adl_verify_range@PEAV?$_List_unchecked_iterator@V?$_List_val@U?$_List_simple_types@U?$pair@$$CBV?$array@E$02@std@@V?$IndexType@IUAttributeValueIndex_tag_type_@draco@@@draco@@@std@@@std@@@std@@@std@@PEAV12@@std@@YAXAEBQEAV?$_List_unchecked_iterator@V?$_List_val@U?$_List_simple_types@U?$pair@$$CBV?$array@E$02@std@@V?$IndexType@IUAttributeValueIndex_tag_type_@draco@@@draco@@@std@@@std@@@std@@@0@0@Z
	??$_Adl_verify_range@PEAV?$_List_unchecked_iterator@V?$_List_val@U?$_List_simple_types@U?$pair@$$CBV?$array@E$03@std@@V?$IndexType@IUAttributeValueIndex_tag_type_@draco@@@draco@@@std@@@std@@@std@@@std@@PEAV12@@std@@YAXAEBQEAV?$_List_unchecked_iterator@V?$_List_val@U?$_List_simple_types@U?$pair@$$CBV?$array@E$03@std@@V?$IndexType@IUAttributeValueIndex_tag_type_@draco@@@draco@@@std@@@std@@@std@@@0@0@Z
	??$_Adl_verify_range@PEAV?$_List_unchecked_iterator@V?$_List_val@U?$_List_simple_types@U?$pair@$$CBV?$array@G$00@std@@V?$IndexType@IUAttributeValueIndex_tag_type_@draco@@@draco@@@std@@@std@@@std@@@std@@PEAV12@@std@@YAXAEBQEAV?$_List_unchecked_iterator@V?$_List_val@U?$_List_simple_types@U?$pair@$$CBV?$array@G$00@std@@V?$IndexType@IUAttributeValueIndex_tag_type_@draco@@@draco@@@std@@@std@@@std@@@0@0@Z
	??$_Adl_verify_range@PEAV?$_List_unchecked_iterator@V?$_List_val@U?$_List_simple_types@U?$pair@$$CBV?$array@G$01@std@@V?$IndexType@IUAttributeValueIndex_tag_type_@draco@@@draco@@@std@@@std@@@std@@@std@@PEAV12@@std@@YAXAEBQEAV?$_List_unchecked_iterator@V?$_List_val@U?$_List_simple_types@U?$pair@$$CBV?$array@G$01@std@@V?$IndexType@IUAttributeValueIndex_tag_type_@draco@@@draco@@@std@@@std@@@std@@@0@0@Z
	??$_Adl_verify_range@PEAV?$_List_unchecked_iterator@V?$_List_val@U?$_List_simple_types@U?$pair@$$CBV?$array@G$02@std@@V?$IndexType@IUAttributeValueIndex_tag_type_@draco@@@draco@@@std@@@std@@@std@@@std@@PEAV12@@std@@YAXAEBQEAV?$_List_unchecked_iterator@V?$_List_val@U?$_List_simple_types@U?$pair@$$CBV?$array@G$02@std@@V?$IndexType@IUAttributeValueIndex_tag_type_@draco@@@draco@@@std@@@std@@@std@@@0@0@Z
	??$_Adl_verify_range@PEAV?$_List_unchecked_iterator@V?$_List_val@U?$_List_simple_types@U?$pair@$$CBV?$array@G$03@std@@V?$IndexType@IUAttributeValueIndex_tag_type_@draco@@@draco@@@std@@@std@@@std@@@std@@PEAV12@@std@@YAXAEBQEAV?$_List_unchecked_iterator@V?$_List_val@U?$_List_simple_types@U?$pair@$$CBV?$array@G$03@std@@V?$IndexType@IUAttributeValueIndex_tag_type_@draco@@@draco@@@std@@@std@@@std@@@0@0@Z
	??$_Adl_verify_range@PEAV?$_List_unchecked_iterator@V?$_List_val@U?$_List_simple_types@U?$pair@$$CBV?$array@I$00@std@@V?$IndexType@IUAttributeValueIndex_tag_type_@draco@@@draco@@@std@@@std@@@std@@@std@@PEAV12@@std@@YAXAEBQEAV?$_List_unchecked_iterator@V?$_List_val@U?$_List_simple_types@U?$pair@$$CBV?$array@I$00@std@@V?$IndexType@IUAttributeValueIndex_tag_type_@draco@@@draco@@@std@@@std@@@std@@@0@0@Z
	??$_Adl_verify_range@PEAV?$_List_unchecked_iterator@V?$_List_val@U?$_List_simple_types@U?$pair@$$CBV?$array@I$01@std@@V?$IndexType@IUAttributeValueIndex_tag_type_@draco@@@draco@@@std@@@std@@@std@@@std@@PEAV12@@std@@YAXAEBQEAV?$_List_unchecked_iterator@V?$_List_val@U?$_List_simple_types@U?$pair@$$CBV?$array@I$01@std@@V?$IndexType@IUAttributeValueIndex_tag_type_@draco@@@draco@@@std@@@std@@@std@@@0@0@Z
	??$_Adl_verify_range@PEAV?$_List_unchecked_iterator@V?$_List_val@U?$_List_simple_types@U?$pair@$$CBV?$array@I$02@std@@V?$IndexType@IUAttributeValueIndex_tag_type_@draco@@@draco@@@std@@@std@@@std@@@std@@PEAV12@@std@@YAXAEBQEAV?$_List_unchecked_iterator@V?$_List_val@U?$_List_simple_types@U?$pair@$$CBV?$array@I$02@std@@V?$IndexType@IUAttributeValueIndex_tag_type_@draco@@@draco@@@std@@@std@@@std@@@0@0@Z
	??$_Adl_verify_range@PEAV?$_List_unchecked_iterator@V?$_List_val@U?$_List_simple_types@U?$pair@$$CBV?$array@I$03@std@@V?$IndexType@IUAttributeValueIndex_tag_type_@draco@@@draco@@@std@@@std@@@std@@@std@@PEAV12@@std@@YAXAEBQEAV?$_List_unchecked_iterator@V?$_List_val@U?$_List_simple_types@U?$pair@$$CBV?$array@I$03@std@@V?$IndexType@IUAttributeValueIndex_tag_type_@draco@@@draco@@@std@@@std@@@std@@@0@0@Z
	??$_Adl_verify_range@PEAV?$_List_unchecked_iterator@V?$_List_val@U?$_List_simple_types@U?$pair@$$CBV?$basic_string@DU?$char_traits@D@std@@V?$allocator@D@2@@std@@H@std@@@std@@@std@@@std@@PEAV12@@std@@YAXAEBQEAV?$_List_unchecked_iterator@V?$_List_val@U?$_List_simple_types@U?$pair@$$CBV?$basic_string@DU?$char_traits@D@std@@V?$allocator@D@2@@std@@H@std@@@std@@@std@@@0@0@Z
	??$_Adl_verify_range@PEA_KPEA_K@std@@YAXAEBQEA_K0@Z
	??$_Adl_verify_range@PEA_NPEA_N@std@@YAXAEBQEA_N0@Z
	??$_Adl_verify_range@PEBDPEBD@std@@YAXAEBQEBD0@Z
	??$_Adl_verify_range@PEBEPEBE@std@@YAXAEBQEBE0@Z
	??$_Adl_verify_range@PEBGPEBG@std@@YAXAEBQEBG0@Z
	??$_Adl_verify_range@PEBHPEBH@std@@YAXAEBQEBH0@Z
	??$_Adl_verify_range@PEBIPEBI@std@@YAXAEBQEBI0@Z
	??$_Adl_verify_range@PEBMPEBM@std@@YAXAEBQEBM0@Z
	??$_Adl_verify_range@V?$_String_const_iterator@V?$_String_val@U?$_Simple_types@D@std@@@std@@@std@@V12@@std@@YAXAEBV?$_String_const_iterator@V?$_String_val@U?$_Simple_types@D@std@@@std@@@0@0@Z
	??$_Adl_verify_range@V?$_Tree_const_iterator@V?$_Tree_val@U?$_Tree_simple_types@U?$pair@$$CBV?$basic_string@DU?$char_traits@D@std@@V?$allocator@D@2@@std@@VEntryValue@draco@@@std@@@std@@@std@@@std@@V12@@std@@YAXAEBV?$_Tree_const_iterator@V?$_Tree_val@U?$_Tree_simple_types@U?$pair@$$CBV?$basic_string@DU?$char_traits@D@std@@V?$allocator@D@2@@std@@VEntryValue@draco@@@std@@@std@@@std@@@0@0@Z
	??$_Adl_verify_range@V?$_Vb_iterator@U?$_Wrap_alloc@V?$allocator@I@std@@@std@@@std@@V12@@std@@YAXAEBV?$_Vb_iterator@U?$_Wrap_alloc@V?$allocator@I@std@@@std@@@0@0@Z
	??$_Adl_verify_range@V?$_Vector_iterator@V?$_Vector_val@U?$_Simple_types@D@std@@@std@@@std@@V12@@std@@YAXAEBV?$_Vector_iterator@V?$_Vector_val@U?$_Simple_types@D@std@@@std@@@0@0@Z
	??$_Adl_verify_range@V?$_Vector_iterator@V?$_Vector_val@U?$_Simple_types@H@std@@@std@@@std@@V12@@std@@YAXAEBV?$_Vector_iterator@V?$_Vector_val@U?$_Simple_types@H@std@@@std@@@0@0@Z
	??$_Adl_verify_range@V?$_Vector_iterator@V?$_Vector_val@U?$_Simple_types@I@std@@@std@@@std@@V12@@std@@YAXAEBV?$_Vector_iterator@V?$_Vector_val@U?$_Simple_types@I@std@@@std@@@0@0@Z
	??$_Adl_verify_range@V?$_Vector_iterator@V?$_Vector_val@U?$_Simple_types@V?$IndexType@IUCornerIndex_tag_type_@draco@@@draco@@@std@@@std@@@std@@V12@@std@@YAXAEBV?$_Vector_iterator@V?$_Vector_val@U?$_Simple_types@V?$IndexType@IUCornerIndex_tag_type_@draco@@@draco@@@std@@@std@@@0@0@Z
	??$_Adl_verify_range@V?$_Vector_iterator@V?$_Vector_val@U?$_Simple_types@V?$IndexType@IUFaceIndex_tag_type_@draco@@@draco@@@std@@@std@@@std@@V12@@std@@YAXAEBV?$_Vector_iterator@V?$_Vector_val@U?$_Simple_types@V?$IndexType@IUFaceIndex_tag_type_@draco@@@draco@@@std@@@std@@@0@0@Z
	??$_Adl_verify_range@V?$_Vector_iterator@V?$_Vector_val@U?$_Simple_types@V?$VectorD@I$02@draco@@@std@@@std@@@std@@V12@@std@@YAXAEBV?$_Vector_iterator@V?$_Vector_val@U?$_Simple_types@V?$VectorD@I$02@draco@@@std@@@std@@@0@0@Z
	??$_Adl_verify_range@VPointDVectorIterator@?$PointDVector@I@draco@@V123@@std@@YAXAEBVPointDVectorIterator@?$PointDVector@I@draco@@0@Z
	??$_Alloc_proxy@V?$allocator@U_Container_proxy@std@@@std@@@_Container_base12@std@@QEAAX$$QEAV?$allocator@U_Container_proxy@std@@@1@@Z
	??$_Allocate@$0BA@U_Default_allocate_traits@std@@$0A@@std@@YAPEAX_K@Z
	??$_Allocate_manually_vector_aligned@U_Default_allocate_traits@std@@@std@@YAPEAX_K@Z
	??$_Assign_counted_range@PEAH@?$vector@HV?$allocator@H@std@@@std@@AEAAXPEAH_K@Z
	??$_Assign_counted_range@PEAI@?$vector@IV?$allocator@I@std@@@std@@AEAAXPEAI_K@Z
	??$_Assign_counted_range@PEAV?$IndexType@IUAttributeValueIndex_tag_type_@draco@@@draco@@@?$vector@V?$IndexType@IUAttributeValueIndex_tag_type_@draco@@@draco@@V?$allocator@V?$IndexType@IUAttributeValueIndex_tag_type_@draco@@@draco@@@std@@@std@@AEAAXPEAV?$IndexType@IUAttributeValueIndex_tag_type_@draco@@@draco@@_K@Z
	??$_Assign_counted_range@PEAV?$IndexType@IUCornerIndex_tag_type_@draco@@@draco@@@?$vector@V?$IndexType@IUCornerIndex_tag_type_@draco@@@draco@@V?$allocator@V?$IndexType@IUCornerIndex_tag_type_@draco@@@draco@@@std@@@std@@AEAAXPEAV?$IndexType@IUCornerIndex_tag_type_@draco@@@draco@@_K@Z
	??$_Assign_counted_range@PEBH@?$vector@HV?$allocator@H@std@@@std@@AEAAXPEBH_K@Z
	??$_Assign_counted_range@PEBM@?$vector@MV?$allocator@M@std@@@std@@AEAAXPEBM_K@Z
	??$_Buffered_inplace_merge_divide_and_conquer2@PEAHUProbabilityLess@?$RAnsSymbolEncoder@$00@draco@@@std@@YAXPEAH00_J1QEAH_JUProbabilityLess@?$RAnsSymbolEncoder@$00@draco@@0011@Z
	??$_Buffered_inplace_merge_divide_and_conquer2@PEAHUProbabilityLess@?$RAnsSymbolEncoder@$01@draco@@@std@@YAXPEAH00_J1QEAH_JUProbabilityLess@?$RAnsSymbolEncoder@$01@draco@@0011@Z
	??$_Buffered_inplace_merge_divide_and_conquer2@PEAHUProbabilityLess@?$RAnsSymbolEncoder@$02@draco@@@std@@YAXPEAH00_J1QEAH_JUProbabilityLess@?$RAnsSymbolEncoder@$02@draco@@0011@Z
	??$_Buffered_inplace_merge_divide_and_conquer2@PEAHUProbabilityLess@?$RAnsSymbolEncoder@$03@draco@@@std@@YAXPEAH00_J1QEAH_JUProbabilityLess@?$RAnsSymbolEncoder@$03@draco@@0011@Z
	??$_Buffered_inplace_merge_divide_and_conquer2@PEAHUProbabilityLess@?$RAnsSymbolEncoder@$04@draco@@@std@@YAXPEAH00_J1QEAH_JUProbabilityLess@?$RAnsSymbolEncoder@$04@draco@@0011@Z
	??$_Buffered_inplace_merge_divide_and_conquer2@PEAHUProbabilityLess@?$RAnsSymbolEncoder@$05@draco@@@std@@YAXPEAH00_J1QEAH_JUProbabilityLess@?$RAnsSymbolEncoder@$05@draco@@0011@Z
	??$_Buffered_inplace_merge_divide_and_conquer2@PEAHUProbabilityLess@?$RAnsSymbolEncoder@$06@draco@@@std@@YAXPEAH00_J1QEAH_JUProbabilityLess@?$RAnsSymbolEncoder@$06@draco@@0011@Z
	??$_Buffered_inplace_merge_divide_and_conquer2@PEAHUProbabilityLess@?$RAnsSymbolEncoder@$07@draco@@@std@@YAXPEAH00_J1QEAH_JUProbabilityLess@?$RAnsSymbolEncoder@$07@draco@@0011@Z
	??$_Buffered_inplace_merge_divide_and_conquer2@PEAHUProbabilityLess@?$RAnsSymbolEncoder@$08@draco@@@std@@YAXPEAH00_J1QEAH_JUProbabilityLess@?$RAnsSymbolEncoder@$08@draco@@0011@Z
	??$_Buffered_inplace_merge_divide_and_conquer2@PEAHUProbabilityLess@?$RAnsSymbolEncoder@$09@draco@@@std@@YAXPEAH00_J1QEAH_JUProbabilityLess@?$RAnsSymbolEncoder@$09@draco@@0011@Z
	??$_Buffered_inplace_merge_divide_and_conquer2@PEAHUProbabilityLess@?$RAnsSymbolEncoder@$0BA@@draco@@@std@@YAXPEAH00_J1QEAH_JUProbabilityLess@?$RAnsSymbolEncoder@$0BA@@draco@@0011@Z
	??$_Buffered_inplace_merge_divide_and_conquer2@PEAHUProbabilityLess@?$RAnsSymbolEncoder@$0BB@@draco@@@std@@YAXPEAH00_J1QEAH_JUProbabilityLess@?$RAnsSymbolEncoder@$0BB@@draco@@0011@Z
	??$_Buffered_inplace_merge_divide_and_conquer2@PEAHUProbabilityLess@?$RAnsSymbolEncoder@$0BC@@draco@@@std@@YAXPEAH00_J1QEAH_JUProbabilityLess@?$RAnsSymbolEncoder@$0BC@@draco@@0011@Z
	??$_Buffered_inplace_merge_divide_and_conquer2@PEAHUProbabilityLess@?$RAnsSymbolEncoder@$0L@@draco@@@std@@YAXPEAH00_J1QEAH_JUProbabilityLess@?$RAnsSymbolEncoder@$0L@@draco@@0011@Z
	??$_Buffered_inplace_merge_divide_and_conquer2@PEAHUProbabilityLess@?$RAnsSymbolEncoder@$0M@@draco@@@std@@YAXPEAH00_J1QEAH_JUProbabilityLess@?$RAnsSymbolEncoder@$0M@@draco@@0011@Z
	??$_Buffered_inplace_merge_divide_and_conquer2@PEAHUProbabilityLess@?$RAnsSymbolEncoder@$0N@@draco@@@std@@YAXPEAH00_J1QEAH_JUProbabilityLess@?$RAnsSymbolEncoder@$0N@@draco@@0011@Z
	??$_Buffered_inplace_merge_divide_and_conquer2@PEAHUProbabilityLess@?$RAnsSymbolEncoder@$0O@@draco@@@std@@YAXPEAH00_J1QEAH_JUProbabilityLess@?$RAnsSymbolEncoder@$0O@@draco@@0011@Z
	??$_Buffered_inplace_merge_divide_and_conquer2@PEAHUProbabilityLess@?$RAnsSymbolEncoder@$0P@@draco@@@std@@YAXPEAH00_J1QEAH_JUProbabilityLess@?$RAnsSymbolEncoder@$0P@@draco@@0011@Z
	??$_Buffered_inplace_merge_divide_and_conquer@PEAHUProbabilityLess@?$RAnsSymbolEncoder@$00@draco@@@std@@YAXPEAH00_J1QEAH_JUProbabilityLess@?$RAnsSymbolEncoder@$00@draco@@@Z
	??$_Buffered_inplace_merge_divide_and_conquer@PEAHUProbabilityLess@?$RAnsSymbolEncoder@$01@draco@@@std@@YAXPEAH00_J1QEAH_JUProbabilityLess@?$RAnsSymbolEncoder@$01@draco@@@Z
	??$_Buffered_inplace_merge_divide_and_conquer@PEAHUProbabilityLess@?$RAnsSymbolEncoder@$02@draco@@@std@@YAXPEAH00_J1QEAH_JUProbabilityLess@?$RAnsSymbolEncoder@$02@draco@@@Z
	??$_Buffered_inplace_merge_divide_and_conquer@PEAHUProbabilityLess@?$RAnsSymbolEncoder@$03@draco@@@std@@YAXPEAH00_J1QEAH_JUProbabilityLess@?$RAnsSymbolEncoder@$03@draco@@@Z
	??$_Buffered_inplace_merge_divide_and_conquer@PEAHUProbabilityLess@?$RAnsSymbolEncoder@$04@draco@@@std@@YAXPEAH00_J1QEAH_JUProbabilityLess@?$RAnsSymbolEncoder@$04@draco@@@Z
	??$_Buffered_inplace_merge_divide_and_conquer@PEAHUProbabilityLess@?$RAnsSymbolEncoder@$05@draco@@@std@@YAXPEAH00_J1QEAH_JUProbabilityLess@?$RAnsSymbolEncoder@$05@draco@@@Z
	??$_Buffered_inplace_merge_divide_and_conquer@PEAHUProbabilityLess@?$RAnsSymbolEncoder@$06@draco@@@std@@YAXPEAH00_J1QEAH_JUProbabilityLess@?$RAnsSymbolEncoder@$06@draco@@@Z
	??$_Buffered_inplace_merge_divide_and_conquer@PEAHUProbabilityLess@?$RAnsSymbolEncoder@$07@draco@@@std@@YAXPEAH00_J1QEAH_JUProbabilityLess@?$RAnsSymbolEncoder@$07@draco@@@Z
	??$_Buffered_inplace_merge_divide_and_conquer@PEAHUProbabilityLess@?$RAnsSymbolEncoder@$08@draco@@@std@@YAXPEAH00_J1QEAH_JUProbabilityLess@?$RAnsSymbolEncoder@$08@draco@@@Z
	??$_Buffered_inplace_merge_divide_and_conquer@PEAHUProbabilityLess@?$RAnsSymbolEncoder@$09@draco@@@std@@YAXPEAH00_J1QEAH_JUProbabilityLess@?$RAnsSymbolEncoder@$09@draco@@@Z
	??$_Buffered_inplace_merge_divide_and_conquer@PEAHUProbabilityLess@?$RAnsSymbolEncoder@$0BA@@draco@@@std@@YAXPEAH00_J1QEAH_JUProbabilityLess@?$RAnsSymbolEncoder@$0BA@@draco@@@Z
	??$_Buffered_inplace_merge_divide_and_conquer@PEAHUProbabilityLess@?$RAnsSymbolEncoder@$0BB@@draco@@@std@@YAXPEAH00_J1QEAH_JUProbabilityLess@?$RAnsSymbolEncoder@$0BB@@draco@@@Z
	??$_Buffered_inplace_merge_divide_and_conquer@PEAHUProbabilityLess@?$RAnsSymbolEncoder@$0BC@@draco@@@std@@YAXPEAH00_J1QEAH_JUProbabilityLess@?$RAnsSymbolEncoder@$0BC@@draco@@@Z
	??$_Buffered_inplace_merge_divide_and_conquer@PEAHUProbabilityLess@?$RAnsSymbolEncoder@$0L@@draco@@@std@@YAXPEAH00_J1QEAH_JUProbabilityLess@?$RAnsSymbolEncoder@$0L@@draco@@@Z
	??$_Buffered_inplace_merge_divide_and_conquer@PEAHUProbabilityLess@?$RAnsSymbolEncoder@$0M@@draco@@@std@@YAXPEAH00_J1QEAH_JUProbabilityLess@?$RAnsSymbolEncoder@$0M@@draco@@@Z
	??$_Buffered_inplace_merge_divide_and_conquer@PEAHUProbabilityLess@?$RAnsSymbolEncoder@$0N@@draco@@@std@@YAXPEAH00_J1QEAH_JUProbabilityLess@?$RAnsSymbolEncoder@$0N@@draco@@@Z
	??$_Buffered_inplace_merge_divide_and_conquer@PEAHUProbabilityLess@?$RAnsSymbolEncoder@$0O@@draco@@@std@@YAXPEAH00_J1QEAH_JUProbabilityLess@?$RAnsSymbolEncoder@$0O@@draco@@@Z
	??$_Buffered_inplace_merge_divide_and_conquer@PEAHUProbabilityLess@?$RAnsSymbolEncoder@$0P@@draco@@@std@@YAXPEAH00_J1QEAH_JUProbabilityLess@?$RAnsSymbolEncoder@$0P@@draco@@@Z
	??$_Buffered_inplace_merge_unchecked@PEAHUProbabilityLess@?$RAnsSymbolEncoder@$00@draco@@@std@@YAXPEAH00_J1QEAH_JUProbabilityLess@?$RAnsSymbolEncoder@$00@draco@@@Z
	??$_Buffered_inplace_merge_unchecked@PEAHUProbabilityLess@?$RAnsSymbolEncoder@$01@draco@@@std@@YAXPEAH00_J1QEAH_JUProbabilityLess@?$RAnsSymbolEncoder@$01@draco@@@Z
	??$_Buffered_inplace_merge_unchecked@PEAHUProbabilityLess@?$RAnsSymbolEncoder@$02@draco@@@std@@YAXPEAH00_J1QEAH_JUProbabilityLess@?$RAnsSymbolEncoder@$02@draco@@@Z
	??$_Buffered_inplace_merge_unchecked@PEAHUProbabilityLess@?$RAnsSymbolEncoder@$03@draco@@@std@@YAXPEAH00_J1QEAH_JUProbabilityLess@?$RAnsSymbolEncoder@$03@draco@@@Z
	??$_Buffered_inplace_merge_unchecked@PEAHUProbabilityLess@?$RAnsSymbolEncoder@$04@draco@@@std@@YAXPEAH00_J1QEAH_JUProbabilityLess@?$RAnsSymbolEncoder@$04@draco@@@Z
	??$_Buffered_inplace_merge_unchecked@PEAHUProbabilityLess@?$RAnsSymbolEncoder@$05@draco@@@std@@YAXPEAH00_J1QEAH_JUProbabilityLess@?$RAnsSymbolEncoder@$05@draco@@@Z
	??$_Buffered_inplace_merge_unchecked@PEAHUProbabilityLess@?$RAnsSymbolEncoder@$06@draco@@@std@@YAXPEAH00_J1QEAH_JUProbabilityLess@?$RAnsSymbolEncoder@$06@draco@@@Z
	??$_Buffered_inplace_merge_unchecked@PEAHUProbabilityLess@?$RAnsSymbolEncoder@$07@draco@@@std@@YAXPEAH00_J1QEAH_JUProbabilityLess@?$RAnsSymbolEncoder@$07@draco@@@Z
	??$_Buffered_inplace_merge_unchecked@PEAHUProbabilityLess@?$RAnsSymbolEncoder@$08@draco@@@std@@YAXPEAH00_J1QEAH_JUProbabilityLess@?$RAnsSymbolEncoder@$08@draco@@@Z
	??$_Buffered_inplace_merge_unchecked@PEAHUProbabilityLess@?$RAnsSymbolEncoder@$09@draco@@@std@@YAXPEAH00_J1QEAH_JUProbabilityLess@?$RAnsSymbolEncoder@$09@draco@@@Z
	??$_Buffered_inplace_merge_unchecked@PEAHUProbabilityLess@?$RAnsSymbolEncoder@$0BA@@draco@@@std@@YAXPEAH00_J1QEAH_JUProbabilityLess@?$RAnsSymbolEncoder@$0BA@@draco@@@Z
	??$_Buffered_inplace_merge_unchecked@PEAHUProbabilityLess@?$RAnsSymbolEncoder@$0BB@@draco@@@std@@YAXPEAH00_J1QEAH_JUProbabilityLess@?$RAnsSymbolEncoder@$0BB@@draco@@@Z
	??$_Buffered_inplace_merge_unchecked@PEAHUProbabilityLess@?$RAnsSymbolEncoder@$0BC@@draco@@@std@@YAXPEAH00_J1QEAH_JUProbabilityLess@?$RAnsSymbolEncoder@$0BC@@draco@@@Z
	??$_Buffered_inplace_merge_unchecked@PEAHUProbabilityLess@?$RAnsSymbolEncoder@$0L@@draco@@@std@@YAXPEAH00_J1QEAH_JUProbabilityLess@?$RAnsSymbolEncoder@$0L@@draco@@@Z
	??$_Buffered_inplace_merge_unchecked@PEAHUProbabilityLess@?$RAnsSymbolEncoder@$0M@@draco@@@std@@YAXPEAH00_J1QEAH_JUProbabilityLess@?$RAnsSymbolEncoder@$0M@@draco@@@Z
	??$_Buffered_inplace_merge_unchecked@PEAHUProbabilityLess@?$RAnsSymbolEncoder@$0N@@draco@@@std@@YAXPEAH00_J1QEAH_JUProbabilityLess@?$RAnsSymbolEncoder@$0N@@draco@@@Z
	??$_Buffered_inplace_merge_unchecked@PEAHUProbabilityLess@?$RAnsSymbolEncoder@$0O@@draco@@@std@@YAXPEAH00_J1QEAH_JUProbabilityLess@?$RAnsSymbolEncoder@$0O@@draco@@@Z
	??$_Buffered_inplace_merge_unchecked@PEAHUProbabilityLess@?$RAnsSymbolEncoder@$0P@@draco@@@std@@YAXPEAH00_J1QEAH_JUProbabilityLess@?$RAnsSymbolEncoder@$0P@@draco@@@Z
	??$_Buffered_inplace_merge_unchecked_impl@PEAHUProbabilityLess@?$RAnsSymbolEncoder@$00@draco@@@std@@YAXPEAH00_J1QEAH_JUProbabilityLess@?$RAnsSymbolEncoder@$00@draco@@@Z
	??$_Buffered_inplace_merge_unchecked_impl@PEAHUProbabilityLess@?$RAnsSymbolEncoder@$01@draco@@@std@@YAXPEAH00_J1QEAH_JUProbabilityLess@?$RAnsSymbolEncoder@$01@draco@@@Z
	??$_Buffered_inplace_merge_unchecked_impl@PEAHUProbabilityLess@?$RAnsSymbolEncoder@$02@draco@@@std@@YAXPEAH00_J1QEAH_JUProbabilityLess@?$RAnsSymbolEncoder@$02@draco@@@Z
	??$_Buffered_inplace_merge_unchecked_impl@PEAHUProbabilityLess@?$RAnsSymbolEncoder@$03@draco@@@std@@YAXPEAH00_J1QEAH_JUProbabilityLess@?$RAnsSymbolEncoder@$03@draco@@@Z
	??$_Buffered_inplace_merge_unchecked_impl@PEAHUProbabilityLess@?$RAnsSymbolEncoder@$04@draco@@@std@@YAXPEAH00_J1QEAH_JUProbabilityLess@?$RAnsSymbolEncoder@$04@draco@@@Z
	??$_Buffered_inplace_merge_unchecked_impl@PEAHUProbabilityLess@?$RAnsSymbolEncoder@$05@draco@@@std@@YAXPEAH00_J1QEAH_JUProbabilityLess@?$RAnsSymbolEncoder@$05@draco@@@Z
	??$_Buffered_inplace_merge_unchecked_impl@PEAHUProbabilityLess@?$RAnsSymbolEncoder@$06@draco@@@std@@YAXPEAH00_J1QEAH_JUProbabilityLess@?$RAnsSymbolEncoder@$06@draco@@@Z
	??$_Buffered_inplace_merge_unchecked_impl@PEAHUProbabilityLess@?$RAnsSymbolEncoder@$07@draco@@@std@@YAXPEAH00_J1QEAH_JUProbabilityLess@?$RAnsSymbolEncoder@$07@draco@@@Z
	??$_Buffered_inplace_merge_unchecked_impl@PEAHUProbabilityLess@?$RAnsSymbolEncoder@$08@draco@@@std@@YAXPEAH00_J1QEAH_JUProbabilityLess@?$RAnsSymbolEncoder@$08@draco@@@Z
	??$_Buffered_inplace_merge_unchecked_impl@PEAHUProbabilityLess@?$RAnsSymbolEncoder@$09@draco@@@std@@YAXPEAH00_J1QEAH_JUProbabilityLess@?$RAnsSymbolEncoder@$09@draco@@@Z
	??$_Buffered_inplace_merge_unchecked_impl@PEAHUProbabilityLess@?$RAnsSymbolEncoder@$0BA@@draco@@@std@@YAXPEAH00_J1QEAH_JUProbabilityLess@?$RAnsSymbolEncoder@$0BA@@draco@@@Z
	??$_Buffered_inplace_merge_unchecked_impl@PEAHUProbabilityLess@?$RAnsSymbolEncoder@$0BB@@draco@@@std@@YAXPEAH00_J1QEAH_JUProbabilityLess@?$RAnsSymbolEncoder@$0BB@@draco@@@Z
	??$_Buffered_inplace_merge_unchecked_impl@PEAHUProbabilityLess@?$RAnsSymbolEncoder@$0BC@@draco@@@std@@YAXPEAH00_J1QEAH_JUProbabilityLess@?$RAnsSymbolEncoder@$0BC@@draco@@@Z
	??$_Buffered_inplace_merge_unchecked_impl@PEAHUProbabilityLess@?$RAnsSymbolEncoder@$0L@@draco@@@std@@YAXPEAH00_J1QEAH_JUProbabilityLess@?$RAnsSymbolEncoder@$0L@@draco@@@Z
	??$_Buffered_inplace_merge_unchecked_impl@PEAHUProbabilityLess@?$RAnsSymbolEncoder@$0M@@draco@@@std@@YAXPEAH00_J1QEAH_JUProbabilityLess@?$RAnsSymbolEncoder@$0M@@draco@@@Z
	??$_Buffered_inplace_merge_unchecked_impl@PEAHUProbabilityLess@?$RAnsSymbolEncoder@$0N@@draco@@@std@@YAXPEAH00_J1QEAH_JUProbabilityLess@?$RAnsSymbolEncoder@$0N@@draco@@@Z
	??$_Buffered_inplace_merge_unchecked_impl@PEAHUProbabilityLess@?$RAnsSymbolEncoder@$0O@@draco@@@std@@YAXPEAH00_J1QEAH_JUProbabilityLess@?$RAnsSymbolEncoder@$0O@@draco@@@Z
	??$_Buffered_inplace_merge_unchecked_impl@PEAHUProbabilityLess@?$RAnsSymbolEncoder@$0P@@draco@@@std@@YAXPEAH00_J1QEAH_JUProbabilityLess@?$RAnsSymbolEncoder@$0P@@draco@@@Z
	??$_Buffered_merge_sort_unchecked@PEAHUProbabilityLess@?$RAnsSymbolEncoder@$00@draco@@@std@@YAXQEAH0_J0UProbabilityLess@?$RAnsSymbolEncoder@$00@draco@@@Z
	??$_Buffered_merge_sort_unchecked@PEAHUProbabilityLess@?$RAnsSymbolEncoder@$01@draco@@@std@@YAXQEAH0_J0UProbabilityLess@?$RAnsSymbolEncoder@$01@draco@@@Z
	??$_Buffered_merge_sort_unchecked@PEAHUProbabilityLess@?$RAnsSymbolEncoder@$02@draco@@@std@@YAXQEAH0_J0UProbabilityLess@?$RAnsSymbolEncoder@$02@draco@@@Z
	??$_Buffered_merge_sort_unchecked@PEAHUProbabilityLess@?$RAnsSymbolEncoder@$03@draco@@@std@@YAXQEAH0_J0UProbabilityLess@?$RAnsSymbolEncoder@$03@draco@@@Z
	??$_Buffered_merge_sort_unchecked@PEAHUProbabilityLess@?$RAnsSymbolEncoder@$04@draco@@@std@@YAXQEAH0_J0UProbabilityLess@?$RAnsSymbolEncoder@$04@draco@@@Z
	??$_Buffered_merge_sort_unchecked@PEAHUProbabilityLess@?$RAnsSymbolEncoder@$05@draco@@@std@@YAXQEAH0_J0UProbabilityLess@?$RAnsSymbolEncoder@$05@draco@@@Z
	??$_Buffered_merge_sort_unchecked@PEAHUProbabilityLess@?$RAnsSymbolEncoder@$06@draco@@@std@@YAXQEAH0_J0UProbabilityLess@?$RAnsSymbolEncoder@$06@draco@@@Z
	??$_Buffered_merge_sort_unchecked@PEAHUProbabilityLess@?$RAnsSymbolEncoder@$07@draco@@@std@@YAXQEAH0_J0UProbabilityLess@?$RAnsSymbolEncoder@$07@draco@@@Z
	??$_Buffered_merge_sort_unchecked@PEAHUProbabilityLess@?$RAnsSymbolEncoder@$08@draco@@@std@@YAXQEAH0_J0UProbabilityLess@?$RAnsSymbolEncoder@$08@draco@@@Z
	??$_Buffered_merge_sort_unchecked@PEAHUProbabilityLess@?$RAnsSymbolEncoder@$09@draco@@@std@@YAXQEAH0_J0UProbabilityLess@?$RAnsSymbolEncoder@$09@draco@@@Z
	??$_Buffered_merge_sort_unchecked@PEAHUProbabilityLess@?$RAnsSymbolEncoder@$0BA@@draco@@@std@@YAXQEAH0_J0UProbabilityLess@?$RAnsSymbolEncoder@$0BA@@draco@@@Z
	??$_Buffered_merge_sort_unchecked@PEAHUProbabilityLess@?$RAnsSymbolEncoder@$0BB@@draco@@@std@@YAXQEAH0_J0UProbabilityLess@?$RAnsSymbolEncoder@$0BB@@draco@@@Z
	??$_Buffered_merge_sort_unchecked@PEAHUProbabilityLess@?$RAnsSymbolEncoder@$0BC@@draco@@@std@@YAXQEAH0_J0UProbabilityLess@?$RAnsSymbolEncoder@$0BC@@draco@@@Z
	??$_Buffered_merge_sort_unchecked@PEAHUProbabilityLess@?$RAnsSymbolEncoder@$0L@@draco@@@std@@YAXQEAH0_J0UProbabilityLess@?$RAnsSymbolEncoder@$0L@@draco@@@Z
	??$_Buffered_merge_sort_unchecked@PEAHUProbabilityLess@?$RAnsSymbolEncoder@$0M@@draco@@@std@@YAXQEAH0_J0UProbabilityLess@?$RAnsSymbolEncoder@$0M@@draco@@@Z
	??$_Buffered_merge_sort_unchecked@PEAHUProbabilityLess@?$RAnsSymbolEncoder@$0N@@draco@@@std@@YAXQEAH0_J0UProbabilityLess@?$RAnsSymbolEncoder@$0N@@draco@@@Z
	??$_Buffered_merge_sort_unchecked@PEAHUProbabilityLess@?$RAnsSymbolEncoder@$0O@@draco@@@std@@YAXQEAH0_J0UProbabilityLess@?$RAnsSymbolEncoder@$0O@@draco@@@Z
	??$_Buffered_merge_sort_unchecked@PEAHUProbabilityLess@?$RAnsSymbolEncoder@$0P@@draco@@@std@@YAXQEAH0_J0UProbabilityLess@?$RAnsSymbolEncoder@$0P@@draco@@@Z
	??$_Buffered_rotate_unchecked@PEAH@std@@YAPEAHQEAH00_J101@Z
	??$_Buyheadnode@V?$allocator@U?$_Tree_node@U?$pair@$$CBHVOptions@draco@@@std@@PEAX@std@@@std@@@?$_Tree_node@U?$pair@$$CBHVOptions@draco@@@std@@PEAX@std@@SAPEAU01@AEAV?$allocator@U?$_Tree_node@U?$pair@$$CBHVOptions@draco@@@std@@PEAX@std@@@1@@Z
	??$_Buyheadnode@V?$allocator@U?$_Tree_node@U?$pair@$$CBV?$IndexType@IUAttributeValueIndex_tag_type_@draco@@@draco@@V?$IndexType@IUPointIndex_tag_type_@draco@@@2@@std@@PEAX@std@@@std@@@?$_Tree_node@U?$pair@$$CBV?$IndexType@IUAttributeValueIndex_tag_type_@draco@@@draco@@V?$IndexType@IUPointIndex_tag_type_@draco@@@2@@std@@PEAX@std@@SAPEAU01@AEAV?$allocator@U?$_Tree_node@U?$pair@$$CBV?$IndexType@IUAttributeValueIndex_tag_type_@draco@@@draco@@V?$IndexType@IUPointIndex_tag_type_@draco@@@2@@std@@PEAX@std@@@1@@Z
	??$_Buyheadnode@V?$allocator@U?$_Tree_node@U?$pair@$$CBV?$basic_string@DU?$char_traits@D@std@@V?$allocator@D@2@@std@@H@std@@PEAX@std@@@std@@@?$_Tree_node@U?$pair@$$CBV?$basic_string@DU?$char_traits@D@std@@V?$allocator@D@2@@std@@H@std@@PEAX@std@@SAPEAU01@AEAV?$allocator@U?$_Tree_node@U?$pair@$$CBV?$basic_string@DU?$char_traits@D@std@@V?$allocator@D@2@@std@@H@std@@PEAX@std@@@1@@Z
	??$_Buyheadnode@V?$allocator@U?$_Tree_node@U?$pair@$$CBV?$basic_string@DU?$char_traits@D@std@@V?$allocator@D@2@@std@@V12@@std@@PEAX@std@@@std@@@?$_Tree_node@U?$pair@$$CBV?$basic_string@DU?$char_traits@D@std@@V?$allocator@D@2@@std@@V12@@std@@PEAX@std@@SAPEAU01@AEAV?$allocator@U?$_Tree_node@U?$pair@$$CBV?$basic_string@DU?$char_traits@D@std@@V?$allocator@D@2@@std@@V12@@std@@PEAX@std@@@1@@Z
	??$_Buyheadnode@V?$allocator@U?$_Tree_node@U?$pair@$$CBV?$basic_string@DU?$char_traits@D@std@@V?$allocator@D@2@@std@@V?$unique_ptr@VMetadata@draco@@U?$default_delete@VMetadata@draco@@@std@@@2@@std@@PEAX@std@@@std@@@?$_Tree_node@U?$pair@$$CBV?$basic_string@DU?$char_traits@D@std@@V?$allocator@D@2@@std@@V?$unique_ptr@VMetadata@draco@@U?$default_delete@VMetadata@draco@@@std@@@2@@std@@PEAX@std@@SAPEAU01@AEAV?$allocator@U?$_Tree_node@U?$pair@$$CBV?$basic_string@DU?$char_traits@D@std@@V?$allocator@D@2@@std@@V?$unique_ptr@VMetadata@draco@@U?$default_delete@VMetadata@draco@@@std@@@2@@std@@PEAX@std@@@1@@Z
	??$_Buyheadnode@V?$allocator@U?$_Tree_node@U?$pair@$$CBV?$basic_string@DU?$char_traits@D@std@@V?$allocator@D@2@@std@@VEntryValue@draco@@@std@@PEAX@std@@@std@@@?$_Tree_node@U?$pair@$$CBV?$basic_string@DU?$char_traits@D@std@@V?$allocator@D@2@@std@@VEntryValue@draco@@@std@@PEAX@std@@SAPEAU01@AEAV?$allocator@U?$_Tree_node@U?$pair@$$CBV?$basic_string@DU?$char_traits@D@std@@V?$allocator@D@2@@std@@VEntryValue@draco@@@std@@PEAX@std@@@1@@Z
	??$_Buyheadnode@V?$allocator@U?$_Tree_node@U?$pair@$$CBW4Type@GeometryAttribute@draco@@VOptions@3@@std@@PEAX@std@@@std@@@?$_Tree_node@U?$pair@$$CBW4Type@GeometryAttribute@draco@@VOptions@3@@std@@PEAX@std@@SAPEAU01@AEAV?$allocator@U?$_Tree_node@U?$pair@$$CBW4Type@GeometryAttribute@draco@@VOptions@3@@std@@PEAX@std@@@1@@Z
	??$_Buynode@AEAU?$pair@$$CBHVOptions@draco@@@std@@@?$_Tree@V?$_Tmap_traits@HVOptions@draco@@U?$less@H@std@@V?$allocator@U?$pair@$$CBHVOptions@draco@@@std@@@4@$0A@@std@@@std@@IEAAPEAU?$_Tree_node@U?$pair@$$CBHVOptions@draco@@@std@@PEAX@1@AEAU?$pair@$$CBHVOptions@draco@@@1@@Z
	??$_Buynode@AEAU?$pair@$$CBV?$basic_string@DU?$char_traits@D@std@@V?$allocator@D@2@@std@@H@std@@@?$_Tree@V?$_Tmap_traits@V?$basic_string@DU?$char_traits@D@std@@V?$allocator@D@2@@std@@HU?$less@V?$basic_string@DU?$char_traits@D@std@@V?$allocator@D@2@@std@@@2@V?$allocator@U?$pair@$$CBV?$basic_string@DU?$char_traits@D@std@@V?$allocator@D@2@@std@@H@std@@@2@$0A@@std@@@std@@IEAAPEAU?$_Tree_node@U?$pair@$$CBV?$basic_string@DU?$char_traits@D@std@@V?$allocator@D@2@@std@@H@std@@PEAX@1@AEAU?$pair@$$CBV?$basic_string@DU?$char_traits@D@std@@V?$allocator@D@2@@std@@H@1@@Z
	??$_Buynode@AEAU?$pair@$$CBV?$basic_string@DU?$char_traits@D@std@@V?$allocator@D@2@@std@@V12@@std@@@?$_Tree@V?$_Tmap_traits@V?$basic_string@DU?$char_traits@D@std@@V?$allocator@D@2@@std@@V12@U?$less@V?$basic_string@DU?$char_traits@D@std@@V?$allocator@D@2@@std@@@2@V?$allocator@U?$pair@$$CBV?$basic_string@DU?$char_traits@D@std@@V?$allocator@D@2@@std@@V12@@std@@@2@$0A@@std@@@std@@IEAAPEAU?$_Tree_node@U?$pair@$$CBV?$basic_string@DU?$char_traits@D@std@@V?$allocator@D@2@@std@@V12@@std@@PEAX@1@AEAU?$pair@$$CBV?$basic_string@DU?$char_traits@D@std@@V?$allocator@D@2@@std@@V12@@1@@Z
	??$_Buynode@AEAU?$pair@$$CBW4Type@GeometryAttribute@draco@@VOptions@3@@std@@@?$_Tree@V?$_Tmap_traits@W4Type@GeometryAttribute@draco@@VOptions@3@U?$less@W4Type@GeometryAttribute@draco@@@std@@V?$allocator@U?$pair@$$CBW4Type@GeometryAttribute@draco@@VOptions@3@@std@@@6@$0A@@std@@@std@@IEAAPEAU?$_Tree_node@U?$pair@$$CBW4Type@GeometryAttribute@draco@@VOptions@3@@std@@PEAX@1@AEAU?$pair@$$CBW4Type@GeometryAttribute@draco@@VOptions@3@@1@@Z
	??$_Buynode@V?$allocator@U?$_Tree_node@U?$pair@$$CBHVOptions@draco@@@std@@PEAX@std@@@std@@AEAU?$pair@$$CBHVOptions@draco@@@2@@?$_Tree_node@U?$pair@$$CBHVOptions@draco@@@std@@PEAX@std@@SAPEAU01@AEAV?$allocator@U?$_Tree_node@U?$pair@$$CBHVOptions@draco@@@std@@PEAX@std@@@1@PEAU01@AEAU?$pair@$$CBHVOptions@draco@@@1@@Z
	??$_Buynode@V?$allocator@U?$_Tree_node@U?$pair@$$CBV?$basic_string@DU?$char_traits@D@std@@V?$allocator@D@2@@std@@H@std@@PEAX@std@@@std@@AEAU?$pair@$$CBV?$basic_string@DU?$char_traits@D@std@@V?$allocator@D@2@@std@@H@2@@?$_Tree_node@U?$pair@$$CBV?$basic_string@DU?$char_traits@D@std@@V?$allocator@D@2@@std@@H@std@@PEAX@std@@SAPEAU01@AEAV?$allocator@U?$_Tree_node@U?$pair@$$CBV?$basic_string@DU?$char_traits@D@std@@V?$allocator@D@2@@std@@H@std@@PEAX@std@@@1@PEAU01@AEAU?$pair@$$CBV?$basic_string@DU?$char_traits@D@std@@V?$allocator@D@2@@std@@H@1@@Z
	??$_Buynode@V?$allocator@U?$_Tree_node@U?$pair@$$CBV?$basic_string@DU?$char_traits@D@std@@V?$allocator@D@2@@std@@V12@@std@@PEAX@std@@@std@@AEAU?$pair@$$CBV?$basic_string@DU?$char_traits@D@std@@V?$allocator@D@2@@std@@V12@@2@@?$_Tree_node@U?$pair@$$CBV?$basic_string@DU?$char_traits@D@std@@V?$allocator@D@2@@std@@V12@@std@@PEAX@std@@SAPEAU01@AEAV?$allocator@U?$_Tree_node@U?$pair@$$CBV?$basic_string@DU?$char_traits@D@std@@V?$allocator@D@2@@std@@V12@@std@@PEAX@std@@@1@PEAU01@AEAU?$pair@$$CBV?$basic_string@DU?$char_traits@D@std@@V?$allocator@D@2@@std@@V12@@1@@Z
	??$_Buynode@V?$allocator@U?$_Tree_node@U?$pair@$$CBW4Type@GeometryAttribute@draco@@VOptions@3@@std@@PEAX@std@@@std@@AEAU?$pair@$$CBW4Type@GeometryAttribute@draco@@VOptions@3@@2@@?$_Tree_node@U?$pair@$$CBW4Type@GeometryAttribute@draco@@VOptions@3@@std@@PEAX@std@@SAPEAU01@AEAV?$allocator@U?$_Tree_node@U?$pair@$$CBW4Type@GeometryAttribute@draco@@VOptions@3@@std@@PEAX@std@@@1@PEAU01@AEAU?$pair@$$CBW4Type@GeometryAttribute@draco@@VOptions@3@@1@@Z
	??$_Chunked_merge_unchecked@PEAHPEAHUProbabilityLess@?$RAnsSymbolEncoder@$00@draco@@@std@@YAXPEAHQEAH0_J_JUProbabilityLess@?$RAnsSymbolEncoder@$00@draco@@@Z
	??$_Chunked_merge_unchecked@PEAHPEAHUProbabilityLess@?$RAnsSymbolEncoder@$01@draco@@@std@@YAXPEAHQEAH0_J_JUProbabilityLess@?$RAnsSymbolEncoder@$01@draco@@@Z
	??$_Chunked_merge_unchecked@PEAHPEAHUProbabilityLess@?$RAnsSymbolEncoder@$02@draco@@@std@@YAXPEAHQEAH0_J_JUProbabilityLess@?$RAnsSymbolEncoder@$02@draco@@@Z
	??$_Chunked_merge_unchecked@PEAHPEAHUProbabilityLess@?$RAnsSymbolEncoder@$03@draco@@@std@@YAXPEAHQEAH0_J_JUProbabilityLess@?$RAnsSymbolEncoder@$03@draco@@@Z
	??$_Chunked_merge_unchecked@PEAHPEAHUProbabilityLess@?$RAnsSymbolEncoder@$04@draco@@@std@@YAXPEAHQEAH0_J_JUProbabilityLess@?$RAnsSymbolEncoder@$04@draco@@@Z
	??$_Chunked_merge_unchecked@PEAHPEAHUProbabilityLess@?$RAnsSymbolEncoder@$05@draco@@@std@@YAXPEAHQEAH0_J_JUProbabilityLess@?$RAnsSymbolEncoder@$05@draco@@@Z
	??$_Chunked_merge_unchecked@PEAHPEAHUProbabilityLess@?$RAnsSymbolEncoder@$06@draco@@@std@@YAXPEAHQEAH0_J_JUProbabilityLess@?$RAnsSymbolEncoder@$06@draco@@@Z
	??$_Chunked_merge_unchecked@PEAHPEAHUProbabilityLess@?$RAnsSymbolEncoder@$07@draco@@@std@@YAXPEAHQEAH0_J_JUProbabilityLess@?$RAnsSymbolEncoder@$07@draco@@@Z
	??$_Chunked_merge_unchecked@PEAHPEAHUProbabilityLess@?$RAnsSymbolEncoder@$08@draco@@@std@@YAXPEAHQEAH0_J_JUProbabilityLess@?$RAnsSymbolEncoder@$08@draco@@@Z
	??$_Chunked_merge_unchecked@PEAHPEAHUProbabilityLess@?$RAnsSymbolEncoder@$09@draco@@@std@@YAXPEAHQEAH0_J_JUProbabilityLess@?$RAnsSymbolEncoder@$09@draco@@@Z
	??$_Chunked_merge_unchecked@PEAHPEAHUProbabilityLess@?$RAnsSymbolEncoder@$0BA@@draco@@@std@@YAXPEAHQEAH0_J_JUProbabilityLess@?$RAnsSymbolEncoder@$0BA@@draco@@@Z
	??$_Chunked_merge_unchecked@PEAHPEAHUProbabilityLess@?$RAnsSymbolEncoder@$0BB@@draco@@@std@@YAXPEAHQEAH0_J_JUProbabilityLess@?$RAnsSymbolEncoder@$0BB@@draco@@@Z
	??$_Chunked_merge_unchecked@PEAHPEAHUProbabilityLess@?$RAnsSymbolEncoder@$0BC@@draco@@@std@@YAXPEAHQEAH0_J_JUProbabilityLess@?$RAnsSymbolEncoder@$0BC@@draco@@@Z
	??$_Chunked_merge_unchecked@PEAHPEAHUProbabilityLess@?$RAnsSymbolEncoder@$0L@@draco@@@std@@YAXPEAHQEAH0_J_JUProbabilityLess@?$RAnsSymbolEncoder@$0L@@draco@@@Z
	??$_Chunked_merge_unchecked@PEAHPEAHUProbabilityLess@?$RAnsSymbolEncoder@$0M@@draco@@@std@@YAXPEAHQEAH0_J_JUProbabilityLess@?$RAnsSymbolEncoder@$0M@@draco@@@Z
	??$_Chunked_merge_unchecked@PEAHPEAHUProbabilityLess@?$RAnsSymbolEncoder@$0N@@draco@@@std@@YAXPEAHQEAH0_J_JUProbabilityLess@?$RAnsSymbolEncoder@$0N@@draco@@@Z
	??$_Chunked_merge_unchecked@PEAHPEAHUProbabilityLess@?$RAnsSymbolEncoder@$0O@@draco@@@std@@YAXPEAHQEAH0_J_JUProbabilityLess@?$RAnsSymbolEncoder@$0O@@draco@@@Z
	??$_Chunked_merge_unchecked@PEAHPEAHUProbabilityLess@?$RAnsSymbolEncoder@$0P@@draco@@@std@@YAXPEAHQEAH0_J_JUProbabilityLess@?$RAnsSymbolEncoder@$0P@@draco@@@Z
	??$_Construct@$00PEAD@?$basic_string@DU?$char_traits@D@std@@V?$allocator@D@2@@std@@AEAAXQEAD_K@Z
	??$_Construct@$00PEBD@?$basic_string@DU?$char_traits@D@std@@V?$allocator@D@2@@std@@AEAAXQEBD_K@Z
	??$_Construct@$01PEBD@?$basic_string@DU?$char_traits@D@std@@V?$allocator@D@2@@std@@AEAAXQEBD_K@Z
	??$_Construct@$0A@D@?$basic_string@DU?$char_traits@D@std@@V?$allocator@D@2@@std@@AEAAXD_K@Z
	??$_Construct_in_place@CC@std@@YAXAEAC$$QEAC@Z
	??$_Construct_in_place@EE@std@@YAXAEAE$$QEAE@Z
	??$_Construct_in_place@HAEBH@std@@YAXAEAHAEBH@Z
	??$_Construct_in_place@HH@std@@YAXAEAH$$QEAH@Z
	??$_Construct_in_place@IAEBI@std@@YAXAEAIAEBI@Z
	??$_Construct_in_place@II@std@@YAXAEAI$$QEAI@Z
	??$_Construct_in_place@P6A?AV?$unique_ptr@VFileReaderInterface@draco@@U?$default_delete@VFileReaderInterface@draco@@@std@@@std@@AEBV?$basic_string@DU?$char_traits@D@std@@V?$allocator@D@2@@2@@ZAEBQ6A?AV12@0@Z@std@@YAXAEAP6A?AV?$unique_ptr@VFileReaderInterface@draco@@U?$default_delete@VFileReaderInterface@draco@@@std@@@0@AEBV?$basic_string@DU?$char_traits@D@std@@V?$allocator@D@2@@0@@ZAEBQ6A?AV10@0@Z@Z
	??$_Construct_in_place@P6A?AV?$unique_ptr@VFileWriterInterface@draco@@U?$default_delete@VFileWriterInterface@draco@@@std@@@std@@AEBV?$basic_string@DU?$char_traits@D@std@@V?$allocator@D@2@@2@@ZAEBQ6A?AV12@0@Z@std@@YAXAEAP6A?AV?$unique_ptr@VFileWriterInterface@draco@@U?$default_delete@VFileWriterInterface@draco@@@std@@@0@AEBV?$basic_string@DU?$char_traits@D@std@@V?$allocator@D@2@@0@@ZAEBQ6A?AV10@0@Z@Z
	??$_Construct_in_place@PEADAEAPEAD@std@@YAXAEAPEAD0@Z
	??$_Construct_in_place@PEADAEBQEAD@std@@YAXAEAPEADAEBQEAD@Z
	??$_Construct_in_place@PEAU?$EncodingStatus@V?$_Vector_iterator@V?$_Vector_val@U?$_Simple_types@V?$VectorD@I$02@draco@@@std@@@std@@@std@@@?$DynamicIntegerPointsKdTreeEncoder@$00@draco@@AEAPEAU123@@std@@YAXAEAPEAU?$EncodingStatus@V?$_Vector_iterator@V?$_Vector_val@U?$_Simple_types@V?$VectorD@I$02@draco@@@std@@@std@@@std@@@?$DynamicIntegerPointsKdTreeEncoder@$00@draco@@0@Z
	??$_Construct_in_place@PEAU?$EncodingStatus@V?$_Vector_iterator@V?$_Vector_val@U?$_Simple_types@V?$VectorD@I$02@draco@@@std@@@std@@@std@@@?$DynamicIntegerPointsKdTreeEncoder@$01@draco@@AEAPEAU123@@std@@YAXAEAPEAU?$EncodingStatus@V?$_Vector_iterator@V?$_Vector_val@U?$_Simple_types@V?$VectorD@I$02@draco@@@std@@@std@@@std@@@?$DynamicIntegerPointsKdTreeEncoder@$01@draco@@0@Z
	??$_Construct_in_place@PEAU?$EncodingStatus@V?$_Vector_iterator@V?$_Vector_val@U?$_Simple_types@V?$VectorD@I$02@draco@@@std@@@std@@@std@@@?$DynamicIntegerPointsKdTreeEncoder@$02@draco@@AEAPEAU123@@std@@YAXAEAPEAU?$EncodingStatus@V?$_Vector_iterator@V?$_Vector_val@U?$_Simple_types@V?$VectorD@I$02@draco@@@std@@@std@@@std@@@?$DynamicIntegerPointsKdTreeEncoder@$02@draco@@0@Z
	??$_Construct_in_place@PEAU?$EncodingStatus@V?$_Vector_iterator@V?$_Vector_val@U?$_Simple_types@V?$VectorD@I$02@draco@@@std@@@std@@@std@@@?$DynamicIntegerPointsKdTreeEncoder@$03@draco@@AEAPEAU123@@std@@YAXAEAPEAU?$EncodingStatus@V?$_Vector_iterator@V?$_Vector_val@U?$_Simple_types@V?$VectorD@I$02@draco@@@std@@@std@@@std@@@?$DynamicIntegerPointsKdTreeEncoder@$03@draco@@0@Z
	??$_Construct_in_place@PEAU?$EncodingStatus@V?$_Vector_iterator@V?$_Vector_val@U?$_Simple_types@V?$VectorD@I$02@draco@@@std@@@std@@@std@@@?$DynamicIntegerPointsKdTreeEncoder@$04@draco@@AEAPEAU123@@std@@YAXAEAPEAU?$EncodingStatus@V?$_Vector_iterator@V?$_Vector_val@U?$_Simple_types@V?$VectorD@I$02@draco@@@std@@@std@@@std@@@?$DynamicIntegerPointsKdTreeEncoder@$04@draco@@0@Z
	??$_Construct_in_place@PEAU?$EncodingStatus@V?$_Vector_iterator@V?$_Vector_val@U?$_Simple_types@V?$VectorD@I$02@draco@@@std@@@std@@@std@@@?$DynamicIntegerPointsKdTreeEncoder@$05@draco@@AEAPEAU123@@std@@YAXAEAPEAU?$EncodingStatus@V?$_Vector_iterator@V?$_Vector_val@U?$_Simple_types@V?$VectorD@I$02@draco@@@std@@@std@@@std@@@?$DynamicIntegerPointsKdTreeEncoder@$05@draco@@0@Z
	??$_Construct_in_place@PEAU?$EncodingStatus@V?$_Vector_iterator@V?$_Vector_val@U?$_Simple_types@V?$VectorD@I$02@draco@@@std@@@std@@@std@@@?$DynamicIntegerPointsKdTreeEncoder@$0A@@draco@@AEAPEAU123@@std@@YAXAEAPEAU?$EncodingStatus@V?$_Vector_iterator@V?$_Vector_val@U?$_Simple_types@V?$VectorD@I$02@draco@@@std@@@std@@@std@@@?$DynamicIntegerPointsKdTreeEncoder@$0A@@draco@@0@Z
	??$_Construct_in_place@PEAU?$EncodingStatus@VPointDVectorIterator@?$PointDVector@I@draco@@@?$DynamicIntegerPointsKdTreeEncoder@$00@draco@@AEAPEAU123@@std@@YAXAEAPEAU?$EncodingStatus@VPointDVectorIterator@?$PointDVector@I@draco@@@?$DynamicIntegerPointsKdTreeEncoder@$00@draco@@0@Z
	??$_Construct_in_place@PEAU?$EncodingStatus@VPointDVectorIterator@?$PointDVector@I@draco@@@?$DynamicIntegerPointsKdTreeEncoder@$01@draco@@AEAPEAU123@@std@@YAXAEAPEAU?$EncodingStatus@VPointDVectorIterator@?$PointDVector@I@draco@@@?$DynamicIntegerPointsKdTreeEncoder@$01@draco@@0@Z
	??$_Construct_in_place@PEAU?$EncodingStatus@VPointDVectorIterator@?$PointDVector@I@draco@@@?$DynamicIntegerPointsKdTreeEncoder@$02@draco@@AEAPEAU123@@std@@YAXAEAPEAU?$EncodingStatus@VPointDVectorIterator@?$PointDVector@I@draco@@@?$DynamicIntegerPointsKdTreeEncoder@$02@draco@@0@Z
	??$_Construct_in_place@PEAU?$EncodingStatus@VPointDVectorIterator@?$PointDVector@I@draco@@@?$DynamicIntegerPointsKdTreeEncoder@$03@draco@@AEAPEAU123@@std@@YAXAEAPEAU?$EncodingStatus@VPointDVectorIterator@?$PointDVector@I@draco@@@?$DynamicIntegerPointsKdTreeEncoder@$03@draco@@0@Z
	??$_Construct_in_place@PEAU?$EncodingStatus@VPointDVectorIterator@?$PointDVector@I@draco@@@?$DynamicIntegerPointsKdTreeEncoder@$04@draco@@AEAPEAU123@@std@@YAXAEAPEAU?$EncodingStatus@VPointDVectorIterator@?$PointDVector@I@draco@@@?$DynamicIntegerPointsKdTreeEncoder@$04@draco@@0@Z
	??$_Construct_in_place@PEAU?$EncodingStatus@VPointDVectorIterator@?$PointDVector@I@draco@@@?$DynamicIntegerPointsKdTreeEncoder@$05@draco@@AEAPEAU123@@std@@YAXAEAPEAU?$EncodingStatus@VPointDVectorIterator@?$PointDVector@I@draco@@@?$DynamicIntegerPointsKdTreeEncoder@$05@draco@@0@Z
	??$_Construct_in_place@PEAU?$EncodingStatus@VPointDVectorIterator@?$PointDVector@I@draco@@@?$DynamicIntegerPointsKdTreeEncoder@$0A@@draco@@AEAPEAU123@@std@@YAXAEAPEAU?$EncodingStatus@VPointDVectorIterator@?$PointDVector@I@draco@@@?$DynamicIntegerPointsKdTreeEncoder@$0A@@draco@@0@Z
	??$_Construct_in_place@PEAU?$_List_node@U?$pair@$$CBHH@std@@PEAX@std@@AEAPEAU12@@std@@YAXAEAPEAU?$_List_node@U?$pair@$$CBHH@std@@PEAX@0@0@Z
	??$_Construct_in_place@PEAU?$_List_node@U?$pair@$$CBHH@std@@PEAX@std@@AEBQEAU12@@std@@YAXAEAPEAU?$_List_node@U?$pair@$$CBHH@std@@PEAX@0@AEBQEAU10@@Z
	??$_Construct_in_place@PEAU?$_List_node@U?$pair@$$CBHV?$IndexType@IUCornerIndex_tag_type_@draco@@@draco@@@std@@PEAX@std@@AEAPEAU12@@std@@YAXAEAPEAU?$_List_node@U?$pair@$$CBHV?$IndexType@IUCornerIndex_tag_type_@draco@@@draco@@@std@@PEAX@0@0@Z
	??$_Construct_in_place@PEAU?$_List_node@U?$pair@$$CBHV?$IndexType@IUCornerIndex_tag_type_@draco@@@draco@@@std@@PEAX@std@@AEBQEAU12@@std@@YAXAEAPEAU?$_List_node@U?$pair@$$CBHV?$IndexType@IUCornerIndex_tag_type_@draco@@@draco@@@std@@PEAX@0@AEBQEAU10@@Z
	??$_Construct_in_place@PEAU?$_List_node@U?$pair@$$CBHV?$basic_string@DU?$char_traits@D@std@@V?$allocator@D@2@@std@@@std@@PEAX@std@@AEAPEAU12@@std@@YAXAEAPEAU?$_List_node@U?$pair@$$CBHV?$basic_string@DU?$char_traits@D@std@@V?$allocator@D@2@@std@@@std@@PEAX@0@0@Z
	??$_Construct_in_place@PEAU?$_List_node@U?$pair@$$CBHV?$basic_string@DU?$char_traits@D@std@@V?$allocator@D@2@@std@@@std@@PEAX@std@@AEBQEAU12@@std@@YAXAEAPEAU?$_List_node@U?$pair@$$CBHV?$basic_string@DU?$char_traits@D@std@@V?$allocator@D@2@@std@@@std@@PEAX@0@AEBQEAU10@@Z
	??$_Construct_in_place@PEAU?$_List_node@U?$pair@$$CBV?$IndexType@IUPointIndex_tag_type_@draco@@@draco@@V12@@std@@PEAX@std@@AEAPEAU12@@std@@YAXAEAPEAU?$_List_node@U?$pair@$$CBV?$IndexType@IUPointIndex_tag_type_@draco@@@draco@@V12@@std@@PEAX@0@0@Z
	??$_Construct_in_place@PEAU?$_List_node@U?$pair@$$CBV?$IndexType@IUPointIndex_tag_type_@draco@@@draco@@V12@@std@@PEAX@std@@AEBQEAU12@@std@@YAXAEAPEAU?$_List_node@U?$pair@$$CBV?$IndexType@IUPointIndex_tag_type_@draco@@@draco@@V12@@std@@PEAX@0@AEBQEAU10@@Z
	??$_Construct_in_place@PEAU?$_List_node@U?$pair@$$CBV?$array@E$00@std@@V?$IndexType@IUAttributeValueIndex_tag_type_@draco@@@draco@@@std@@PEAX@std@@AEAPEAU12@@std@@YAXAEAPEAU?$_List_node@U?$pair@$$CBV?$array@E$00@std@@V?$IndexType@IUAttributeValueIndex_tag_type_@draco@@@draco@@@std@@PEAX@0@0@Z
	??$_Construct_in_place@PEAU?$_List_node@U?$pair@$$CBV?$array@E$00@std@@V?$IndexType@IUAttributeValueIndex_tag_type_@draco@@@draco@@@std@@PEAX@std@@AEBQEAU12@@std@@YAXAEAPEAU?$_List_node@U?$pair@$$CBV?$array@E$00@std@@V?$IndexType@IUAttributeValueIndex_tag_type_@draco@@@draco@@@std@@PEAX@0@AEBQEAU10@@Z
	??$_Construct_in_place@PEAU?$_List_node@U?$pair@$$CBV?$array@E$01@std@@V?$IndexType@IUAttributeValueIndex_tag_type_@draco@@@draco@@@std@@PEAX@std@@AEAPEAU12@@std@@YAXAEAPEAU?$_List_node@U?$pair@$$CBV?$array@E$01@std@@V?$IndexType@IUAttributeValueIndex_tag_type_@draco@@@draco@@@std@@PEAX@0@0@Z
	??$_Construct_in_place@PEAU?$_List_node@U?$pair@$$CBV?$array@E$01@std@@V?$IndexType@IUAttributeValueIndex_tag_type_@draco@@@draco@@@std@@PEAX@std@@AEBQEAU12@@std@@YAXAEAPEAU?$_List_node@U?$pair@$$CBV?$array@E$01@std@@V?$IndexType@IUAttributeValueIndex_tag_type_@draco@@@draco@@@std@@PEAX@0@AEBQEAU10@@Z
	??$_Construct_in_place@PEAU?$_List_node@U?$pair@$$CBV?$array@E$02@std@@V?$IndexType@IUAttributeValueIndex_tag_type_@draco@@@draco@@@std@@PEAX@std@@AEAPEAU12@@std@@YAXAEAPEAU?$_List_node@U?$pair@$$CBV?$array@E$02@std@@V?$IndexType@IUAttributeValueIndex_tag_type_@draco@@@draco@@@std@@PEAX@0@0@Z
	??$_Construct_in_place@PEAU?$_List_node@U?$pair@$$CBV?$array@E$02@std@@V?$IndexType@IUAttributeValueIndex_tag_type_@draco@@@draco@@@std@@PEAX@std@@AEBQEAU12@@std@@YAXAEAPEAU?$_List_node@U?$pair@$$CBV?$array@E$02@std@@V?$IndexType@IUAttributeValueIndex_tag_type_@draco@@@draco@@@std@@PEAX@0@AEBQEAU10@@Z
	??$_Construct_in_place@PEAU?$_List_node@U?$pair@$$CBV?$array@E$03@std@@V?$IndexType@IUAttributeValueIndex_tag_type_@draco@@@draco@@@std@@PEAX@std@@AEAPEAU12@@std@@YAXAEAPEAU?$_List_node@U?$pair@$$CBV?$array@E$03@std@@V?$IndexType@IUAttributeValueIndex_tag_type_@draco@@@draco@@@std@@PEAX@0@0@Z
	??$_Construct_in_place@PEAU?$_List_node@U?$pair@$$CBV?$array@E$03@std@@V?$IndexType@IUAttributeValueIndex_tag_type_@draco@@@draco@@@std@@PEAX@std@@AEBQEAU12@@std@@YAXAEAPEAU?$_List_node@U?$pair@$$CBV?$array@E$03@std@@V?$IndexType@IUAttributeValueIndex_tag_type_@draco@@@draco@@@std@@PEAX@0@AEBQEAU10@@Z
	??$_Construct_in_place@PEAU?$_List_node@U?$pair@$$CBV?$array@G$00@std@@V?$IndexType@IUAttributeValueIndex_tag_type_@draco@@@draco@@@std@@PEAX@std@@AEAPEAU12@@std@@YAXAEAPEAU?$_List_node@U?$pair@$$CBV?$array@G$00@std@@V?$IndexType@IUAttributeValueIndex_tag_type_@draco@@@draco@@@std@@PEAX@0@0@Z
	??$_Construct_in_place@PEAU?$_List_node@U?$pair@$$CBV?$array@G$00@std@@V?$IndexType@IUAttributeValueIndex_tag_type_@draco@@@draco@@@std@@PEAX@std@@AEBQEAU12@@std@@YAXAEAPEAU?$_List_node@U?$pair@$$CBV?$array@G$00@std@@V?$IndexType@IUAttributeValueIndex_tag_type_@draco@@@draco@@@std@@PEAX@0@AEBQEAU10@@Z
	??$_Construct_in_place@PEAU?$_List_node@U?$pair@$$CBV?$array@G$01@std@@V?$IndexType@IUAttributeValueIndex_tag_type_@draco@@@draco@@@std@@PEAX@std@@AEAPEAU12@@std@@YAXAEAPEAU?$_List_node@U?$pair@$$CBV?$array@G$01@std@@V?$IndexType@IUAttributeValueIndex_tag_type_@draco@@@draco@@@std@@PEAX@0@0@Z
	??$_Construct_in_place@PEAU?$_List_node@U?$pair@$$CBV?$array@G$01@std@@V?$IndexType@IUAttributeValueIndex_tag_type_@draco@@@draco@@@std@@PEAX@std@@AEBQEAU12@@std@@YAXAEAPEAU?$_List_node@U?$pair@$$CBV?$array@G$01@std@@V?$IndexType@IUAttributeValueIndex_tag_type_@draco@@@draco@@@std@@PEAX@0@AEBQEAU10@@Z
	??$_Construct_in_place@PEAU?$_List_node@U?$pair@$$CBV?$array@G$02@std@@V?$IndexType@IUAttributeValueIndex_tag_type_@draco@@@draco@@@std@@PEAX@std@@AEAPEAU12@@std@@YAXAEAPEAU?$_List_node@U?$pair@$$CBV?$array@G$02@std@@V?$IndexType@IUAttributeValueIndex_tag_type_@draco@@@draco@@@std@@PEAX@0@0@Z
	??$_Construct_in_place@PEAU?$_List_node@U?$pair@$$CBV?$array@G$02@std@@V?$IndexType@IUAttributeValueIndex_tag_type_@draco@@@draco@@@std@@PEAX@std@@AEBQEAU12@@std@@YAXAEAPEAU?$_List_node@U?$pair@$$CBV?$array@G$02@std@@V?$IndexType@IUAttributeValueIndex_tag_type_@draco@@@draco@@@std@@PEAX@0@AEBQEAU10@@Z
	??$_Construct_in_place@PEAU?$_List_node@U?$pair@$$CBV?$array@G$03@std@@V?$IndexType@IUAttributeValueIndex_tag_type_@draco@@@draco@@@std@@PEAX@std@@AEAPEAU12@@std@@YAXAEAPEAU?$_List_node@U?$pair@$$CBV?$array@G$03@std@@V?$IndexType@IUAttributeValueIndex_tag_type_@draco@@@draco@@@std@@PEAX@0@0@Z
	??$_Construct_in_place@PEAU?$_List_node@U?$pair@$$CBV?$array@G$03@std@@V?$IndexType@IUAttributeValueIndex_tag_type_@draco@@@draco@@@std@@PEAX@std@@AEBQEAU12@@std@@YAXAEAPEAU?$_List_node@U?$pair@$$CBV?$array@G$03@std@@V?$IndexType@IUAttributeValueIndex_tag_type_@draco@@@draco@@@std@@PEAX@0@AEBQEAU10@@Z
	??$_Construct_in_place@PEAU?$_List_node@U?$pair@$$CBV?$array@I$00@std@@V?$IndexType@IUAttributeValueIndex_tag_type_@draco@@@draco@@@std@@PEAX@std@@AEAPEAU12@@std@@YAXAEAPEAU?$_List_node@U?$pair@$$CBV?$array@I$00@std@@V?$IndexType@IUAttributeValueIndex_tag_type_@draco@@@draco@@@std@@PEAX@0@0@Z
	??$_Construct_in_place@PEAU?$_List_node@U?$pair@$$CBV?$array@I$00@std@@V?$IndexType@IUAttributeValueIndex_tag_type_@draco@@@draco@@@std@@PEAX@std@@AEBQEAU12@@std@@YAXAEAPEAU?$_List_node@U?$pair@$$CBV?$array@I$00@std@@V?$IndexType@IUAttributeValueIndex_tag_type_@draco@@@draco@@@std@@PEAX@0@AEBQEAU10@@Z
	??$_Construct_in_place@PEAU?$_List_node@U?$pair@$$CBV?$array@I$01@std@@V?$IndexType@IUAttributeValueIndex_tag_type_@draco@@@draco@@@std@@PEAX@std@@AEAPEAU12@@std@@YAXAEAPEAU?$_List_node@U?$pair@$$CBV?$array@I$01@std@@V?$IndexType@IUAttributeValueIndex_tag_type_@draco@@@draco@@@std@@PEAX@0@0@Z
	??$_Construct_in_place@PEAU?$_List_node@U?$pair@$$CBV?$array@I$01@std@@V?$IndexType@IUAttributeValueIndex_tag_type_@draco@@@draco@@@std@@PEAX@std@@AEBQEAU12@@std@@YAXAEAPEAU?$_List_node@U?$pair@$$CBV?$array@I$01@std@@V?$IndexType@IUAttributeValueIndex_tag_type_@draco@@@draco@@@std@@PEAX@0@AEBQEAU10@@Z
	??$_Construct_in_place@PEAU?$_List_node@U?$pair@$$CBV?$array@I$02@std@@V?$IndexType@IUAttributeValueIndex_tag_type_@draco@@@draco@@@std@@PEAX@std@@AEAPEAU12@@std@@YAXAEAPEAU?$_List_node@U?$pair@$$CBV?$array@I$02@std@@V?$IndexType@IUAttributeValueIndex_tag_type_@draco@@@draco@@@std@@PEAX@0@0@Z
	??$_Construct_in_place@PEAU?$_List_node@U?$pair@$$CBV?$array@I$02@std@@V?$IndexType@IUAttributeValueIndex_tag_type_@draco@@@draco@@@std@@PEAX@std@@AEBQEAU12@@std@@YAXAEAPEAU?$_List_node@U?$pair@$$CBV?$array@I$02@std@@V?$IndexType@IUAttributeValueIndex_tag_type_@draco@@@draco@@@std@@PEAX@0@AEBQEAU10@@Z
	??$_Construct_in_place@PEAU?$_List_node@U?$pair@$$CBV?$array@I$03@std@@V?$IndexType@IUAttributeValueIndex_tag_type_@draco@@@draco@@@std@@PEAX@std@@AEAPEAU12@@std@@YAXAEAPEAU?$_List_node@U?$pair@$$CBV?$array@I$03@std@@V?$IndexType@IUAttributeValueIndex_tag_type_@draco@@@draco@@@std@@PEAX@0@0@Z
	??$_Construct_in_place@PEAU?$_List_node@U?$pair@$$CBV?$array@I$03@std@@V?$IndexType@IUAttributeValueIndex_tag_type_@draco@@@draco@@@std@@PEAX@std@@AEBQEAU12@@std@@YAXAEAPEAU?$_List_node@U?$pair@$$CBV?$array@I$03@std@@V?$IndexType@IUAttributeValueIndex_tag_type_@draco@@@draco@@@std@@PEAX@0@AEBQEAU10@@Z
	??$_Construct_in_place@PEAU?$_List_node@U?$pair@$$CBV?$basic_string@DU?$char_traits@D@std@@V?$allocator@D@2@@std@@H@std@@PEAX@std@@AEAPEAU12@@std@@YAXAEAPEAU?$_List_node@U?$pair@$$CBV?$basic_string@DU?$char_traits@D@std@@V?$allocator@D@2@@std@@H@std@@PEAX@0@0@Z
	??$_Construct_in_place@PEAU?$_List_node@U?$pair@$$CBV?$basic_string@DU?$char_traits@D@std@@V?$allocator@D@2@@std@@H@std@@PEAX@std@@AEBQEAU12@@std@@YAXAEAPEAU?$_List_node@U?$pair@$$CBV?$basic_string@DU?$char_traits@D@std@@V?$allocator@D@2@@std@@H@std@@PEAX@0@AEBQEAU10@@Z
	??$_Construct_in_place@PEAU?$_List_node@V?$array@I$02@std@@PEAX@std@@AEAPEAU12@@std@@YAXAEAPEAU?$_List_node@V?$array@I$02@std@@PEAX@0@0@Z
	??$_Construct_in_place@PEAU?$_List_node@V?$array@I$02@std@@PEAX@std@@AEBQEAU12@@std@@YAXAEAPEAU?$_List_node@V?$array@I$02@std@@PEAX@0@AEBQEAU10@@Z
	??$_Construct_in_place@PEAU?$_Tree_node@U?$pair@$$CBHVOptions@draco@@@std@@PEAX@std@@AEAPEAU12@@std@@YAXAEAPEAU?$_Tree_node@U?$pair@$$CBHVOptions@draco@@@std@@PEAX@0@0@Z
	??$_Construct_in_place@PEAU?$_Tree_node@U?$pair@$$CBHVOptions@draco@@@std@@PEAX@std@@AEBQEAU12@@std@@YAXAEAPEAU?$_Tree_node@U?$pair@$$CBHVOptions@draco@@@std@@PEAX@0@AEBQEAU10@@Z
	??$_Construct_in_place@PEAU?$_Tree_node@U?$pair@$$CBV?$IndexType@IUAttributeValueIndex_tag_type_@draco@@@draco@@V?$IndexType@IUPointIndex_tag_type_@draco@@@2@@std@@PEAX@std@@AEAPEAU12@@std@@YAXAEAPEAU?$_Tree_node@U?$pair@$$CBV?$IndexType@IUAttributeValueIndex_tag_type_@draco@@@draco@@V?$IndexType@IUPointIndex_tag_type_@draco@@@2@@std@@PEAX@0@0@Z
	??$_Construct_in_place@PEAU?$_Tree_node@U?$pair@$$CBV?$IndexType@IUAttributeValueIndex_tag_type_@draco@@@draco@@V?$IndexType@IUPointIndex_tag_type_@draco@@@2@@std@@PEAX@std@@AEBQEAU12@@std@@YAXAEAPEAU?$_Tree_node@U?$pair@$$CBV?$IndexType@IUAttributeValueIndex_tag_type_@draco@@@draco@@V?$IndexType@IUPointIndex_tag_type_@draco@@@2@@std@@PEAX@0@AEBQEAU10@@Z
	??$_Construct_in_place@PEAU?$_Tree_node@U?$pair@$$CBV?$basic_string@DU?$char_traits@D@std@@V?$allocator@D@2@@std@@H@std@@PEAX@std@@AEAPEAU12@@std@@YAXAEAPEAU?$_Tree_node@U?$pair@$$CBV?$basic_string@DU?$char_traits@D@std@@V?$allocator@D@2@@std@@H@std@@PEAX@0@0@Z
	??$_Construct_in_place@PEAU?$_Tree_node@U?$pair@$$CBV?$basic_string@DU?$char_traits@D@std@@V?$allocator@D@2@@std@@H@std@@PEAX@std@@AEBQEAU12@@std@@YAXAEAPEAU?$_Tree_node@U?$pair@$$CBV?$basic_string@DU?$char_traits@D@std@@V?$allocator@D@2@@std@@H@std@@PEAX@0@AEBQEAU10@@Z
	??$_Construct_in_place@PEAU?$_Tree_node@U?$pair@$$CBV?$basic_string@DU?$char_traits@D@std@@V?$allocator@D@2@@std@@V12@@std@@PEAX@std@@AEAPEAU12@@std@@YAXAEAPEAU?$_Tree_node@U?$pair@$$CBV?$basic_string@DU?$char_traits@D@std@@V?$allocator@D@2@@std@@V12@@std@@PEAX@0@0@Z
	??$_Construct_in_place@PEAU?$_Tree_node@U?$pair@$$CBV?$basic_string@DU?$char_traits@D@std@@V?$allocator@D@2@@std@@V12@@std@@PEAX@std@@AEBQEAU12@@std@@YAXAEAPEAU?$_Tree_node@U?$pair@$$CBV?$basic_string@DU?$char_traits@D@std@@V?$allocator@D@2@@std@@V12@@std@@PEAX@0@AEBQEAU10@@Z
	??$_Construct_in_place@PEAU?$_Tree_node@U?$pair@$$CBV?$basic_string@DU?$char_traits@D@std@@V?$allocator@D@2@@std@@V?$unique_ptr@VMetadata@draco@@U?$default_delete@VMetadata@draco@@@std@@@2@@std@@PEAX@std@@AEAPEAU12@@std@@YAXAEAPEAU?$_Tree_node@U?$pair@$$CBV?$basic_string@DU?$char_traits@D@std@@V?$allocator@D@2@@std@@V?$unique_ptr@VMetadata@draco@@U?$default_delete@VMetadata@draco@@@std@@@2@@std@@PEAX@0@0@Z
	??$_Construct_in_place@PEAU?$_Tree_node@U?$pair@$$CBV?$basic_string@DU?$char_traits@D@std@@V?$allocator@D@2@@std@@V?$unique_ptr@VMetadata@draco@@U?$default_delete@VMetadata@draco@@@std@@@2@@std@@PEAX@std@@AEBQEAU12@@std@@YAXAEAPEAU?$_Tree_node@U?$pair@$$CBV?$basic_string@DU?$char_traits@D@std@@V?$allocator@D@2@@std@@V?$unique_ptr@VMetadata@draco@@U?$default_delete@VMetadata@draco@@@std@@@2@@std@@PEAX@0@AEBQEAU10@@Z
	??$_Construct_in_place@PEAU?$_Tree_node@U?$pair@$$CBV?$basic_string@DU?$char_traits@D@std@@V?$allocator@D@2@@std@@VEntryValue@draco@@@std@@PEAX@std@@AEAPEAU12@@std@@YAXAEAPEAU?$_Tree_node@U?$pair@$$CBV?$basic_string@DU?$char_traits@D@std@@V?$allocator@D@2@@std@@VEntryValue@draco@@@std@@PEAX@0@0@Z
	??$_Construct_in_place@PEAU?$_Tree_node@U?$pair@$$CBV?$basic_string@DU?$char_traits@D@std@@V?$allocator@D@2@@std@@VEntryValue@draco@@@std@@PEAX@std@@AEBQEAU12@@std@@YAXAEAPEAU?$_Tree_node@U?$pair@$$CBV?$basic_string@DU?$char_traits@D@std@@V?$allocator@D@2@@std@@VEntryValue@draco@@@std@@PEAX@0@AEBQEAU10@@Z
	??$_Construct_in_place@PEAU?$_Tree_node@U?$pair@$$CBW4Type@GeometryAttribute@draco@@VOptions@3@@std@@PEAX@std@@AEAPEAU12@@std@@YAXAEAPEAU?$_Tree_node@U?$pair@$$CBW4Type@GeometryAttribute@draco@@VOptions@3@@std@@PEAX@0@0@Z
	??$_Construct_in_place@PEAU?$_Tree_node@U?$pair@$$CBW4Type@GeometryAttribute@draco@@VOptions@3@@std@@PEAX@std@@AEBQEAU12@@std@@YAXAEAPEAU?$_Tree_node@U?$pair@$$CBW4Type@GeometryAttribute@draco@@VOptions@3@@std@@PEAX@0@AEBQEAU10@@Z
	??$_Construct_in_place@PEAUDecodingStatus@?$DynamicIntegerPointsKdTreeDecoder@$00@draco@@AEAPEAU123@@std@@YAXAEAPEAUDecodingStatus@?$DynamicIntegerPointsKdTreeDecoder@$00@draco@@0@Z
	??$_Construct_in_place@PEAUDecodingStatus@?$DynamicIntegerPointsKdTreeDecoder@$01@draco@@AEAPEAU123@@std@@YAXAEAPEAUDecodingStatus@?$DynamicIntegerPointsKdTreeDecoder@$01@draco@@0@Z
	??$_Construct_in_place@PEAUDecodingStatus@?$DynamicIntegerPointsKdTreeDecoder@$02@draco@@AEAPEAU123@@std@@YAXAEAPEAUDecodingStatus@?$DynamicIntegerPointsKdTreeDecoder@$02@draco@@0@Z
	??$_Construct_in_place@PEAUDecodingStatus@?$DynamicIntegerPointsKdTreeDecoder@$03@draco@@AEAPEAU123@@std@@YAXAEAPEAUDecodingStatus@?$DynamicIntegerPointsKdTreeDecoder@$03@draco@@0@Z
	??$_Construct_in_place@PEAUDecodingStatus@?$DynamicIntegerPointsKdTreeDecoder@$04@draco@@AEAPEAU123@@std@@YAXAEAPEAUDecodingStatus@?$DynamicIntegerPointsKdTreeDecoder@$04@draco@@0@Z
	??$_Construct_in_place@PEAUDecodingStatus@?$DynamicIntegerPointsKdTreeDecoder@$05@draco@@AEAPEAU123@@std@@YAXAEAPEAUDecodingStatus@?$DynamicIntegerPointsKdTreeDecoder@$05@draco@@0@Z
	??$_Construct_in_place@PEAUDecodingStatus@?$DynamicIntegerPointsKdTreeDecoder@$0A@@draco@@AEAPEAU123@@std@@YAXAEAPEAUDecodingStatus@?$DynamicIntegerPointsKdTreeDecoder@$0A@@draco@@0@Z
	??$_Construct_in_place@PEBVMeshAttributeCornerTable@draco@@AEBQEBV12@@std@@YAXAEAPEBVMeshAttributeCornerTable@draco@@AEBQEBV12@@Z
	??$_Construct_in_place@PEBVPlyProperty@draco@@AEBQEBV12@@std@@YAXAEAPEBVPlyProperty@draco@@AEBQEBV12@@Z
	??$_Construct_in_place@U?$pair@V?$IndexType@IUVertexIndex_tag_type_@draco@@@draco@@V?$IndexType@IUCornerIndex_tag_type_@draco@@@2@@std@@AEBU12@@std@@YAXAEAU?$pair@V?$IndexType@IUVertexIndex_tag_type_@draco@@@draco@@V?$IndexType@IUCornerIndex_tag_type_@draco@@@2@@0@AEBU10@@Z
	??$_Construct_in_place@UHoleEventData@draco@@AEBU12@@std@@YAXAEAUHoleEventData@draco@@AEBU12@@Z
	??$_Construct_in_place@UMeshInfo@MeshAreEquivalent@draco@@U123@@std@@YAXAEAUMeshInfo@MeshAreEquivalent@draco@@$$QEAU123@@Z
	??$_Construct_in_place@UTopologySplitEventData@draco@@AEBU12@@std@@YAXAEAUTopologySplitEventData@draco@@AEBU12@@Z
	??$_Construct_in_place@U_Container_proxy@std@@PEAU_Container_base12@2@@std@@YAXAEAU_Container_proxy@0@$$QEAPEAU_Container_base12@0@@Z
	??$_Construct_in_place@V?$IndexType@IUAttributeValueIndex_tag_type_@draco@@@draco@@AEBV12@@std@@YAXAEAV?$IndexType@IUAttributeValueIndex_tag_type_@draco@@@draco@@AEBV12@@Z
	??$_Construct_in_place@V?$IndexType@IUAttributeValueIndex_tag_type_@draco@@@draco@@V12@@std@@YAXAEAV?$IndexType@IUAttributeValueIndex_tag_type_@draco@@@draco@@$$QEAV12@@Z
	??$_Construct_in_place@V?$IndexType@IUCornerIndex_tag_type_@draco@@@draco@@AEBV12@@std@@YAXAEAV?$IndexType@IUCornerIndex_tag_type_@draco@@@draco@@AEBV12@@Z
	??$_Construct_in_place@V?$IndexType@IUCornerIndex_tag_type_@draco@@@draco@@V12@@std@@YAXAEAV?$IndexType@IUCornerIndex_tag_type_@draco@@@draco@@$$QEAV12@@Z
	??$_Construct_in_place@V?$IndexType@IUFaceIndex_tag_type_@draco@@@draco@@AEBV12@@std@@YAXAEAV?$IndexType@IUFaceIndex_tag_type_@draco@@@draco@@AEBV12@@Z
	??$_Construct_in_place@V?$IndexType@IUPointIndex_tag_type_@draco@@@draco@@AEBV12@@std@@YAXAEAV?$IndexType@IUPointIndex_tag_type_@draco@@@draco@@AEBV12@@Z
	??$_Construct_in_place@V?$IndexType@IUVertexIndex_tag_type_@draco@@@draco@@AEBV12@@std@@YAXAEAV?$IndexType@IUVertexIndex_tag_type_@draco@@@draco@@AEBV12@@Z
	??$_Construct_in_place@V?$_List_unchecked_const_iterator@V?$_List_val@U?$_List_simple_types@V?$array@I$02@std@@@std@@@std@@U_Iterator_base0@2@@std@@AEBV12@@std@@YAXAEAV?$_List_unchecked_const_iterator@V?$_List_val@U?$_List_simple_types@V?$array@I$02@std@@@std@@@std@@U_Iterator_base0@2@@0@AEBV10@@Z
	??$_Construct_in_place@V?$_List_unchecked_iterator@V?$_List_val@U?$_List_simple_types@U?$pair@$$CBHH@std@@@std@@@std@@@std@@AEBV12@@std@@YAXAEAV?$_List_unchecked_iterator@V?$_List_val@U?$_List_simple_types@U?$pair@$$CBHH@std@@@std@@@std@@@0@AEBV10@@Z
	??$_Construct_in_place@V?$_List_unchecked_iterator@V?$_List_val@U?$_List_simple_types@U?$pair@$$CBHV?$IndexType@IUCornerIndex_tag_type_@draco@@@draco@@@std@@@std@@@std@@@std@@AEBV12@@std@@YAXAEAV?$_List_unchecked_iterator@V?$_List_val@U?$_List_simple_types@U?$pair@$$CBHV?$IndexType@IUCornerIndex_tag_type_@draco@@@draco@@@std@@@std@@@std@@@0@AEBV10@@Z
	??$_Construct_in_place@V?$_List_unchecked_iterator@V?$_List_val@U?$_List_simple_types@U?$pair@$$CBHV?$basic_string@DU?$char_traits@D@std@@V?$allocator@D@2@@std@@@std@@@std@@@std@@@std@@AEBV12@@std@@YAXAEAV?$_List_unchecked_iterator@V?$_List_val@U?$_List_simple_types@U?$pair@$$CBHV?$basic_string@DU?$char_traits@D@std@@V?$allocator@D@2@@std@@@std@@@std@@@std@@@0@AEBV10@@Z
	??$_Construct_in_place@V?$_List_unchecked_iterator@V?$_List_val@U?$_List_simple_types@U?$pair@$$CBV?$IndexType@IUPointIndex_tag_type_@draco@@@draco@@V12@@std@@@std@@@std@@@std@@AEBV12@@std@@YAXAEAV?$_List_unchecked_iterator@V?$_List_val@U?$_List_simple_types@U?$pair@$$CBV?$IndexType@IUPointIndex_tag_type_@draco@@@draco@@V12@@std@@@std@@@std@@@0@AEBV10@@Z
	??$_Construct_in_place@V?$_List_unchecked_iterator@V?$_List_val@U?$_List_simple_types@U?$pair@$$CBV?$array@E$00@std@@V?$IndexType@IUAttributeValueIndex_tag_type_@draco@@@draco@@@std@@@std@@@std@@@std@@AEBV12@@std@@YAXAEAV?$_List_unchecked_iterator@V?$_List_val@U?$_List_simple_types@U?$pair@$$CBV?$array@E$00@std@@V?$IndexType@IUAttributeValueIndex_tag_type_@draco@@@draco@@@std@@@std@@@std@@@0@AEBV10@@Z
	??$_Construct_in_place@V?$_List_unchecked_iterator@V?$_List_val@U?$_List_simple_types@U?$pair@$$CBV?$array@E$01@std@@V?$IndexType@IUAttributeValueIndex_tag_type_@draco@@@draco@@@std@@@std@@@std@@@std@@AEBV12@@std@@YAXAEAV?$_List_unchecked_iterator@V?$_List_val@U?$_List_simple_types@U?$pair@$$CBV?$array@E$01@std@@V?$IndexType@IUAttributeValueIndex_tag_type_@draco@@@draco@@@std@@@std@@@std@@@0@AEBV10@@Z
	??$_Construct_in_place@V?$_List_unchecked_iterator@V?$_List_val@U?$_List_simple_types@U?$pair@$$CBV?$array@E$02@std@@V?$IndexType@IUAttributeValueIndex_tag_type_@draco@@@draco@@@std@@@std@@@std@@@std@@AEBV12@@std@@YAXAEAV?$_List_unchecked_iterator@V?$_List_val@U?$_List_simple_types@U?$pair@$$CBV?$array@E$02@std@@V?$IndexType@IUAttributeValueIndex_tag_type_@draco@@@draco@@@std@@@std@@@std@@@0@AEBV10@@Z
	??$_Construct_in_place@V?$_List_unchecked_iterator@V?$_List_val@U?$_List_simple_types@U?$pair@$$CBV?$array@E$03@std@@V?$IndexType@IUAttributeValueIndex_tag_type_@draco@@@draco@@@std@@@std@@@std@@@std@@AEBV12@@std@@YAXAEAV?$_List_unchecked_iterator@V?$_List_val@U?$_List_simple_types@U?$pair@$$CBV?$array@E$03@std@@V?$IndexType@IUAttributeValueIndex_tag_type_@draco@@@draco@@@std@@@std@@@std@@@0@AEBV10@@Z
	??$_Construct_in_place@V?$_List_unchecked_iterator@V?$_List_val@U?$_List_simple_types@U?$pair@$$CBV?$array@G$00@std@@V?$IndexType@IUAttributeValueIndex_tag_type_@draco@@@draco@@@std@@@std@@@std@@@std@@AEBV12@@std@@YAXAEAV?$_List_unchecked_iterator@V?$_List_val@U?$_List_simple_types@U?$pair@$$CBV?$array@G$00@std@@V?$IndexType@IUAttributeValueIndex_tag_type_@draco@@@draco@@@std@@@std@@@std@@@0@AEBV10@@Z
	??$_Construct_in_place@V?$_List_unchecked_iterator@V?$_List_val@U?$_List_simple_types@U?$pair@$$CBV?$array@G$01@std@@V?$IndexType@IUAttributeValueIndex_tag_type_@draco@@@draco@@@std@@@std@@@std@@@std@@AEBV12@@std@@YAXAEAV?$_List_unchecked_iterator@V?$_List_val@U?$_List_simple_types@U?$pair@$$CBV?$array@G$01@std@@V?$IndexType@IUAttributeValueIndex_tag_type_@draco@@@draco@@@std@@@std@@@std@@@0@AEBV10@@Z
	??$_Construct_in_place@V?$_List_unchecked_iterator@V?$_List_val@U?$_List_simple_types@U?$pair@$$CBV?$array@G$02@std@@V?$IndexType@IUAttributeValueIndex_tag_type_@draco@@@draco@@@std@@@std@@@std@@@std@@AEBV12@@std@@YAXAEAV?$_List_unchecked_iterator@V?$_List_val@U?$_List_simple_types@U?$pair@$$CBV?$array@G$02@std@@V?$IndexType@IUAttributeValueIndex_tag_type_@draco@@@draco@@@std@@@std@@@std@@@0@AEBV10@@Z
	??$_Construct_in_place@V?$_List_unchecked_iterator@V?$_List_val@U?$_List_simple_types@U?$pair@$$CBV?$array@G$03@std@@V?$IndexType@IUAttributeValueIndex_tag_type_@draco@@@draco@@@std@@@std@@@std@@@std@@AEBV12@@std@@YAXAEAV?$_List_unchecked_iterator@V?$_List_val@U?$_List_simple_types@U?$pair@$$CBV?$array@G$03@std@@V?$IndexType@IUAttributeValueIndex_tag_type_@draco@@@draco@@@std@@@std@@@std@@@0@AEBV10@@Z
	??$_Construct_in_place@V?$_List_unchecked_iterator@V?$_List_val@U?$_List_simple_types@U?$pair@$$CBV?$array@I$00@std@@V?$IndexType@IUAttributeValueIndex_tag_type_@draco@@@draco@@@std@@@std@@@std@@@std@@AEBV12@@std@@YAXAEAV?$_List_unchecked_iterator@V?$_List_val@U?$_List_simple_types@U?$pair@$$CBV?$array@I$00@std@@V?$IndexType@IUAttributeValueIndex_tag_type_@draco@@@draco@@@std@@@std@@@std@@@0@AEBV10@@Z
	??$_Construct_in_place@V?$_List_unchecked_iterator@V?$_List_val@U?$_List_simple_types@U?$pair@$$CBV?$array@I$01@std@@V?$IndexType@IUAttributeValueIndex_tag_type_@draco@@@draco@@@std@@@std@@@std@@@std@@AEBV12@@std@@YAXAEAV?$_List_unchecked_iterator@V?$_List_val@U?$_List_simple_types@U?$pair@$$CBV?$array@I$01@std@@V?$IndexType@IUAttributeValueIndex_tag_type_@draco@@@draco@@@std@@@std@@@std@@@0@AEBV10@@Z
	??$_Construct_in_place@V?$_List_unchecked_iterator@V?$_List_val@U?$_List_simple_types@U?$pair@$$CBV?$array@I$02@std@@V?$IndexType@IUAttributeValueIndex_tag_type_@draco@@@draco@@@std@@@std@@@std@@@std@@AEBV12@@std@@YAXAEAV?$_List_unchecked_iterator@V?$_List_val@U?$_List_simple_types@U?$pair@$$CBV?$array@I$02@std@@V?$IndexType@IUAttributeValueIndex_tag_type_@draco@@@draco@@@std@@@std@@@std@@@0@AEBV10@@Z
	??$_Construct_in_place@V?$_List_unchecked_iterator@V?$_List_val@U?$_List_simple_types@U?$pair@$$CBV?$array@I$03@std@@V?$IndexType@IUAttributeValueIndex_tag_type_@draco@@@draco@@@std@@@std@@@std@@@std@@AEBV12@@std@@YAXAEAV?$_List_unchecked_iterator@V?$_List_val@U?$_List_simple_types@U?$pair@$$CBV?$array@I$03@std@@V?$IndexType@IUAttributeValueIndex_tag_type_@draco@@@draco@@@std@@@std@@@std@@@0@AEBV10@@Z
	??$_Construct_in_place@V?$_List_unchecked_iterator@V?$_List_val@U?$_List_simple_types@U?$pair@$$CBV?$basic_string@DU?$char_traits@D@std@@V?$allocator@D@2@@std@@H@std@@@std@@@std@@@std@@AEBV12@@std@@YAXAEAV?$_List_unchecked_iterator@V?$_List_val@U?$_List_simple_types@U?$pair@$$CBV?$basic_string@DU?$char_traits@D@std@@V?$allocator@D@2@@std@@H@std@@@std@@@std@@@0@AEBV10@@Z
	??$_Construct_in_place@V?$array@V?$IndexType@IUPointIndex_tag_type_@draco@@@draco@@$02@std@@AEBV12@@std@@YAXAEAV?$array@V?$IndexType@IUPointIndex_tag_type_@draco@@@draco@@$02@0@AEBV10@@Z
	??$_Construct_in_place@V?$unique_ptr@V?$PlyPropertyReader@E@draco@@U?$default_delete@V?$PlyPropertyReader@E@draco@@@std@@@std@@V12@@std@@YAXAEAV?$unique_ptr@V?$PlyPropertyReader@E@draco@@U?$default_delete@V?$PlyPropertyReader@E@draco@@@std@@@0@$$QEAV10@@Z
	??$_Construct_in_place@V?$unique_ptr@V?$PlyPropertyReader@H@draco@@U?$default_delete@V?$PlyPropertyReader@H@draco@@@std@@@std@@V12@@std@@YAXAEAV?$unique_ptr@V?$PlyPropertyReader@H@draco@@U?$default_delete@V?$PlyPropertyReader@H@draco@@@std@@@0@$$QEAV10@@Z
	??$_Construct_in_place@V?$unique_ptr@V?$PlyPropertyReader@M@draco@@U?$default_delete@V?$PlyPropertyReader@M@draco@@@std@@@std@@V12@@std@@YAXAEAV?$unique_ptr@V?$PlyPropertyReader@M@draco@@U?$default_delete@V?$PlyPropertyReader@M@draco@@@std@@@0@$$QEAV10@@Z
	??$_Construct_in_place@V?$unique_ptr@VAttributeMetadata@draco@@U?$default_delete@VAttributeMetadata@draco@@@std@@@std@@V12@@std@@YAXAEAV?$unique_ptr@VAttributeMetadata@draco@@U?$default_delete@VAttributeMetadata@draco@@@std@@@0@$$QEAV10@@Z
	??$_Construct_in_place@V?$unique_ptr@VAttributesEncoder@draco@@U?$default_delete@VAttributesEncoder@draco@@@std@@@std@@V12@@std@@YAXAEAV?$unique_ptr@VAttributesEncoder@draco@@U?$default_delete@VAttributesEncoder@draco@@@std@@@0@$$QEAV10@@Z
	??$_Construct_in_place@V?$unique_ptr@VPointAttribute@draco@@U?$default_delete@VPointAttribute@draco@@@std@@@std@@V12@@std@@YAXAEAV?$unique_ptr@VPointAttribute@draco@@U?$default_delete@VPointAttribute@draco@@@std@@@0@$$QEAV10@@Z
	??$_Construct_in_place@W4EdgebreakerTopologyBitPattern@draco@@AEBW412@@std@@YAXAEAW4EdgebreakerTopologyBitPattern@draco@@AEBW412@@Z
	??$_Construct_in_place@_JAEB_J@std@@YAXAEA_JAEB_J@Z
	??$_Construct_in_place@_J_J@std@@YAXAEA_J$$QEA_J@Z
	??$_Construct_n@$$V@?$vector@CV?$allocator@C@std@@@std@@AEAAX_K@Z
	??$_Construct_n@$$V@?$vector@EV?$allocator@E@std@@@std@@AEAAX_K@Z
	??$_Construct_n@$$V@?$vector@FV?$allocator@F@std@@@std@@AEAAX_K@Z
	??$_Construct_n@$$V@?$vector@GV?$allocator@G@std@@@std@@AEAAX_K@Z
	??$_Construct_n@$$V@?$vector@HV?$allocator@H@std@@@std@@AEAAX_K@Z
	??$_Construct_n@$$V@?$vector@IV?$allocator@I@std@@@std@@AEAAX_K@Z
	??$_Construct_n@$$V@?$vector@MV?$allocator@M@std@@@std@@AEAAX_K@Z
	??$_Construct_n@$$V@?$vector@V?$IndexType@IUAttributeValueIndex_tag_type_@draco@@@draco@@V?$allocator@V?$IndexType@IUAttributeValueIndex_tag_type_@draco@@@draco@@@std@@@std@@AEAAX_K@Z
	??$_Construct_n@$$V@?$vector@V?$IndexType@IUPointIndex_tag_type_@draco@@@draco@@V?$allocator@V?$IndexType@IUPointIndex_tag_type_@draco@@@draco@@@std@@@std@@AEAAX_K@Z
	??$_Construct_n@$$V@?$vector@V?$array@V?$IndexType@IUVertexIndex_tag_type_@draco@@@draco@@$02@std@@V?$allocator@V?$array@V?$IndexType@IUVertexIndex_tag_type_@draco@@@draco@@$02@std@@@2@@std@@AEAAX_K@Z
	??$_Construct_n@$$V@?$vector@V?$tuple@PEAVPointAttribute@draco@@IW4DataType@2@II@std@@V?$allocator@V?$tuple@PEAVPointAttribute@draco@@IW4DataType@2@II@std@@@2@@std@@AEAAX_K@Z
	??$_Construct_n@AEBH@?$vector@HV?$allocator@H@std@@@std@@AEAAX_KAEBH@Z
	??$_Construct_n@AEBI@?$vector@IV?$allocator@I@std@@@std@@AEAAX_KAEBI@Z
	??$_Construct_n@AEBM@?$vector@MV?$allocator@M@std@@@std@@AEAAX_KAEBM@Z
	??$_Construct_n@AEBQEAEAEBQEAE@?$vector@EV?$allocator@E@std@@@std@@AEAAX_KAEBQEAE1@Z
	??$_Construct_n@AEBQEAHAEBQEAH@?$vector@HV?$allocator@H@std@@@std@@AEAAX_KAEBQEAH1@Z
	??$_Construct_n@AEBQEAIAEBQEAI@?$vector@IV?$allocator@I@std@@@std@@AEAAX_KAEBQEAI1@Z
	??$_Construct_n@AEBQEAMAEBQEAM@?$vector@MV?$allocator@M@std@@@std@@AEAAX_KAEBQEAM1@Z
	??$_Construct_n@AEBQEAV?$tuple@PEAVPointAttribute@draco@@IW4DataType@2@II@std@@AEBQEAV12@@?$vector@V?$tuple@PEAVPointAttribute@draco@@IW4DataType@2@II@std@@V?$allocator@V?$tuple@PEAVPointAttribute@draco@@IW4DataType@2@II@std@@@2@@std@@AEAAX_KAEBQEAV?$tuple@PEAVPointAttribute@draco@@IW4DataType@2@II@1@1@Z
	??$_Construct_n@AEBQEAVPlyProperty@draco@@AEBQEAV12@@?$vector@VPlyProperty@draco@@V?$allocator@VPlyProperty@draco@@@std@@@std@@AEAAX_KAEBQEAVPlyProperty@draco@@1@Z
	??$_Construct_n@AEBQEA_JAEBQEA_J@?$vector@_JV?$allocator@_J@std@@@std@@AEAAX_KAEBQEA_J1@Z
	??$_Construct_n@AEBV?$vector@IV?$allocator@I@std@@@std@@@?$vector@V?$vector@IV?$allocator@I@std@@@std@@V?$allocator@V?$vector@IV?$allocator@I@std@@@std@@@2@@std@@AEAAX_KAEBV?$vector@IV?$allocator@I@std@@@1@@Z
	??$_Construct_n@AEB_K@?$vector@_KV?$allocator@_K@std@@@std@@AEAAX_KAEB_K@Z
	??$_Convert_size@_K_K@std@@YA_K_K@Z
	??$_Copy@$0A@@?$_Tree@V?$_Tmap_traits@HVOptions@draco@@U?$less@H@std@@V?$allocator@U?$pair@$$CBHVOptions@draco@@@std@@@4@$0A@@std@@@std@@IEAAXAEBV01@@Z
	??$_Copy@$0A@@?$_Tree@V?$_Tmap_traits@V?$basic_string@DU?$char_traits@D@std@@V?$allocator@D@2@@std@@HU?$less@V?$basic_string@DU?$char_traits@D@std@@V?$allocator@D@2@@std@@@2@V?$allocator@U?$pair@$$CBV?$basic_string@DU?$char_traits@D@std@@V?$allocator@D@2@@std@@H@std@@@2@$0A@@std@@@std@@IEAAXAEBV01@@Z
	??$_Copy@$0A@@?$_Tree@V?$_Tmap_traits@V?$basic_string@DU?$char_traits@D@std@@V?$allocator@D@2@@std@@V12@U?$less@V?$basic_string@DU?$char_traits@D@std@@V?$allocator@D@2@@std@@@2@V?$allocator@U?$pair@$$CBV?$basic_string@DU?$char_traits@D@std@@V?$allocator@D@2@@std@@V12@@std@@@2@$0A@@std@@@std@@IEAAXAEBV01@@Z
	??$_Copy@$0A@@?$_Tree@V?$_Tmap_traits@W4Type@GeometryAttribute@draco@@VOptions@3@U?$less@W4Type@GeometryAttribute@draco@@@std@@V?$allocator@U?$pair@$$CBW4Type@GeometryAttribute@draco@@VOptions@3@@std@@@6@$0A@@std@@@std@@IEAAXAEBV01@@Z
	??$_Copy_backward_memmove@PEADPEAD@std@@YAPEADPEAD00@Z
	??$_Copy_backward_memmove@PEAEPEAE@std@@YAPEAEPEAE00@Z
	??$_Copy_backward_memmove@PEAHPEAH@std@@YAPEAHPEAH00@Z
	??$_Copy_backward_unchecked@V?$_Vb_iterator@U?$_Wrap_alloc@V?$allocator@I@std@@@std@@@std@@V12@@std@@YA?AV?$_Vb_iterator@U?$_Wrap_alloc@V?$allocator@I@std@@@std@@@0@V10@00@Z
	??$_Copy_memmove@PEACPEAC@std@@YAPEACPEAC00@Z
	??$_Copy_memmove@PEADPEAD@std@@YAPEADPEAD00@Z
	??$_Copy_memmove@PEAEPEAE@std@@YAPEAEPEAE00@Z
	??$_Copy_memmove@PEAHPEAH@std@@YAPEAHPEAH00@Z
	??$_Copy_memmove@PEAIPEAI@std@@YAPEAIPEAI00@Z
	??$_Copy_memmove@PEAMPEAM@std@@YAPEAMPEAM00@Z
	??$_Copy_memmove@PEANPEAN@std@@YAPEANPEAN00@Z
	??$_Copy_memmove@PEAP6A?AV?$unique_ptr@VFileReaderInterface@draco@@U?$default_delete@VFileReaderInterface@draco@@@std@@@std@@AEBV?$basic_string@DU?$char_traits@D@std@@V?$allocator@D@2@@2@@ZPEAP6A?AV12@0@Z@std@@YAPEAP6A?AV?$unique_ptr@VFileReaderInterface@draco@@U?$default_delete@VFileReaderInterface@draco@@@std@@@0@AEBV?$basic_string@DU?$char_traits@D@std@@V?$allocator@D@2@@0@@ZPEAP6A?AV10@0@Z11@Z
	??$_Copy_memmove@PEAP6A?AV?$unique_ptr@VFileWriterInterface@draco@@U?$default_delete@VFileWriterInterface@draco@@@std@@@std@@AEBV?$basic_string@DU?$char_traits@D@std@@V?$allocator@D@2@@2@@ZPEAP6A?AV12@0@Z@std@@YAPEAP6A?AV?$unique_ptr@VFileWriterInterface@draco@@U?$default_delete@VFileWriterInterface@draco@@@std@@@0@AEBV?$basic_string@DU?$char_traits@D@std@@V?$allocator@D@2@@0@@ZPEAP6A?AV10@0@Z11@Z
	??$_Copy_memmove@PEAPEAU?$EncodingStatus@V?$_Vector_iterator@V?$_Vector_val@U?$_Simple_types@V?$VectorD@I$02@draco@@@std@@@std@@@std@@@?$DynamicIntegerPointsKdTreeEncoder@$00@draco@@PEAPEAU123@@std@@YAPEAPEAU?$EncodingStatus@V?$_Vector_iterator@V?$_Vector_val@U?$_Simple_types@V?$VectorD@I$02@draco@@@std@@@std@@@std@@@?$DynamicIntegerPointsKdTreeEncoder@$00@draco@@PEAPEAU123@00@Z
	??$_Copy_memmove@PEAPEAU?$EncodingStatus@V?$_Vector_iterator@V?$_Vector_val@U?$_Simple_types@V?$VectorD@I$02@draco@@@std@@@std@@@std@@@?$DynamicIntegerPointsKdTreeEncoder@$01@draco@@PEAPEAU123@@std@@YAPEAPEAU?$EncodingStatus@V?$_Vector_iterator@V?$_Vector_val@U?$_Simple_types@V?$VectorD@I$02@draco@@@std@@@std@@@std@@@?$DynamicIntegerPointsKdTreeEncoder@$01@draco@@PEAPEAU123@00@Z
	??$_Copy_memmove@PEAPEAU?$EncodingStatus@V?$_Vector_iterator@V?$_Vector_val@U?$_Simple_types@V?$VectorD@I$02@draco@@@std@@@std@@@std@@@?$DynamicIntegerPointsKdTreeEncoder@$02@draco@@PEAPEAU123@@std@@YAPEAPEAU?$EncodingStatus@V?$_Vector_iterator@V?$_Vector_val@U?$_Simple_types@V?$VectorD@I$02@draco@@@std@@@std@@@std@@@?$DynamicIntegerPointsKdTreeEncoder@$02@draco@@PEAPEAU123@00@Z
	??$_Copy_memmove@PEAPEAU?$EncodingStatus@V?$_Vector_iterator@V?$_Vector_val@U?$_Simple_types@V?$VectorD@I$02@draco@@@std@@@std@@@std@@@?$DynamicIntegerPointsKdTreeEncoder@$03@draco@@PEAPEAU123@@std@@YAPEAPEAU?$EncodingStatus@V?$_Vector_iterator@V?$_Vector_val@U?$_Simple_types@V?$VectorD@I$02@draco@@@std@@@std@@@std@@@?$DynamicIntegerPointsKdTreeEncoder@$03@draco@@PEAPEAU123@00@Z
	??$_Copy_memmove@PEAPEAU?$EncodingStatus@V?$_Vector_iterator@V?$_Vector_val@U?$_Simple_types@V?$VectorD@I$02@draco@@@std@@@std@@@std@@@?$DynamicIntegerPointsKdTreeEncoder@$04@draco@@PEAPEAU123@@std@@YAPEAPEAU?$EncodingStatus@V?$_Vector_iterator@V?$_Vector_val@U?$_Simple_types@V?$VectorD@I$02@draco@@@std@@@std@@@std@@@?$DynamicIntegerPointsKdTreeEncoder@$04@draco@@PEAPEAU123@00@Z
	??$_Copy_memmove@PEAPEAU?$EncodingStatus@V?$_Vector_iterator@V?$_Vector_val@U?$_Simple_types@V?$VectorD@I$02@draco@@@std@@@std@@@std@@@?$DynamicIntegerPointsKdTreeEncoder@$05@draco@@PEAPEAU123@@std@@YAPEAPEAU?$EncodingStatus@V?$_Vector_iterator@V?$_Vector_val@U?$_Simple_types@V?$VectorD@I$02@draco@@@std@@@std@@@std@@@?$DynamicIntegerPointsKdTreeEncoder@$05@draco@@PEAPEAU123@00@Z
	??$_Copy_memmove@PEAPEAU?$EncodingStatus@V?$_Vector_iterator@V?$_Vector_val@U?$_Simple_types@V?$VectorD@I$02@draco@@@std@@@std@@@std@@@?$DynamicIntegerPointsKdTreeEncoder@$0A@@draco@@PEAPEAU123@@std@@YAPEAPEAU?$EncodingStatus@V?$_Vector_iterator@V?$_Vector_val@U?$_Simple_types@V?$VectorD@I$02@draco@@@std@@@std@@@std@@@?$DynamicIntegerPointsKdTreeEncoder@$0A@@draco@@PEAPEAU123@00@Z
	??$_Copy_memmove@PEAPEAU?$EncodingStatus@VPointDVectorIterator@?$PointDVector@I@draco@@@?$DynamicIntegerPointsKdTreeEncoder@$00@draco@@PEAPEAU123@@std@@YAPEAPEAU?$EncodingStatus@VPointDVectorIterator@?$PointDVector@I@draco@@@?$DynamicIntegerPointsKdTreeEncoder@$00@draco@@PEAPEAU123@00@Z
	??$_Copy_memmove@PEAPEAU?$EncodingStatus@VPointDVectorIterator@?$PointDVector@I@draco@@@?$DynamicIntegerPointsKdTreeEncoder@$01@draco@@PEAPEAU123@@std@@YAPEAPEAU?$EncodingStatus@VPointDVectorIterator@?$PointDVector@I@draco@@@?$DynamicIntegerPointsKdTreeEncoder@$01@draco@@PEAPEAU123@00@Z
	??$_Copy_memmove@PEAPEAU?$EncodingStatus@VPointDVectorIterator@?$PointDVector@I@draco@@@?$DynamicIntegerPointsKdTreeEncoder@$02@draco@@PEAPEAU123@@std@@YAPEAPEAU?$EncodingStatus@VPointDVectorIterator@?$PointDVector@I@draco@@@?$DynamicIntegerPointsKdTreeEncoder@$02@draco@@PEAPEAU123@00@Z
	??$_Copy_memmove@PEAPEAU?$EncodingStatus@VPointDVectorIterator@?$PointDVector@I@draco@@@?$DynamicIntegerPointsKdTreeEncoder@$03@draco@@PEAPEAU123@@std@@YAPEAPEAU?$EncodingStatus@VPointDVectorIterator@?$PointDVector@I@draco@@@?$DynamicIntegerPointsKdTreeEncoder@$03@draco@@PEAPEAU123@00@Z
	??$_Copy_memmove@PEAPEAU?$EncodingStatus@VPointDVectorIterator@?$PointDVector@I@draco@@@?$DynamicIntegerPointsKdTreeEncoder@$04@draco@@PEAPEAU123@@std@@YAPEAPEAU?$EncodingStatus@VPointDVectorIterator@?$PointDVector@I@draco@@@?$DynamicIntegerPointsKdTreeEncoder@$04@draco@@PEAPEAU123@00@Z
	??$_Copy_memmove@PEAPEAU?$EncodingStatus@VPointDVectorIterator@?$PointDVector@I@draco@@@?$DynamicIntegerPointsKdTreeEncoder@$05@draco@@PEAPEAU123@@std@@YAPEAPEAU?$EncodingStatus@VPointDVectorIterator@?$PointDVector@I@draco@@@?$DynamicIntegerPointsKdTreeEncoder@$05@draco@@PEAPEAU123@00@Z
	??$_Copy_memmove@PEAPEAU?$EncodingStatus@VPointDVectorIterator@?$PointDVector@I@draco@@@?$DynamicIntegerPointsKdTreeEncoder@$0A@@draco@@PEAPEAU123@@std@@YAPEAPEAU?$EncodingStatus@VPointDVectorIterator@?$PointDVector@I@draco@@@?$DynamicIntegerPointsKdTreeEncoder@$0A@@draco@@PEAPEAU123@00@Z
	??$_Copy_memmove@PEAPEAUDecodingStatus@?$DynamicIntegerPointsKdTreeDecoder@$00@draco@@PEAPEAU123@@std@@YAPEAPEAUDecodingStatus@?$DynamicIntegerPointsKdTreeDecoder@$00@draco@@PEAPEAU123@00@Z
	??$_Copy_memmove@PEAPEAUDecodingStatus@?$DynamicIntegerPointsKdTreeDecoder@$01@draco@@PEAPEAU123@@std@@YAPEAPEAUDecodingStatus@?$DynamicIntegerPointsKdTreeDecoder@$01@draco@@PEAPEAU123@00@Z
	??$_Copy_memmove@PEAPEAUDecodingStatus@?$DynamicIntegerPointsKdTreeDecoder@$02@draco@@PEAPEAU123@@std@@YAPEAPEAUDecodingStatus@?$DynamicIntegerPointsKdTreeDecoder@$02@draco@@PEAPEAU123@00@Z
	??$_Copy_memmove@PEAPEAUDecodingStatus@?$DynamicIntegerPointsKdTreeDecoder@$03@draco@@PEAPEAU123@@std@@YAPEAPEAUDecodingStatus@?$DynamicIntegerPointsKdTreeDecoder@$03@draco@@PEAPEAU123@00@Z
	??$_Copy_memmove@PEAPEAUDecodingStatus@?$DynamicIntegerPointsKdTreeDecoder@$04@draco@@PEAPEAU123@@std@@YAPEAPEAUDecodingStatus@?$DynamicIntegerPointsKdTreeDecoder@$04@draco@@PEAPEAU123@00@Z
	??$_Copy_memmove@PEAPEAUDecodingStatus@?$DynamicIntegerPointsKdTreeDecoder@$05@draco@@PEAPEAU123@@std@@YAPEAPEAUDecodingStatus@?$DynamicIntegerPointsKdTreeDecoder@$05@draco@@PEAPEAU123@00@Z
	??$_Copy_memmove@PEAPEAUDecodingStatus@?$DynamicIntegerPointsKdTreeDecoder@$0A@@draco@@PEAPEAU123@@std@@YAPEAPEAUDecodingStatus@?$DynamicIntegerPointsKdTreeDecoder@$0A@@draco@@PEAPEAU123@00@Z
	??$_Copy_memmove@PEAPEBVMeshAttributeCornerTable@draco@@PEAPEBV12@@std@@YAPEAPEBVMeshAttributeCornerTable@draco@@PEAPEBV12@00@Z
	??$_Copy_memmove@PEAPEBVPlyProperty@draco@@PEAPEBV12@@std@@YAPEAPEBVPlyProperty@draco@@PEAPEBV12@00@Z
	??$_Copy_memmove@PEAU?$pair@V?$IndexType@IUVertexIndex_tag_type_@draco@@@draco@@V?$IndexType@IUCornerIndex_tag_type_@draco@@@2@@std@@PEAU12@@std@@YAPEAU?$pair@V?$IndexType@IUVertexIndex_tag_type_@draco@@@draco@@V?$IndexType@IUCornerIndex_tag_type_@draco@@@2@@0@PEAU10@00@Z
	??$_Copy_memmove@PEAUAttributeData@Mesh@draco@@PEAU123@@std@@YAPEAUAttributeData@Mesh@draco@@PEAU123@00@Z
	??$_Copy_memmove@PEAUHoleEventData@draco@@PEAU12@@std@@YAPEAUHoleEventData@draco@@PEAU12@00@Z
	??$_Copy_memmove@PEAUTopologySplitEventData@draco@@PEAU12@@std@@YAPEAUTopologySplitEventData@draco@@PEAU12@00@Z
	??$_Copy_memmove@PEAUrans_sym@draco@@PEAU12@@std@@YAPEAUrans_sym@draco@@PEAU12@00@Z
	??$_Copy_memmove@PEAV?$IndexType@IUAttributeValueIndex_tag_type_@draco@@@draco@@PEAV12@@std@@YAPEAV?$IndexType@IUAttributeValueIndex_tag_type_@draco@@@draco@@PEAV12@00@Z
	??$_Copy_memmove@PEAV?$IndexType@IUCornerIndex_tag_type_@draco@@@draco@@PEAV12@@std@@YAPEAV?$IndexType@IUCornerIndex_tag_type_@draco@@@draco@@PEAV12@00@Z
	??$_Copy_memmove@PEAV?$IndexType@IUFaceIndex_tag_type_@draco@@@draco@@PEAV12@@std@@YAPEAV?$IndexType@IUFaceIndex_tag_type_@draco@@@draco@@PEAV12@00@Z
	??$_Copy_memmove@PEAV?$IndexType@IUPointIndex_tag_type_@draco@@@draco@@PEAV12@@std@@YAPEAV?$IndexType@IUPointIndex_tag_type_@draco@@@draco@@PEAV12@00@Z
	??$_Copy_memmove@PEAV?$IndexType@IUVertexIndex_tag_type_@draco@@@draco@@PEAV12@@std@@YAPEAV?$IndexType@IUVertexIndex_tag_type_@draco@@@draco@@PEAV12@00@Z
	??$_Copy_memmove@PEAV?$array@V?$IndexType@IUPointIndex_tag_type_@draco@@@draco@@$02@std@@PEAV12@@std@@YAPEAV?$array@V?$IndexType@IUPointIndex_tag_type_@draco@@@draco@@$02@0@PEAV10@00@Z
	??$_Copy_memmove@PEAW4EdgebreakerTopologyBitPattern@draco@@PEAW412@@std@@YAPEAW4EdgebreakerTopologyBitPattern@draco@@PEAW412@00@Z
	??$_Copy_memmove@PEA_JPEA_J@std@@YAPEA_JPEA_J00@Z
	??$_Copy_memmove@PEBDPEAE@std@@YAPEAEPEBD0PEAE@Z
	??$_Copy_memmove@PEBEPEAD@std@@YAPEADPEBE0PEAD@Z
	??$_Copy_memmove@PEBEPEAE@std@@YAPEAEPEBE0PEAE@Z
	??$_Copy_memmove@PEBHPEAH@std@@YAPEAHPEBH0PEAH@Z
	??$_Copy_memmove@PEBMPEAM@std@@YAPEAMPEBM0PEAM@Z
	??$_Copy_memmove_n@PEAHPEAH@std@@YAPEAHPEAH_K0@Z
	??$_Copy_memmove_n@PEAIPEAI@std@@YAPEAIPEAI_K0@Z
	??$_Copy_memmove_n@PEAV?$IndexType@IUAttributeValueIndex_tag_type_@draco@@@draco@@PEAV12@@std@@YAPEAV?$IndexType@IUAttributeValueIndex_tag_type_@draco@@@draco@@PEAV12@_K0@Z
	??$_Copy_memmove_n@PEAV?$IndexType@IUCornerIndex_tag_type_@draco@@@draco@@PEAV12@@std@@YAPEAV?$IndexType@IUCornerIndex_tag_type_@draco@@@draco@@PEAV12@_K0@Z
	??$_Copy_memmove_n@PEBDPEAE@std@@YAPEAEPEBD_KPEAE@Z
	??$_Copy_memmove_n@PEBEPEAD@std@@YAPEADPEBE_KPEAD@Z
	??$_Copy_memmove_n@PEBEPEAE@std@@YAPEAEPEBE_KPEAE@Z
	??$_Copy_memmove_n@PEBHPEAH@std@@YAPEAHPEBH_KPEAH@Z
	??$_Copy_memmove_n@PEBMPEAM@std@@YAPEAMPEBM_KPEAM@Z
	??$_Copy_n_unchecked4@PEAH_KPEAH@std@@YAPEAHPEAH_K0@Z
	??$_Copy_n_unchecked4@PEAI_KPEAI@std@@YAPEAIPEAI_K0@Z
	??$_Copy_n_unchecked4@PEAV?$IndexType@IUAttributeValueIndex_tag_type_@draco@@@draco@@_KPEAV12@@std@@YAPEAV?$IndexType@IUAttributeValueIndex_tag_type_@draco@@@draco@@PEAV12@_K0@Z
	??$_Copy_n_unchecked4@PEAV?$IndexType@IUCornerIndex_tag_type_@draco@@@draco@@_KPEAV12@@std@@YAPEAV?$IndexType@IUCornerIndex_tag_type_@draco@@@draco@@PEAV12@_K0@Z
	??$_Copy_n_unchecked4@PEBH_KPEAH@std@@YAPEAHPEBH_KPEAH@Z
	??$_Copy_n_unchecked4@PEBM_KPEAM@std@@YAPEAMPEBM_KPEAM@Z
	??$_Copy_nodes@$0A@@?$_Tree@V?$_Tmap_traits@HVOptions@draco@@U?$less@H@std@@V?$allocator@U?$pair@$$CBHVOptions@draco@@@std@@@4@$0A@@std@@@std@@IEAAPEAU?$_Tree_node@U?$pair@$$CBHVOptions@draco@@@std@@PEAX@1@PEAU21@0@Z
	??$_Copy_nodes@$0A@@?$_Tree@V?$_Tmap_traits@V?$basic_string@DU?$char_traits@D@std@@V?$allocator@D@2@@std@@HU?$less@V?$basic_string@DU?$char_traits@D@std@@V?$allocator@D@2@@std@@@2@V?$allocator@U?$pair@$$CBV?$basic_string@DU?$char_traits@D@std@@V?$allocator@D@2@@std@@H@std@@@2@$0A@@std@@@std@@IEAAPEAU?$_Tree_node@U?$pair@$$CBV?$basic_string@DU?$char_traits@D@std@@V?$allocator@D@2@@std@@H@std@@PEAX@1@PEAU21@0@Z
	??$_Copy_nodes@$0A@@?$_Tree@V?$_Tmap_traits@V?$basic_string@DU?$char_traits@D@std@@V?$allocator@D@2@@std@@V12@U?$less@V?$basic_string@DU?$char_traits@D@std@@V?$allocator@D@2@@std@@@2@V?$allocator@U?$pair@$$CBV?$basic_string@DU?$char_traits@D@std@@V?$allocator@D@2@@std@@V12@@std@@@2@$0A@@std@@@std@@IEAAPEAU?$_Tree_node@U?$pair@$$CBV?$basic_string@DU?$char_traits@D@std@@V?$allocator@D@2@@std@@V12@@std@@PEAX@1@PEAU21@0@Z
	??$_Copy_nodes@$0A@@?$_Tree@V?$_Tmap_traits@W4Type@GeometryAttribute@draco@@VOptions@3@U?$less@W4Type@GeometryAttribute@draco@@@std@@V?$allocator@U?$pair@$$CBW4Type@GeometryAttribute@draco@@VOptions@3@@std@@@6@$0A@@std@@@std@@IEAAPEAU?$_Tree_node@U?$pair@$$CBW4Type@GeometryAttribute@draco@@VOptions@3@@std@@PEAX@1@PEAU21@0@Z
	??$_Copy_or_move@$0A@U?$pair@$$CBHVOptions@draco@@@std@@@?$_Tree@V?$_Tmap_traits@HVOptions@draco@@U?$less@H@std@@V?$allocator@U?$pair@$$CBHVOptions@draco@@@std@@@4@$0A@@std@@@std@@IEAAPEAU?$_Tree_node@U?$pair@$$CBHVOptions@draco@@@std@@PEAX@1@AEAU?$pair@$$CBHVOptions@draco@@@1@@Z
	??$_Copy_or_move@$0A@U?$pair@$$CBV?$basic_string@DU?$char_traits@D@std@@V?$allocator@D@2@@std@@H@std@@@?$_Tree@V?$_Tmap_traits@V?$basic_string@DU?$char_traits@D@std@@V?$allocator@D@2@@std@@HU?$less@V?$basic_string@DU?$char_traits@D@std@@V?$allocator@D@2@@std@@@2@V?$allocator@U?$pair@$$CBV?$basic_string@DU?$char_traits@D@std@@V?$allocator@D@2@@std@@H@std@@@2@$0A@@std@@@std@@IEAAPEAU?$_Tree_node@U?$pair@$$CBV?$basic_string@DU?$char_traits@D@std@@V?$allocator@D@2@@std@@H@std@@PEAX@1@AEAU?$pair@$$CBV?$basic_string@DU?$char_traits@D@std@@V?$allocator@D@2@@std@@H@1@@Z
	??$_Copy_or_move@$0A@U?$pair@$$CBV?$basic_string@DU?$char_traits@D@std@@V?$allocator@D@2@@std@@V12@@std@@@?$_Tree@V?$_Tmap_traits@V?$basic_string@DU?$char_traits@D@std@@V?$allocator@D@2@@std@@V12@U?$less@V?$basic_string@DU?$char_traits@D@std@@V?$allocator@D@2@@std@@@2@V?$allocator@U?$pair@$$CBV?$basic_string@DU?$char_traits@D@std@@V?$allocator@D@2@@std@@V12@@std@@@2@$0A@@std@@@std@@IEAAPEAU?$_Tree_node@U?$pair@$$CBV?$basic_string@DU?$char_traits@D@std@@V?$allocator@D@2@@std@@V12@@std@@PEAX@1@AEAU?$pair@$$CBV?$basic_string@DU?$char_traits@D@std@@V?$allocator@D@2@@std@@V12@@1@@Z
	??$_Copy_or_move@$0A@U?$pair@$$CBW4Type@GeometryAttribute@draco@@VOptions@3@@std@@@?$_Tree@V?$_Tmap_traits@W4Type@GeometryAttribute@draco@@VOptions@3@U?$less@W4Type@GeometryAttribute@draco@@@std@@V?$allocator@U?$pair@$$CBW4Type@GeometryAttribute@draco@@VOptions@3@@std@@@6@$0A@@std@@@std@@IEAAPEAU?$_Tree_node@U?$pair@$$CBW4Type@GeometryAttribute@draco@@VOptions@3@@std@@PEAX@1@AEAU?$pair@$$CBW4Type@GeometryAttribute@draco@@VOptions@3@@1@@Z
	??$_Copy_unchecked@PEBEPEBEPEAE@std@@YAPEAEPEBE0PEAE@Z
	??$_Copy_unchecked@V?$_Vb_iterator@U?$_Wrap_alloc@V?$allocator@I@std@@@std@@@std@@V12@V12@@std@@YA?AV?$_Vb_iterator@U?$_Wrap_alloc@V?$allocator@I@std@@@std@@@0@V10@00@Z
	??$_Could_compare_equal_to_value_type@PEAHH@std@@YA_NAEBH@Z
	??$_Deallocate@$07$0A@@std@@YAXPEAX_K@Z
	??$_Deallocate@$0BA@$0A@@std@@YAXPEAX_K@Z
	??$_Deallocate_plain@V?$allocator@U_Container_proxy@std@@@std@@@std@@YAXAEAV?$allocator@U_Container_proxy@std@@@0@QEAU_Container_proxy@0@@Z
	??$_Debug_lt_pred@AEAU?$less@X@std@@AEAV?$VectorD@M$02@draco@@AEAV34@$0A@@std@@YA_NAEAU?$less@X@0@AEAV?$VectorD@M$02@draco@@1@Z
	??$_Debug_lt_pred@AEAU?$less@X@std@@AEA_NAEA_N$0A@@std@@YA_NAEAU?$less@X@0@AEA_N1@Z
	??$_Debug_lt_pred@AEAUFaceIndexLess@MeshAreEquivalent@draco@@AEAV?$IndexType@IUFaceIndex_tag_type_@draco@@@3@AEAV43@$0A@@std@@YA_NAEAUFaceIndexLess@MeshAreEquivalent@draco@@AEAV?$IndexType@IUFaceIndex_tag_type_@draco@@@3@1@Z
	??$_Debug_lt_pred@AEAUProbabilityLess@?$RAnsSymbolEncoder@$00@draco@@AEAHAEAH$0A@@std@@YA_NAEAUProbabilityLess@?$RAnsSymbolEncoder@$00@draco@@AEAH1@Z
	??$_Debug_lt_pred@AEAUProbabilityLess@?$RAnsSymbolEncoder@$01@draco@@AEAHAEAH$0A@@std@@YA_NAEAUProbabilityLess@?$RAnsSymbolEncoder@$01@draco@@AEAH1@Z
	??$_Debug_lt_pred@AEAUProbabilityLess@?$RAnsSymbolEncoder@$02@draco@@AEAHAEAH$0A@@std@@YA_NAEAUProbabilityLess@?$RAnsSymbolEncoder@$02@draco@@AEAH1@Z
	??$_Debug_lt_pred@AEAUProbabilityLess@?$RAnsSymbolEncoder@$03@draco@@AEAHAEAH$0A@@std@@YA_NAEAUProbabilityLess@?$RAnsSymbolEncoder@$03@draco@@AEAH1@Z
	??$_Debug_lt_pred@AEAUProbabilityLess@?$RAnsSymbolEncoder@$04@draco@@AEAHAEAH$0A@@std@@YA_NAEAUProbabilityLess@?$RAnsSymbolEncoder@$04@draco@@AEAH1@Z
	??$_Debug_lt_pred@AEAUProbabilityLess@?$RAnsSymbolEncoder@$05@draco@@AEAHAEAH$0A@@std@@YA_NAEAUProbabilityLess@?$RAnsSymbolEncoder@$05@draco@@AEAH1@Z
	??$_Debug_lt_pred@AEAUProbabilityLess@?$RAnsSymbolEncoder@$06@draco@@AEAHAEAH$0A@@std@@YA_NAEAUProbabilityLess@?$RAnsSymbolEncoder@$06@draco@@AEAH1@Z
	??$_Debug_lt_pred@AEAUProbabilityLess@?$RAnsSymbolEncoder@$07@draco@@AEAHAEAH$0A@@std@@YA_NAEAUProbabilityLess@?$RAnsSymbolEncoder@$07@draco@@AEAH1@Z
	??$_Debug_lt_pred@AEAUProbabilityLess@?$RAnsSymbolEncoder@$08@draco@@AEAHAEAH$0A@@std@@YA_NAEAUProbabilityLess@?$RAnsSymbolEncoder@$08@draco@@AEAH1@Z
	??$_Debug_lt_pred@AEAUProbabilityLess@?$RAnsSymbolEncoder@$09@draco@@AEAHAEAH$0A@@std@@YA_NAEAUProbabilityLess@?$RAnsSymbolEncoder@$09@draco@@AEAH1@Z
	??$_Debug_lt_pred@AEAUProbabilityLess@?$RAnsSymbolEncoder@$0BA@@draco@@AEAHAEAH$0A@@std@@YA_NAEAUProbabilityLess@?$RAnsSymbolEncoder@$0BA@@draco@@AEAH1@Z
	??$_Debug_lt_pred@AEAUProbabilityLess@?$RAnsSymbolEncoder@$0BB@@draco@@AEAHAEAH$0A@@std@@YA_NAEAUProbabilityLess@?$RAnsSymbolEncoder@$0BB@@draco@@AEAH1@Z
	??$_Debug_lt_pred@AEAUProbabilityLess@?$RAnsSymbolEncoder@$0BC@@draco@@AEAHAEAH$0A@@std@@YA_NAEAUProbabilityLess@?$RAnsSymbolEncoder@$0BC@@draco@@AEAH1@Z
	??$_Debug_lt_pred@AEAUProbabilityLess@?$RAnsSymbolEncoder@$0L@@draco@@AEAHAEAH$0A@@std@@YA_NAEAUProbabilityLess@?$RAnsSymbolEncoder@$0L@@draco@@AEAH1@Z
	??$_Debug_lt_pred@AEAUProbabilityLess@?$RAnsSymbolEncoder@$0M@@draco@@AEAHAEAH$0A@@std@@YA_NAEAUProbabilityLess@?$RAnsSymbolEncoder@$0M@@draco@@AEAH1@Z
	??$_Debug_lt_pred@AEAUProbabilityLess@?$RAnsSymbolEncoder@$0N@@draco@@AEAHAEAH$0A@@std@@YA_NAEAUProbabilityLess@?$RAnsSymbolEncoder@$0N@@draco@@AEAH1@Z
	??$_Debug_lt_pred@AEAUProbabilityLess@?$RAnsSymbolEncoder@$0O@@draco@@AEAHAEAH$0A@@std@@YA_NAEAUProbabilityLess@?$RAnsSymbolEncoder@$0O@@draco@@AEAH1@Z
	??$_Debug_lt_pred@AEAUProbabilityLess@?$RAnsSymbolEncoder@$0P@@draco@@AEAHAEAH$0A@@std@@YA_NAEAUProbabilityLess@?$RAnsSymbolEncoder@$0P@@draco@@AEAH1@Z
	??$_Debug_lt_pred@AEBU?$less@H@std@@AEBHAEBH$0A@@std@@YA_NAEBU?$less@H@0@AEBH1@Z
	??$_Debug_lt_pred@AEBU?$less@V?$IndexType@IUAttributeValueIndex_tag_type_@draco@@@draco@@@std@@AEBV?$IndexType@IUAttributeValueIndex_tag_type_@draco@@@draco@@AEBV34@$0A@@std@@YA_NAEBU?$less@V?$IndexType@IUAttributeValueIndex_tag_type_@draco@@@draco@@@0@AEBV?$IndexType@IUAttributeValueIndex_tag_type_@draco@@@draco@@1@Z
	??$_Debug_lt_pred@AEBU?$less@V?$basic_string@DU?$char_traits@D@std@@V?$allocator@D@2@@std@@@std@@AEBV?$basic_string@DU?$char_traits@D@std@@V?$allocator@D@2@@2@AEBV32@$0A@@std@@YA_NAEBU?$less@V?$basic_string@DU?$char_traits@D@std@@V?$allocator@D@2@@std@@@0@AEBV?$basic_string@DU?$char_traits@D@std@@V?$allocator@D@2@@0@1@Z
	??$_Debug_lt_pred@AEBU?$less@W4Type@GeometryAttribute@draco@@@std@@AEBW4Type@GeometryAttribute@draco@@AEBW4345@$0A@@std@@YA_NAEBU?$less@W4Type@GeometryAttribute@draco@@@0@AEBW4Type@GeometryAttribute@draco@@1@Z
	??$_Delete_plain_internal@V?$allocator@U_Container_proxy@std@@@std@@@std@@YAXAEAV?$allocator@U_Container_proxy@std@@@0@QEAU_Container_proxy@0@@Z
	??$_Destroy_in_place@PEAD@std@@YAXAEAPEAD@Z
	??$_Destroy_in_place@PEAU?$EncodingStatus@V?$_Vector_iterator@V?$_Vector_val@U?$_Simple_types@V?$VectorD@I$02@draco@@@std@@@std@@@std@@@?$DynamicIntegerPointsKdTreeEncoder@$00@draco@@@std@@YAXAEAPEAU?$EncodingStatus@V?$_Vector_iterator@V?$_Vector_val@U?$_Simple_types@V?$VectorD@I$02@draco@@@std@@@std@@@std@@@?$DynamicIntegerPointsKdTreeEncoder@$00@draco@@@Z
	??$_Destroy_in_place@PEAU?$EncodingStatus@V?$_Vector_iterator@V?$_Vector_val@U?$_Simple_types@V?$VectorD@I$02@draco@@@std@@@std@@@std@@@?$DynamicIntegerPointsKdTreeEncoder@$01@draco@@@std@@YAXAEAPEAU?$EncodingStatus@V?$_Vector_iterator@V?$_Vector_val@U?$_Simple_types@V?$VectorD@I$02@draco@@@std@@@std@@@std@@@?$DynamicIntegerPointsKdTreeEncoder@$01@draco@@@Z
	??$_Destroy_in_place@PEAU?$EncodingStatus@V?$_Vector_iterator@V?$_Vector_val@U?$_Simple_types@V?$VectorD@I$02@draco@@@std@@@std@@@std@@@?$DynamicIntegerPointsKdTreeEncoder@$02@draco@@@std@@YAXAEAPEAU?$EncodingStatus@V?$_Vector_iterator@V?$_Vector_val@U?$_Simple_types@V?$VectorD@I$02@draco@@@std@@@std@@@std@@@?$DynamicIntegerPointsKdTreeEncoder@$02@draco@@@Z
	??$_Destroy_in_place@PEAU?$EncodingStatus@V?$_Vector_iterator@V?$_Vector_val@U?$_Simple_types@V?$VectorD@I$02@draco@@@std@@@std@@@std@@@?$DynamicIntegerPointsKdTreeEncoder@$03@draco@@@std@@YAXAEAPEAU?$EncodingStatus@V?$_Vector_iterator@V?$_Vector_val@U?$_Simple_types@V?$VectorD@I$02@draco@@@std@@@std@@@std@@@?$DynamicIntegerPointsKdTreeEncoder@$03@draco@@@Z
	??$_Destroy_in_place@PEAU?$EncodingStatus@V?$_Vector_iterator@V?$_Vector_val@U?$_Simple_types@V?$VectorD@I$02@draco@@@std@@@std@@@std@@@?$DynamicIntegerPointsKdTreeEncoder@$04@draco@@@std@@YAXAEAPEAU?$EncodingStatus@V?$_Vector_iterator@V?$_Vector_val@U?$_Simple_types@V?$VectorD@I$02@draco@@@std@@@std@@@std@@@?$DynamicIntegerPointsKdTreeEncoder@$04@draco@@@Z
	??$_Destroy_in_place@PEAU?$EncodingStatus@V?$_Vector_iterator@V?$_Vector_val@U?$_Simple_types@V?$VectorD@I$02@draco@@@std@@@std@@@std@@@?$DynamicIntegerPointsKdTreeEncoder@$05@draco@@@std@@YAXAEAPEAU?$EncodingStatus@V?$_Vector_iterator@V?$_Vector_val@U?$_Simple_types@V?$VectorD@I$02@draco@@@std@@@std@@@std@@@?$DynamicIntegerPointsKdTreeEncoder@$05@draco@@@Z
	??$_Destroy_in_place@PEAU?$EncodingStatus@V?$_Vector_iterator@V?$_Vector_val@U?$_Simple_types@V?$VectorD@I$02@draco@@@std@@@std@@@std@@@?$DynamicIntegerPointsKdTreeEncoder@$0A@@draco@@@std@@YAXAEAPEAU?$EncodingStatus@V?$_Vector_iterator@V?$_Vector_val@U?$_Simple_types@V?$VectorD@I$02@draco@@@std@@@std@@@std@@@?$DynamicIntegerPointsKdTreeEncoder@$0A@@draco@@@Z
	??$_Destroy_in_place@PEAU?$EncodingStatus@VPointDVectorIterator@?$PointDVector@I@draco@@@?$DynamicIntegerPointsKdTreeEncoder@$00@draco@@@std@@YAXAEAPEAU?$EncodingStatus@VPointDVectorIterator@?$PointDVector@I@draco@@@?$DynamicIntegerPointsKdTreeEncoder@$00@draco@@@Z
	??$_Destroy_in_place@PEAU?$EncodingStatus@VPointDVectorIterator@?$PointDVector@I@draco@@@?$DynamicIntegerPointsKdTreeEncoder@$01@draco@@@std@@YAXAEAPEAU?$EncodingStatus@VPointDVectorIterator@?$PointDVector@I@draco@@@?$DynamicIntegerPointsKdTreeEncoder@$01@draco@@@Z
	??$_Destroy_in_place@PEAU?$EncodingStatus@VPointDVectorIterator@?$PointDVector@I@draco@@@?$DynamicIntegerPointsKdTreeEncoder@$02@draco@@@std@@YAXAEAPEAU?$EncodingStatus@VPointDVectorIterator@?$PointDVector@I@draco@@@?$DynamicIntegerPointsKdTreeEncoder@$02@draco@@@Z
	??$_Destroy_in_place@PEAU?$EncodingStatus@VPointDVectorIterator@?$PointDVector@I@draco@@@?$DynamicIntegerPointsKdTreeEncoder@$03@draco@@@std@@YAXAEAPEAU?$EncodingStatus@VPointDVectorIterator@?$PointDVector@I@draco@@@?$DynamicIntegerPointsKdTreeEncoder@$03@draco@@@Z
	??$_Destroy_in_place@PEAU?$EncodingStatus@VPointDVectorIterator@?$PointDVector@I@draco@@@?$DynamicIntegerPointsKdTreeEncoder@$04@draco@@@std@@YAXAEAPEAU?$EncodingStatus@VPointDVectorIterator@?$PointDVector@I@draco@@@?$DynamicIntegerPointsKdTreeEncoder@$04@draco@@@Z
	??$_Destroy_in_place@PEAU?$EncodingStatus@VPointDVectorIterator@?$PointDVector@I@draco@@@?$DynamicIntegerPointsKdTreeEncoder@$05@draco@@@std@@YAXAEAPEAU?$EncodingStatus@VPointDVectorIterator@?$PointDVector@I@draco@@@?$DynamicIntegerPointsKdTreeEncoder@$05@draco@@@Z
	??$_Destroy_in_place@PEAU?$EncodingStatus@VPointDVectorIterator@?$PointDVector@I@draco@@@?$DynamicIntegerPointsKdTreeEncoder@$0A@@draco@@@std@@YAXAEAPEAU?$EncodingStatus@VPointDVectorIterator@?$PointDVector@I@draco@@@?$DynamicIntegerPointsKdTreeEncoder@$0A@@draco@@@Z
	??$_Destroy_in_place@PEAU?$_List_node@U?$pair@$$CBHH@std@@PEAX@std@@@std@@YAXAEAPEAU?$_List_node@U?$pair@$$CBHH@std@@PEAX@0@@Z
	??$_Destroy_in_place@PEAU?$_List_node@U?$pair@$$CBHV?$IndexType@IUCornerIndex_tag_type_@draco@@@draco@@@std@@PEAX@std@@@std@@YAXAEAPEAU?$_List_node@U?$pair@$$CBHV?$IndexType@IUCornerIndex_tag_type_@draco@@@draco@@@std@@PEAX@0@@Z
	??$_Destroy_in_place@PEAU?$_List_node@U?$pair@$$CBHV?$basic_string@DU?$char_traits@D@std@@V?$allocator@D@2@@std@@@std@@PEAX@std@@@std@@YAXAEAPEAU?$_List_node@U?$pair@$$CBHV?$basic_string@DU?$char_traits@D@std@@V?$allocator@D@2@@std@@@std@@PEAX@0@@Z
	??$_Destroy_in_place@PEAU?$_List_node@U?$pair@$$CBV?$IndexType@IUPointIndex_tag_type_@draco@@@draco@@V12@@std@@PEAX@std@@@std@@YAXAEAPEAU?$_List_node@U?$pair@$$CBV?$IndexType@IUPointIndex_tag_type_@draco@@@draco@@V12@@std@@PEAX@0@@Z
	??$_Destroy_in_place@PEAU?$_List_node@U?$pair@$$CBV?$array@E$00@std@@V?$IndexType@IUAttributeValueIndex_tag_type_@draco@@@draco@@@std@@PEAX@std@@@std@@YAXAEAPEAU?$_List_node@U?$pair@$$CBV?$array@E$00@std@@V?$IndexType@IUAttributeValueIndex_tag_type_@draco@@@draco@@@std@@PEAX@0@@Z
	??$_Destroy_in_place@PEAU?$_List_node@U?$pair@$$CBV?$array@E$01@std@@V?$IndexType@IUAttributeValueIndex_tag_type_@draco@@@draco@@@std@@PEAX@std@@@std@@YAXAEAPEAU?$_List_node@U?$pair@$$CBV?$array@E$01@std@@V?$IndexType@IUAttributeValueIndex_tag_type_@draco@@@draco@@@std@@PEAX@0@@Z
	??$_Destroy_in_place@PEAU?$_List_node@U?$pair@$$CBV?$array@E$02@std@@V?$IndexType@IUAttributeValueIndex_tag_type_@draco@@@draco@@@std@@PEAX@std@@@std@@YAXAEAPEAU?$_List_node@U?$pair@$$CBV?$array@E$02@std@@V?$IndexType@IUAttributeValueIndex_tag_type_@draco@@@draco@@@std@@PEAX@0@@Z
	??$_Destroy_in_place@PEAU?$_List_node@U?$pair@$$CBV?$array@E$03@std@@V?$IndexType@IUAttributeValueIndex_tag_type_@draco@@@draco@@@std@@PEAX@std@@@std@@YAXAEAPEAU?$_List_node@U?$pair@$$CBV?$array@E$03@std@@V?$IndexType@IUAttributeValueIndex_tag_type_@draco@@@draco@@@std@@PEAX@0@@Z
	??$_Destroy_in_place@PEAU?$_List_node@U?$pair@$$CBV?$array@G$00@std@@V?$IndexType@IUAttributeValueIndex_tag_type_@draco@@@draco@@@std@@PEAX@std@@@std@@YAXAEAPEAU?$_List_node@U?$pair@$$CBV?$array@G$00@std@@V?$IndexType@IUAttributeValueIndex_tag_type_@draco@@@draco@@@std@@PEAX@0@@Z
	??$_Destroy_in_place@PEAU?$_List_node@U?$pair@$$CBV?$array@G$01@std@@V?$IndexType@IUAttributeValueIndex_tag_type_@draco@@@draco@@@std@@PEAX@std@@@std@@YAXAEAPEAU?$_List_node@U?$pair@$$CBV?$array@G$01@std@@V?$IndexType@IUAttributeValueIndex_tag_type_@draco@@@draco@@@std@@PEAX@0@@Z
	??$_Destroy_in_place@PEAU?$_List_node@U?$pair@$$CBV?$array@G$02@std@@V?$IndexType@IUAttributeValueIndex_tag_type_@draco@@@draco@@@std@@PEAX@std@@@std@@YAXAEAPEAU?$_List_node@U?$pair@$$CBV?$array@G$02@std@@V?$IndexType@IUAttributeValueIndex_tag_type_@draco@@@draco@@@std@@PEAX@0@@Z
	??$_Destroy_in_place@PEAU?$_List_node@U?$pair@$$CBV?$array@G$03@std@@V?$IndexType@IUAttributeValueIndex_tag_type_@draco@@@draco@@@std@@PEAX@std@@@std@@YAXAEAPEAU?$_List_node@U?$pair@$$CBV?$array@G$03@std@@V?$IndexType@IUAttributeValueIndex_tag_type_@draco@@@draco@@@std@@PEAX@0@@Z
	??$_Destroy_in_place@PEAU?$_List_node@U?$pair@$$CBV?$array@I$00@std@@V?$IndexType@IUAttributeValueIndex_tag_type_@draco@@@draco@@@std@@PEAX@std@@@std@@YAXAEAPEAU?$_List_node@U?$pair@$$CBV?$array@I$00@std@@V?$IndexType@IUAttributeValueIndex_tag_type_@draco@@@draco@@@std@@PEAX@0@@Z
	??$_Destroy_in_place@PEAU?$_List_node@U?$pair@$$CBV?$array@I$01@std@@V?$IndexType@IUAttributeValueIndex_tag_type_@draco@@@draco@@@std@@PEAX@std@@@std@@YAXAEAPEAU?$_List_node@U?$pair@$$CBV?$array@I$01@std@@V?$IndexType@IUAttributeValueIndex_tag_type_@draco@@@draco@@@std@@PEAX@0@@Z
	??$_Destroy_in_place@PEAU?$_List_node@U?$pair@$$CBV?$array@I$02@std@@V?$IndexType@IUAttributeValueIndex_tag_type_@draco@@@draco@@@std@@PEAX@std@@@std@@YAXAEAPEAU?$_List_node@U?$pair@$$CBV?$array@I$02@std@@V?$IndexType@IUAttributeValueIndex_tag_type_@draco@@@draco@@@std@@PEAX@0@@Z
	??$_Destroy_in_place@PEAU?$_List_node@U?$pair@$$CBV?$array@I$03@std@@V?$IndexType@IUAttributeValueIndex_tag_type_@draco@@@draco@@@std@@PEAX@std@@@std@@YAXAEAPEAU?$_List_node@U?$pair@$$CBV?$array@I$03@std@@V?$IndexType@IUAttributeValueIndex_tag_type_@draco@@@draco@@@std@@PEAX@0@@Z
	??$_Destroy_in_place@PEAU?$_List_node@U?$pair@$$CBV?$basic_string@DU?$char_traits@D@std@@V?$allocator@D@2@@std@@H@std@@PEAX@std@@@std@@YAXAEAPEAU?$_List_node@U?$pair@$$CBV?$basic_string@DU?$char_traits@D@std@@V?$allocator@D@2@@std@@H@std@@PEAX@0@@Z
	??$_Destroy_in_place@PEAU?$_List_node@V?$array@I$02@std@@PEAX@std@@@std@@YAXAEAPEAU?$_List_node@V?$array@I$02@std@@PEAX@0@@Z
	??$_Destroy_in_place@PEAU?$_Tree_node@U?$pair@$$CBHVOptions@draco@@@std@@PEAX@std@@@std@@YAXAEAPEAU?$_Tree_node@U?$pair@$$CBHVOptions@draco@@@std@@PEAX@0@@Z
	??$_Destroy_in_place@PEAU?$_Tree_node@U?$pair@$$CBV?$IndexType@IUAttributeValueIndex_tag_type_@draco@@@draco@@V?$IndexType@IUPointIndex_tag_type_@draco@@@2@@std@@PEAX@std@@@std@@YAXAEAPEAU?$_Tree_node@U?$pair@$$CBV?$IndexType@IUAttributeValueIndex_tag_type_@draco@@@draco@@V?$IndexType@IUPointIndex_tag_type_@draco@@@2@@std@@PEAX@0@@Z
	??$_Destroy_in_place@PEAU?$_Tree_node@U?$pair@$$CBV?$basic_string@DU?$char_traits@D@std@@V?$allocator@D@2@@std@@H@std@@PEAX@std@@@std@@YAXAEAPEAU?$_Tree_node@U?$pair@$$CBV?$basic_string@DU?$char_traits@D@std@@V?$allocator@D@2@@std@@H@std@@PEAX@0@@Z
	??$_Destroy_in_place@PEAU?$_Tree_node@U?$pair@$$CBV?$basic_string@DU?$char_traits@D@std@@V?$allocator@D@2@@std@@V12@@std@@PEAX@std@@@std@@YAXAEAPEAU?$_Tree_node@U?$pair@$$CBV?$basic_string@DU?$char_traits@D@std@@V?$allocator@D@2@@std@@V12@@std@@PEAX@0@@Z
	??$_Destroy_in_place@PEAU?$_Tree_node@U?$pair@$$CBV?$basic_string@DU?$char_traits@D@std@@V?$allocator@D@2@@std@@V?$unique_ptr@VMetadata@draco@@U?$default_delete@VMetadata@draco@@@std@@@2@@std@@PEAX@std@@@std@@YAXAEAPEAU?$_Tree_node@U?$pair@$$CBV?$basic_string@DU?$char_traits@D@std@@V?$allocator@D@2@@std@@V?$unique_ptr@VMetadata@draco@@U?$default_delete@VMetadata@draco@@@std@@@2@@std@@PEAX@0@@Z
